	.text
	.file	"mummergpu_kernel.cu"
	.section	.text.startup,"ax",@progbits
	.p2align	4, 0x90                         # -- Begin function __cxx_global_var_init
	.type	__cxx_global_var_init,@function
__cxx_global_var_init:                  # @__cxx_global_var_init
	.cfi_startproc
# %bb.0:
	pushq	%rbp
	.cfi_def_cfa_offset 16
	.cfi_offset %rbp, -16
	movq	%rsp, %rbp
	.cfi_def_cfa_register %rbp
	leaq	nodetex(%rip), %rdi
	xorl	%edx, %edx
	movl	$1, %ecx
	movl	%edx, %esi
	callq	_ZN7textureI5uint4Li2EL19cudaTextureReadMode0EEC2Ei21cudaTextureFilterMode22cudaTextureAddressMode
	popq	%rbp
	.cfi_def_cfa %rsp, 8
	retq
.Lfunc_end0:
	.size	__cxx_global_var_init, .Lfunc_end0-__cxx_global_var_init
	.cfi_endproc
                                        # -- End function
	.section	.text._ZN7textureI5uint4Li2EL19cudaTextureReadMode0EEC2Ei21cudaTextureFilterMode22cudaTextureAddressMode,"axG",@progbits,_ZN7textureI5uint4Li2EL19cudaTextureReadMode0EEC2Ei21cudaTextureFilterMode22cudaTextureAddressMode,comdat
	.weak	_ZN7textureI5uint4Li2EL19cudaTextureReadMode0EEC2Ei21cudaTextureFilterMode22cudaTextureAddressMode # -- Begin function _ZN7textureI5uint4Li2EL19cudaTextureReadMode0EEC2Ei21cudaTextureFilterMode22cudaTextureAddressMode
	.p2align	4, 0x90
	.type	_ZN7textureI5uint4Li2EL19cudaTextureReadMode0EEC2Ei21cudaTextureFilterMode22cudaTextureAddressMode,@function
_ZN7textureI5uint4Li2EL19cudaTextureReadMode0EEC2Ei21cudaTextureFilterMode22cudaTextureAddressMode: # @_ZN7textureI5uint4Li2EL19cudaTextureReadMode0EEC2Ei21cudaTextureFilterMode22cudaTextureAddressMode
	.cfi_startproc
# %bb.0:
	pushq	%rbp
	.cfi_def_cfa_offset 16
	.cfi_offset %rbp, -16
	movq	%rsp, %rbp
	.cfi_def_cfa_register %rbp
	subq	$48, %rsp
	movq	%rdi, -8(%rbp)
	movl	%esi, -12(%rbp)
	movl	%edx, -16(%rbp)
	movl	%ecx, -20(%rbp)
	movq	-8(%rbp), %rax
	movq	%rax, -48(%rbp)                 # 8-byte Spill
	movl	-12(%rbp), %ecx
	movl	%ecx, (%rax)
	movl	-16(%rbp), %ecx
	movl	%ecx, 4(%rax)
	movl	-20(%rbp), %ecx
	movl	%ecx, 8(%rax)
	movl	-20(%rbp), %ecx
	movl	%ecx, 12(%rax)
	movl	-20(%rbp), %ecx
	movl	%ecx, 16(%rax)
	leaq	-40(%rbp), %rdi
	callq	_Z21cudaCreateChannelDescI5uint4E21cudaChannelFormatDescv
	movq	-48(%rbp), %rax                 # 8-byte Reload
	movq	-40(%rbp), %rcx
	movq	%rcx, 20(%rax)
	movq	-32(%rbp), %rcx
	movq	%rcx, 28(%rax)
	movl	-24(%rbp), %ecx
	movl	%ecx, 36(%rax)
	movl	$0, 40(%rax)
	addq	$48, %rsp
	popq	%rbp
	.cfi_def_cfa %rsp, 8
	retq
.Lfunc_end1:
	.size	_ZN7textureI5uint4Li2EL19cudaTextureReadMode0EEC2Ei21cudaTextureFilterMode22cudaTextureAddressMode, .Lfunc_end1-_ZN7textureI5uint4Li2EL19cudaTextureReadMode0EEC2Ei21cudaTextureFilterMode22cudaTextureAddressMode
	.cfi_endproc
                                        # -- End function
	.section	.text.startup,"ax",@progbits
	.p2align	4, 0x90                         # -- Begin function __cxx_global_var_init.1
	.type	__cxx_global_var_init.1,@function
__cxx_global_var_init.1:                # @__cxx_global_var_init.1
	.cfi_startproc
# %bb.0:
	pushq	%rbp
	.cfi_def_cfa_offset 16
	.cfi_offset %rbp, -16
	movq	%rsp, %rbp
	.cfi_def_cfa_register %rbp
	leaq	childrentex(%rip), %rdi
	xorl	%edx, %edx
	movl	$1, %ecx
	movl	%edx, %esi
	callq	_ZN7textureI5uint4Li2EL19cudaTextureReadMode0EEC2Ei21cudaTextureFilterMode22cudaTextureAddressMode
	popq	%rbp
	.cfi_def_cfa %rsp, 8
	retq
.Lfunc_end2:
	.size	__cxx_global_var_init.1, .Lfunc_end2-__cxx_global_var_init.1
	.cfi_endproc
                                        # -- End function
	.p2align	4, 0x90                         # -- Begin function __cxx_global_var_init.2
	.type	__cxx_global_var_init.2,@function
__cxx_global_var_init.2:                # @__cxx_global_var_init.2
	.cfi_startproc
# %bb.0:
	pushq	%rbp
	.cfi_def_cfa_offset 16
	.cfi_offset %rbp, -16
	movq	%rsp, %rbp
	.cfi_def_cfa_register %rbp
	leaq	reftex(%rip), %rdi
	xorl	%edx, %edx
	movl	$1, %ecx
	movl	%edx, %esi
	callq	_ZN7textureIcLi1EL19cudaTextureReadMode0EEC2Ei21cudaTextureFilterMode22cudaTextureAddressMode
	popq	%rbp
	.cfi_def_cfa %rsp, 8
	retq
.Lfunc_end3:
	.size	__cxx_global_var_init.2, .Lfunc_end3-__cxx_global_var_init.2
	.cfi_endproc
                                        # -- End function
	.section	.text._ZN7textureIcLi1EL19cudaTextureReadMode0EEC2Ei21cudaTextureFilterMode22cudaTextureAddressMode,"axG",@progbits,_ZN7textureIcLi1EL19cudaTextureReadMode0EEC2Ei21cudaTextureFilterMode22cudaTextureAddressMode,comdat
	.weak	_ZN7textureIcLi1EL19cudaTextureReadMode0EEC2Ei21cudaTextureFilterMode22cudaTextureAddressMode # -- Begin function _ZN7textureIcLi1EL19cudaTextureReadMode0EEC2Ei21cudaTextureFilterMode22cudaTextureAddressMode
	.p2align	4, 0x90
	.type	_ZN7textureIcLi1EL19cudaTextureReadMode0EEC2Ei21cudaTextureFilterMode22cudaTextureAddressMode,@function
_ZN7textureIcLi1EL19cudaTextureReadMode0EEC2Ei21cudaTextureFilterMode22cudaTextureAddressMode: # @_ZN7textureIcLi1EL19cudaTextureReadMode0EEC2Ei21cudaTextureFilterMode22cudaTextureAddressMode
	.cfi_startproc
# %bb.0:
	pushq	%rbp
	.cfi_def_cfa_offset 16
	.cfi_offset %rbp, -16
	movq	%rsp, %rbp
	.cfi_def_cfa_register %rbp
	subq	$48, %rsp
	movq	%rdi, -8(%rbp)
	movl	%esi, -12(%rbp)
	movl	%edx, -16(%rbp)
	movl	%ecx, -20(%rbp)
	movq	-8(%rbp), %rax
	movq	%rax, -48(%rbp)                 # 8-byte Spill
	movl	-12(%rbp), %ecx
	movl	%ecx, (%rax)
	movl	-16(%rbp), %ecx
	movl	%ecx, 4(%rax)
	movl	-20(%rbp), %ecx
	movl	%ecx, 8(%rax)
	movl	-20(%rbp), %ecx
	movl	%ecx, 12(%rax)
	movl	-20(%rbp), %ecx
	movl	%ecx, 16(%rax)
	leaq	-40(%rbp), %rdi
	callq	_Z21cudaCreateChannelDescIcE21cudaChannelFormatDescv
	movq	-48(%rbp), %rax                 # 8-byte Reload
	movq	-40(%rbp), %rcx
	movq	%rcx, 20(%rax)
	movq	-32(%rbp), %rcx
	movq	%rcx, 28(%rax)
	movl	-24(%rbp), %ecx
	movl	%ecx, 36(%rax)
	movl	$0, 40(%rax)
	addq	$48, %rsp
	popq	%rbp
	.cfi_def_cfa %rsp, 8
	retq
.Lfunc_end4:
	.size	_ZN7textureIcLi1EL19cudaTextureReadMode0EEC2Ei21cudaTextureFilterMode22cudaTextureAddressMode, .Lfunc_end4-_ZN7textureIcLi1EL19cudaTextureReadMode0EEC2Ei21cudaTextureFilterMode22cudaTextureAddressMode
	.cfi_endproc
                                        # -- End function
	.section	.text.startup,"ax",@progbits
	.p2align	4, 0x90                         # -- Begin function __cxx_global_var_init.3
	.type	__cxx_global_var_init.3,@function
__cxx_global_var_init.3:                # @__cxx_global_var_init.3
	.cfi_startproc
# %bb.0:
	pushq	%rbp
	.cfi_def_cfa_offset 16
	.cfi_offset %rbp, -16
	movq	%rsp, %rbp
	.cfi_def_cfa_register %rbp
	leaq	qrytex(%rip), %rdi
	xorl	%edx, %edx
	movl	$1, %ecx
	movl	%edx, %esi
	callq	_ZN7textureIcLi1EL19cudaTextureReadMode0EEC2Ei21cudaTextureFilterMode22cudaTextureAddressMode
	popq	%rbp
	.cfi_def_cfa %rsp, 8
	retq
.Lfunc_end5:
	.size	__cxx_global_var_init.3, .Lfunc_end5-__cxx_global_var_init.3
	.cfi_endproc
                                        # -- End function
	.text
	.globl	_Z30__device_stub__mummergpuKernelPvPcS0_PKiS2_ii # -- Begin function _Z30__device_stub__mummergpuKernelPvPcS0_PKiS2_ii
	.p2align	4, 0x90
	.type	_Z30__device_stub__mummergpuKernelPvPcS0_PKiS2_ii,@function
_Z30__device_stub__mummergpuKernelPvPcS0_PKiS2_ii: # @_Z30__device_stub__mummergpuKernelPvPcS0_PKiS2_ii
	.cfi_startproc
# %bb.0:
	pushq	%rbp
	.cfi_def_cfa_offset 16
	.cfi_offset %rbp, -16
	movq	%rsp, %rbp
	.cfi_def_cfa_register %rbp
	subq	$192, %rsp
	movl	16(%rbp), %eax
	movq	%rdi, -8(%rbp)
	movq	%rsi, -16(%rbp)
	movq	%rdx, -24(%rbp)
	movq	%rcx, -32(%rbp)
	movq	%r8, -40(%rbp)
	movl	%r9d, -44(%rbp)
	leaq	-8(%rbp), %rax
	movq	%rax, -176(%rbp)
	leaq	-16(%rbp), %rax
	movq	%rax, -168(%rbp)
	leaq	-24(%rbp), %rax
	movq	%rax, -160(%rbp)
	leaq	-32(%rbp), %rax
	movq	%rax, -152(%rbp)
	leaq	-40(%rbp), %rax
	movq	%rax, -144(%rbp)
	leaq	-44(%rbp), %rax
	movq	%rax, -136(%rbp)
	leaq	16(%rbp), %rax
	movq	%rax, -128(%rbp)
	leaq	-56(%rbp), %rdi
	leaq	-72(%rbp), %rsi
	leaq	-80(%rbp), %rdx
	leaq	-88(%rbp), %rcx
	callq	__cudaPopCallConfiguration@PLT
	movq	-80(%rbp), %r10
	movq	-88(%rbp), %rax
	movq	-56(%rbp), %rcx
	movq	%rcx, -104(%rbp)
	movl	-48(%rbp), %ecx
	movl	%ecx, -96(%rbp)
	movq	-104(%rbp), %rsi
	movl	-96(%rbp), %edx
	movq	-72(%rbp), %rcx
	movq	%rcx, -120(%rbp)
	movl	-64(%rbp), %ecx
	movl	%ecx, -112(%rbp)
	movq	-120(%rbp), %rcx
	movl	-112(%rbp), %r8d
	leaq	_Z30__device_stub__mummergpuKernelPvPcS0_PKiS2_ii(%rip), %rdi
	leaq	-176(%rbp), %r9
	movq	%r10, (%rsp)
	movq	%rax, 8(%rsp)
	callq	cudaLaunchKernel@PLT
# %bb.1:
	addq	$192, %rsp
	popq	%rbp
	.cfi_def_cfa %rsp, 8
	retq
.Lfunc_end6:
	.size	_Z30__device_stub__mummergpuKernelPvPcS0_PKiS2_ii, .Lfunc_end6-_Z30__device_stub__mummergpuKernelPvPcS0_PKiS2_ii
	.cfi_endproc
                                        # -- End function
	.globl	_Z32__device_stub__mummergpuRCKernelP10MatchCoordPcPKiS3_ii # -- Begin function _Z32__device_stub__mummergpuRCKernelP10MatchCoordPcPKiS3_ii
	.p2align	4, 0x90
	.type	_Z32__device_stub__mummergpuRCKernelP10MatchCoordPcPKiS3_ii,@function
_Z32__device_stub__mummergpuRCKernelP10MatchCoordPcPKiS3_ii: # @_Z32__device_stub__mummergpuRCKernelP10MatchCoordPcPKiS3_ii
	.cfi_startproc
# %bb.0:
	pushq	%rbp
	.cfi_def_cfa_offset 16
	.cfi_offset %rbp, -16
	movq	%rsp, %rbp
	.cfi_def_cfa_register %rbp
	subq	$192, %rsp
	movq	%rdi, -8(%rbp)
	movq	%rsi, -16(%rbp)
	movq	%rdx, -24(%rbp)
	movq	%rcx, -32(%rbp)
	movl	%r8d, -36(%rbp)
	movl	%r9d, -40(%rbp)
	leaq	-8(%rbp), %rax
	movq	%rax, -176(%rbp)
	leaq	-16(%rbp), %rax
	movq	%rax, -168(%rbp)
	leaq	-24(%rbp), %rax
	movq	%rax, -160(%rbp)
	leaq	-32(%rbp), %rax
	movq	%rax, -152(%rbp)
	leaq	-36(%rbp), %rax
	movq	%rax, -144(%rbp)
	leaq	-40(%rbp), %rax
	movq	%rax, -136(%rbp)
	leaq	-56(%rbp), %rdi
	leaq	-72(%rbp), %rsi
	leaq	-80(%rbp), %rdx
	leaq	-88(%rbp), %rcx
	callq	__cudaPopCallConfiguration@PLT
	movq	-80(%rbp), %r10
	movq	-88(%rbp), %rax
	movq	-56(%rbp), %rcx
	movq	%rcx, -104(%rbp)
	movl	-48(%rbp), %ecx
	movl	%ecx, -96(%rbp)
	movq	-104(%rbp), %rsi
	movl	-96(%rbp), %edx
	movq	-72(%rbp), %rcx
	movq	%rcx, -120(%rbp)
	movl	-64(%rbp), %ecx
	movl	%ecx, -112(%rbp)
	movq	-120(%rbp), %rcx
	movl	-112(%rbp), %r8d
	leaq	_Z32__device_stub__mummergpuRCKernelP10MatchCoordPcPKiS3_ii(%rip), %rdi
	leaq	-176(%rbp), %r9
	movq	%r10, (%rsp)
	movq	%rax, 8(%rsp)
	callq	cudaLaunchKernel@PLT
# %bb.1:
	addq	$192, %rsp
	popq	%rbp
	.cfi_def_cfa %rsp, 8
	retq
.Lfunc_end7:
	.size	_Z32__device_stub__mummergpuRCKernelP10MatchCoordPcPKiS3_ii, .Lfunc_end7-_Z32__device_stub__mummergpuRCKernelP10MatchCoordPcPKiS3_ii
	.cfi_endproc
                                        # -- End function
	.globl	_Z26__device_stub__printKernelP9MatchInfoiP9AlignmentPcPKiS5_iiiii # -- Begin function _Z26__device_stub__printKernelP9MatchInfoiP9AlignmentPcPKiS5_iiiii
	.p2align	4, 0x90
	.type	_Z26__device_stub__printKernelP9MatchInfoiP9AlignmentPcPKiS5_iiiii,@function
_Z26__device_stub__printKernelP9MatchInfoiP9AlignmentPcPKiS5_iiiii: # @_Z26__device_stub__printKernelP9MatchInfoiP9AlignmentPcPKiS5_iiiii
	.cfi_startproc
# %bb.0:
	pushq	%rbp
	.cfi_def_cfa_offset 16
	.cfi_offset %rbp, -16
	movq	%rsp, %rbp
	.cfi_def_cfa_register %rbp
	subq	$240, %rsp
	movl	48(%rbp), %eax
	movl	40(%rbp), %eax
	movl	32(%rbp), %eax
	movl	24(%rbp), %eax
	movl	16(%rbp), %eax
	movq	%rdi, -8(%rbp)
	movl	%esi, -12(%rbp)
	movq	%rdx, -24(%rbp)
	movq	%rcx, -32(%rbp)
	movq	%r8, -40(%rbp)
	movq	%r9, -48(%rbp)
	leaq	-8(%rbp), %rax
	movq	%rax, -224(%rbp)
	leaq	-12(%rbp), %rax
	movq	%rax, -216(%rbp)
	leaq	-24(%rbp), %rax
	movq	%rax, -208(%rbp)
	leaq	-32(%rbp), %rax
	movq	%rax, -200(%rbp)
	leaq	-40(%rbp), %rax
	movq	%rax, -192(%rbp)
	leaq	-48(%rbp), %rax
	movq	%rax, -184(%rbp)
	leaq	16(%rbp), %rax
	movq	%rax, -176(%rbp)
	leaq	24(%rbp), %rax
	movq	%rax, -168(%rbp)
	leaq	32(%rbp), %rax
	movq	%rax, -160(%rbp)
	leaq	40(%rbp), %rax
	movq	%rax, -152(%rbp)
	leaq	48(%rbp), %rax
	movq	%rax, -144(%rbp)
	leaq	-64(%rbp), %rdi
	leaq	-80(%rbp), %rsi
	leaq	-88(%rbp), %rdx
	leaq	-96(%rbp), %rcx
	callq	__cudaPopCallConfiguration@PLT
	movq	-88(%rbp), %r10
	movq	-96(%rbp), %rax
	movq	-64(%rbp), %rcx
	movq	%rcx, -112(%rbp)
	movl	-56(%rbp), %ecx
	movl	%ecx, -104(%rbp)
	movq	-112(%rbp), %rsi
	movl	-104(%rbp), %edx
	movq	-80(%rbp), %rcx
	movq	%rcx, -128(%rbp)
	movl	-72(%rbp), %ecx
	movl	%ecx, -120(%rbp)
	movq	-128(%rbp), %rcx
	movl	-120(%rbp), %r8d
	leaq	_Z26__device_stub__printKernelP9MatchInfoiP9AlignmentPcPKiS5_iiiii(%rip), %rdi
	leaq	-224(%rbp), %r9
	movq	%r10, (%rsp)
	movq	%rax, 8(%rsp)
	callq	cudaLaunchKernel@PLT
# %bb.1:
	addq	$240, %rsp
	popq	%rbp
	.cfi_def_cfa %rsp, 8
	retq
.Lfunc_end8:
	.size	_Z26__device_stub__printKernelP9MatchInfoiP9AlignmentPcPKiS5_iiiii, .Lfunc_end8-_Z26__device_stub__printKernelP9MatchInfoiP9AlignmentPcPKiS5_iiiii
	.cfi_endproc
                                        # -- End function
	.section	.text._Z21cudaCreateChannelDescI5uint4E21cudaChannelFormatDescv,"axG",@progbits,_Z21cudaCreateChannelDescI5uint4E21cudaChannelFormatDescv,comdat
	.weak	_Z21cudaCreateChannelDescI5uint4E21cudaChannelFormatDescv # -- Begin function _Z21cudaCreateChannelDescI5uint4E21cudaChannelFormatDescv
	.p2align	4, 0x90
	.type	_Z21cudaCreateChannelDescI5uint4E21cudaChannelFormatDescv,@function
_Z21cudaCreateChannelDescI5uint4E21cudaChannelFormatDescv: # @_Z21cudaCreateChannelDescI5uint4E21cudaChannelFormatDescv
	.cfi_startproc
# %bb.0:
	pushq	%rbp
	.cfi_def_cfa_offset 16
	.cfi_offset %rbp, -16
	movq	%rsp, %rbp
	.cfi_def_cfa_register %rbp
	subq	$16, %rsp
	movq	%rdi, %rax
	movq	%rax, -16(%rbp)                 # 8-byte Spill
	movl	$32, -4(%rbp)
	movl	-4(%rbp), %esi
	movl	-4(%rbp), %edx
	movl	-4(%rbp), %ecx
	movl	-4(%rbp), %r8d
	movl	$1, %r9d
	callq	cudaCreateChannelDesc@PLT
	movq	-16(%rbp), %rax                 # 8-byte Reload
	addq	$16, %rsp
	popq	%rbp
	.cfi_def_cfa %rsp, 8
	retq
.Lfunc_end9:
	.size	_Z21cudaCreateChannelDescI5uint4E21cudaChannelFormatDescv, .Lfunc_end9-_Z21cudaCreateChannelDescI5uint4E21cudaChannelFormatDescv
	.cfi_endproc
                                        # -- End function
	.section	.text._Z21cudaCreateChannelDescIcE21cudaChannelFormatDescv,"axG",@progbits,_Z21cudaCreateChannelDescIcE21cudaChannelFormatDescv,comdat
	.weak	_Z21cudaCreateChannelDescIcE21cudaChannelFormatDescv # -- Begin function _Z21cudaCreateChannelDescIcE21cudaChannelFormatDescv
	.p2align	4, 0x90
	.type	_Z21cudaCreateChannelDescIcE21cudaChannelFormatDescv,@function
_Z21cudaCreateChannelDescIcE21cudaChannelFormatDescv: # @_Z21cudaCreateChannelDescIcE21cudaChannelFormatDescv
	.cfi_startproc
# %bb.0:
	pushq	%rbp
	.cfi_def_cfa_offset 16
	.cfi_offset %rbp, -16
	movq	%rsp, %rbp
	.cfi_def_cfa_register %rbp
	subq	$16, %rsp
	movq	%rdi, %rax
	movq	%rax, -16(%rbp)                 # 8-byte Spill
	movl	$8, -4(%rbp)
	movl	-4(%rbp), %esi
	xorl	%r9d, %r9d
	movl	%r9d, %edx
	movl	%r9d, %ecx
	movl	%r9d, %r8d
	callq	cudaCreateChannelDesc@PLT
	movq	-16(%rbp), %rax                 # 8-byte Reload
	addq	$16, %rsp
	popq	%rbp
	.cfi_def_cfa %rsp, 8
	retq
.Lfunc_end10:
	.size	_Z21cudaCreateChannelDescIcE21cudaChannelFormatDescv, .Lfunc_end10-_Z21cudaCreateChannelDescIcE21cudaChannelFormatDescv
	.cfi_endproc
                                        # -- End function
	.section	.text.startup,"ax",@progbits
	.p2align	4, 0x90                         # -- Begin function _GLOBAL__sub_I_mummergpu_kernel.cu
	.type	_GLOBAL__sub_I_mummergpu_kernel.cu,@function
_GLOBAL__sub_I_mummergpu_kernel.cu:     # @_GLOBAL__sub_I_mummergpu_kernel.cu
	.cfi_startproc
# %bb.0:
	pushq	%rbp
	.cfi_def_cfa_offset 16
	.cfi_offset %rbp, -16
	movq	%rsp, %rbp
	.cfi_def_cfa_register %rbp
	callq	__cxx_global_var_init
	callq	__cxx_global_var_init.1
	callq	__cxx_global_var_init.2
	callq	__cxx_global_var_init.3
	popq	%rbp
	.cfi_def_cfa %rsp, 8
	retq
.Lfunc_end11:
	.size	_GLOBAL__sub_I_mummergpu_kernel.cu, .Lfunc_end11-_GLOBAL__sub_I_mummergpu_kernel.cu
	.cfi_endproc
                                        # -- End function
	.text
	.p2align	4, 0x90                         # -- Begin function __cuda_register_globals
	.type	__cuda_register_globals,@function
__cuda_register_globals:                # @__cuda_register_globals
	.cfi_startproc
# %bb.0:
	subq	$40, %rsp
	.cfi_def_cfa_offset 48
	movq	%rdi, 32(%rsp)                  # 8-byte Spill
	leaq	_Z30__device_stub__mummergpuKernelPvPcS0_PKiS2_ii(%rip), %rsi
	leaq	.L__unnamed_1(%rip), %rcx
	movl	$4294967295, %r8d               # imm = 0xFFFFFFFF
	xorl	%eax, %eax
	movl	%eax, %r9d
	movq	%rcx, %rdx
	movq	$0, (%rsp)
	movq	$0, 8(%rsp)
	movq	$0, 16(%rsp)
	movq	$0, 24(%rsp)
	callq	__cudaRegisterFunction@PLT
	movq	32(%rsp), %rdi                  # 8-byte Reload
	leaq	_Z32__device_stub__mummergpuRCKernelP10MatchCoordPcPKiS3_ii(%rip), %rsi
	leaq	.L__unnamed_2(%rip), %rcx
	movl	$4294967295, %r8d               # imm = 0xFFFFFFFF
	xorl	%eax, %eax
	movl	%eax, %r9d
	movq	%rcx, %rdx
	movq	$0, (%rsp)
	movq	$0, 8(%rsp)
	movq	$0, 16(%rsp)
	movq	$0, 24(%rsp)
	callq	__cudaRegisterFunction@PLT
	movq	32(%rsp), %rdi                  # 8-byte Reload
	leaq	_Z26__device_stub__printKernelP9MatchInfoiP9AlignmentPcPKiS5_iiiii(%rip), %rsi
	leaq	.L__unnamed_3(%rip), %rcx
	movl	$4294967295, %r8d               # imm = 0xFFFFFFFF
	xorl	%eax, %eax
	movl	%eax, %r9d
	movq	%rcx, %rdx
	movq	$0, (%rsp)
	movq	$0, 8(%rsp)
	movq	$0, 16(%rsp)
	movq	$0, 24(%rsp)
	callq	__cudaRegisterFunction@PLT
	movq	32(%rsp), %rdi                  # 8-byte Reload
	leaq	nodetex(%rip), %rsi
	leaq	.L__unnamed_4(%rip), %rcx
	movl	$2, %r8d
	xorl	%r9d, %r9d
	movq	%rcx, %rdx
	movl	$0, (%rsp)
	callq	__cudaRegisterTexture@PLT
	movq	32(%rsp), %rdi                  # 8-byte Reload
	leaq	childrentex(%rip), %rsi
	leaq	.L__unnamed_5(%rip), %rcx
	movl	$2, %r8d
	xorl	%r9d, %r9d
	movq	%rcx, %rdx
	movl	$0, (%rsp)
	callq	__cudaRegisterTexture@PLT
	movq	32(%rsp), %rdi                  # 8-byte Reload
	leaq	reftex(%rip), %rsi
	leaq	.L__unnamed_6(%rip), %rcx
	movl	$1, %r8d
	xorl	%r9d, %r9d
	movq	%rcx, %rdx
	movl	$0, (%rsp)
	callq	__cudaRegisterTexture@PLT
	movq	32(%rsp), %rdi                  # 8-byte Reload
	leaq	qrytex(%rip), %rsi
	leaq	.L__unnamed_7(%rip), %rcx
	movl	$1, %r8d
	xorl	%r9d, %r9d
	movq	%rcx, %rdx
	movl	$0, (%rsp)
	callq	__cudaRegisterTexture@PLT
	addq	$40, %rsp
	.cfi_def_cfa_offset 8
	retq
.Lfunc_end12:
	.size	__cuda_register_globals, .Lfunc_end12-__cuda_register_globals
	.cfi_endproc
                                        # -- End function
	.p2align	4, 0x90                         # -- Begin function __cuda_module_ctor
	.type	__cuda_module_ctor,@function
__cuda_module_ctor:                     # @__cuda_module_ctor
	.cfi_startproc
# %bb.0:
	pushq	%rax
	.cfi_def_cfa_offset 16
	leaq	__cuda_fatbin_wrapper(%rip), %rdi
	callq	__cudaRegisterFatBinary@PLT
	movq	%rax, %rdi
	movq	%rdi, (%rsp)                    # 8-byte Spill
	movq	%rdi, __cuda_gpubin_handle(%rip)
	callq	__cuda_register_globals
	movq	(%rsp), %rdi                    # 8-byte Reload
	callq	__cudaRegisterFatBinaryEnd@PLT
	leaq	__cuda_module_dtor(%rip), %rdi
	callq	atexit@PLT
	popq	%rax
	.cfi_def_cfa_offset 8
	retq
.Lfunc_end13:
	.size	__cuda_module_ctor, .Lfunc_end13-__cuda_module_ctor
	.cfi_endproc
                                        # -- End function
	.p2align	4, 0x90                         # -- Begin function __cuda_module_dtor
	.type	__cuda_module_dtor,@function
__cuda_module_dtor:                     # @__cuda_module_dtor
	.cfi_startproc
# %bb.0:
	pushq	%rax
	.cfi_def_cfa_offset 16
	movq	__cuda_gpubin_handle(%rip), %rdi
	callq	__cudaUnregisterFatBinary@PLT
	popq	%rax
	.cfi_def_cfa_offset 8
	retq
.Lfunc_end14:
	.size	__cuda_module_dtor, .Lfunc_end14-__cuda_module_dtor
	.cfi_endproc
                                        # -- End function
	.type	nodetex,@object                 # @nodetex
	.local	nodetex
	.comm	nodetex,124,4
	.type	childrentex,@object             # @childrentex
	.local	childrentex
	.comm	childrentex,124,4
	.type	reftex,@object                  # @reftex
	.local	reftex
	.comm	reftex,124,4
	.type	qrytex,@object                  # @qrytex
	.local	qrytex
	.comm	qrytex,124,4
	.type	.L__unnamed_1,@object           # @0
	.section	.rodata.str1.1,"aMS",@progbits,1
.L__unnamed_1:
	.asciz	"_Z15mummergpuKernelPvPcS0_PKiS2_ii"
	.size	.L__unnamed_1, 35

	.type	.L__unnamed_2,@object           # @1
.L__unnamed_2:
	.asciz	"_Z17mummergpuRCKernelP10MatchCoordPcPKiS3_ii"
	.size	.L__unnamed_2, 45

	.type	.L__unnamed_3,@object           # @2
.L__unnamed_3:
	.asciz	"_Z11printKernelP9MatchInfoiP9AlignmentPcPKiS5_iiiii"
	.size	.L__unnamed_3, 52

	.type	.L__unnamed_4,@object           # @3
.L__unnamed_4:
	.asciz	"nodetex"
	.size	.L__unnamed_4, 8

	.type	.L__unnamed_5,@object           # @4
.L__unnamed_5:
	.asciz	"childrentex"
	.size	.L__unnamed_5, 12

	.type	.L__unnamed_6,@object           # @5
.L__unnamed_6:
	.asciz	"reftex"
	.size	.L__unnamed_6, 7

	.type	.L__unnamed_7,@object           # @6
.L__unnamed_7:
	.asciz	"qrytex"
	.size	.L__unnamed_7, 7

	.type	.L__unnamed_8,@object           # @7
	.section	.nv_fatbin,"a",@progbits
	.p2align	3
.L__unnamed_8:
