	.text
	.file	"mummergpu_kernel.cu"
	.globl	_Z30__device_stub__mummergpuKernelPvPcS0_PKiS2_ii # -- Begin function _Z30__device_stub__mummergpuKernelPvPcS0_PKiS2_ii
	.p2align	4, 0x90
	.type	_Z30__device_stub__mummergpuKernelPvPcS0_PKiS2_ii,@function
_Z30__device_stub__mummergpuKernelPvPcS0_PKiS2_ii: # @_Z30__device_stub__mummergpuKernelPvPcS0_PKiS2_ii
	.cfi_startproc
# %bb.0:
	subq	$152, %rsp
	.cfi_def_cfa_offset 160
	movq	%rdi, 88(%rsp)
	movq	%rsi, 80(%rsp)
	movq	%rdx, 72(%rsp)
	movq	%rcx, 64(%rsp)
	movq	%r8, 56(%rsp)
	movl	%r9d, 4(%rsp)
	leaq	88(%rsp), %rax
	movq	%rax, 96(%rsp)
	leaq	80(%rsp), %rax
	movq	%rax, 104(%rsp)
	leaq	72(%rsp), %rax
	movq	%rax, 112(%rsp)
	leaq	64(%rsp), %rax
	movq	%rax, 120(%rsp)
	leaq	56(%rsp), %rax
	movq	%rax, 128(%rsp)
	leaq	4(%rsp), %rax
	movq	%rax, 136(%rsp)
	leaq	160(%rsp), %rax
	movq	%rax, 144(%rsp)
	leaq	40(%rsp), %rdi
	leaq	24(%rsp), %rsi
	leaq	16(%rsp), %rdx
	leaq	8(%rsp), %rcx
	callq	__hipPopCallConfiguration@PLT
	movq	40(%rsp), %rsi
	movl	48(%rsp), %edx
	movq	24(%rsp), %rcx
	movl	32(%rsp), %r8d
	movq	_Z15mummergpuKernelPvPcS0_PKiS2_ii@GOTPCREL(%rip), %rdi
	leaq	96(%rsp), %r9
	pushq	8(%rsp)
	.cfi_adjust_cfa_offset 8
	pushq	24(%rsp)
	.cfi_adjust_cfa_offset 8
	callq	hipLaunchKernel@PLT
	addq	$168, %rsp
	.cfi_adjust_cfa_offset -168
	retq
.Lfunc_end0:
	.size	_Z30__device_stub__mummergpuKernelPvPcS0_PKiS2_ii, .Lfunc_end0-_Z30__device_stub__mummergpuKernelPvPcS0_PKiS2_ii
	.cfi_endproc
                                        # -- End function
	.globl	_Z32__device_stub__mummergpuRCKernelP10MatchCoordPcPKiS3_ii # -- Begin function _Z32__device_stub__mummergpuRCKernelP10MatchCoordPcPKiS3_ii
	.p2align	4, 0x90
	.type	_Z32__device_stub__mummergpuRCKernelP10MatchCoordPcPKiS3_ii,@function
_Z32__device_stub__mummergpuRCKernelP10MatchCoordPcPKiS3_ii: # @_Z32__device_stub__mummergpuRCKernelP10MatchCoordPcPKiS3_ii
	.cfi_startproc
# %bb.0:
	subq	$152, %rsp
	.cfi_def_cfa_offset 160
	movq	%rdi, 88(%rsp)
	movq	%rsi, 80(%rsp)
	movq	%rdx, 72(%rsp)
	movq	%rcx, 64(%rsp)
	movl	%r8d, 12(%rsp)
	movl	%r9d, 8(%rsp)
	leaq	88(%rsp), %rax
	movq	%rax, 96(%rsp)
	leaq	80(%rsp), %rax
	movq	%rax, 104(%rsp)
	leaq	72(%rsp), %rax
	movq	%rax, 112(%rsp)
	leaq	64(%rsp), %rax
	movq	%rax, 120(%rsp)
	leaq	12(%rsp), %rax
	movq	%rax, 128(%rsp)
	leaq	8(%rsp), %rax
	movq	%rax, 136(%rsp)
	leaq	48(%rsp), %rdi
	leaq	32(%rsp), %rsi
	leaq	24(%rsp), %rdx
	leaq	16(%rsp), %rcx
	callq	__hipPopCallConfiguration@PLT
	movq	48(%rsp), %rsi
	movl	56(%rsp), %edx
	movq	32(%rsp), %rcx
	movl	40(%rsp), %r8d
	movq	_Z17mummergpuRCKernelP10MatchCoordPcPKiS3_ii@GOTPCREL(%rip), %rdi
	leaq	96(%rsp), %r9
	pushq	16(%rsp)
	.cfi_adjust_cfa_offset 8
	pushq	32(%rsp)
	.cfi_adjust_cfa_offset 8
	callq	hipLaunchKernel@PLT
	addq	$168, %rsp
	.cfi_adjust_cfa_offset -168
	retq
.Lfunc_end1:
	.size	_Z32__device_stub__mummergpuRCKernelP10MatchCoordPcPKiS3_ii, .Lfunc_end1-_Z32__device_stub__mummergpuRCKernelP10MatchCoordPcPKiS3_ii
	.cfi_endproc
                                        # -- End function
	.globl	_Z26__device_stub__printKernelP9MatchInfoiP9AlignmentPcPKiS5_iiiii # -- Begin function _Z26__device_stub__printKernelP9MatchInfoiP9AlignmentPcPKiS5_iiiii
	.p2align	4, 0x90
	.type	_Z26__device_stub__printKernelP9MatchInfoiP9AlignmentPcPKiS5_iiiii,@function
_Z26__device_stub__printKernelP9MatchInfoiP9AlignmentPcPKiS5_iiiii: # @_Z26__device_stub__printKernelP9MatchInfoiP9AlignmentPcPKiS5_iiiii
	.cfi_startproc
# %bb.0:
	subq	$184, %rsp
	.cfi_def_cfa_offset 192
	movq	%rdi, 88(%rsp)
	movl	%esi, 4(%rsp)
	movq	%rdx, 80(%rsp)
	movq	%rcx, 72(%rsp)
	movq	%r8, 64(%rsp)
	movq	%r9, 56(%rsp)
	leaq	88(%rsp), %rax
	movq	%rax, 96(%rsp)
	leaq	4(%rsp), %rax
	movq	%rax, 104(%rsp)
	leaq	80(%rsp), %rax
	movq	%rax, 112(%rsp)
	leaq	72(%rsp), %rax
	movq	%rax, 120(%rsp)
	leaq	64(%rsp), %rax
	movq	%rax, 128(%rsp)
	leaq	56(%rsp), %rax
	movq	%rax, 136(%rsp)
	leaq	192(%rsp), %rax
	movq	%rax, 144(%rsp)
	leaq	200(%rsp), %rax
	movq	%rax, 152(%rsp)
	leaq	208(%rsp), %rax
	movq	%rax, 160(%rsp)
	leaq	216(%rsp), %rax
	movq	%rax, 168(%rsp)
	leaq	224(%rsp), %rax
	movq	%rax, 176(%rsp)
	leaq	40(%rsp), %rdi
	leaq	24(%rsp), %rsi
	leaq	16(%rsp), %rdx
	leaq	8(%rsp), %rcx
	callq	__hipPopCallConfiguration@PLT
	movq	40(%rsp), %rsi
	movl	48(%rsp), %edx
	movq	24(%rsp), %rcx
	movl	32(%rsp), %r8d
	movq	_Z11printKernelP9MatchInfoiP9AlignmentPcPKiS5_iiiii@GOTPCREL(%rip), %rdi
	leaq	96(%rsp), %r9
	pushq	8(%rsp)
	.cfi_adjust_cfa_offset 8
	pushq	24(%rsp)
	.cfi_adjust_cfa_offset 8
	callq	hipLaunchKernel@PLT
	addq	$200, %rsp
	.cfi_adjust_cfa_offset -200
	retq
.Lfunc_end2:
	.size	_Z26__device_stub__printKernelP9MatchInfoiP9AlignmentPcPKiS5_iiiii, .Lfunc_end2-_Z26__device_stub__printKernelP9MatchInfoiP9AlignmentPcPKiS5_iiiii
	.cfi_endproc
                                        # -- End function
	.section	.rodata.cst16,"aM",@progbits,16
	.p2align	4                               # -- Begin function _GLOBAL__sub_I_mummergpu_kernel.cu
.LCPI3_0:
	.long	0                               # 0x0
	.long	0                               # 0x0
	.long	0                               # 0x0
	.long	1                               # 0x1
.LCPI3_1:
	.zero	16
	.section	.text.startup,"ax",@progbits
	.p2align	4, 0x90
	.type	_GLOBAL__sub_I_mummergpu_kernel.cu,@function
_GLOBAL__sub_I_mummergpu_kernel.cu:     # @_GLOBAL__sub_I_mummergpu_kernel.cu
	.cfi_startproc
# %bb.0:
	pushq	%rbx
	.cfi_def_cfa_offset 16
	subq	$32, %rsp
	.cfi_def_cfa_offset 48
	.cfi_offset %rbx, -16
	movaps	.LCPI3_0(%rip), %xmm0           # xmm0 = [0,0,0,1]
	movaps	%xmm0, nodetex(%rip)
	movabsq	$4294967297, %rbx               # imm = 0x100000001
	movq	%rbx, nodetex+16(%rip)
	leaq	8(%rsp), %rdi
	movl	$32, %esi
	movl	$32, %edx
	movl	$32, %ecx
	movl	$32, %r8d
	movl	$1, %r9d
	callq	hipCreateChannelDesc@PLT
	movl	24(%rsp), %eax
	movl	%eax, nodetex+40(%rip)
	movups	8(%rsp), %xmm0
	movups	%xmm0, nodetex+24(%rip)
	movq	$0, nodetex+72(%rip)
	movq	$0, nodetex+44(%rip)
	xorps	%xmm0, %xmm0
	movlps	%xmm0, nodetex+56(%rip)
	movl	$0, nodetex+64(%rip)
	movaps	.LCPI3_0(%rip), %xmm0           # xmm0 = [0,0,0,1]
	movaps	%xmm0, childrentex(%rip)
	movq	%rbx, childrentex+16(%rip)
	leaq	8(%rsp), %rdi
	movl	$32, %esi
	movl	$32, %edx
	movl	$32, %ecx
	movl	$32, %r8d
	movl	$1, %r9d
	callq	hipCreateChannelDesc@PLT
	movl	24(%rsp), %eax
	movl	%eax, childrentex+40(%rip)
	movups	8(%rsp), %xmm0
	movups	%xmm0, childrentex+24(%rip)
	movq	$0, childrentex+72(%rip)
	movq	$0, childrentex+44(%rip)
	xorps	%xmm0, %xmm0
	movlps	%xmm0, childrentex+56(%rip)
	movl	$0, childrentex+64(%rip)
	movaps	.LCPI3_0(%rip), %xmm0           # xmm0 = [0,0,0,1]
	movaps	%xmm0, reftex(%rip)
	movq	%rbx, reftex+16(%rip)
	leaq	8(%rsp), %rdi
	movl	$8, %esi
	xorl	%edx, %edx
	xorl	%ecx, %ecx
	xorl	%r8d, %r8d
	xorl	%r9d, %r9d
	callq	hipCreateChannelDesc@PLT
	movl	24(%rsp), %eax
	movl	%eax, reftex+40(%rip)
	movups	8(%rsp), %xmm0
	movups	%xmm0, reftex+24(%rip)
	movq	$0, reftex+72(%rip)
	movq	$0, reftex+44(%rip)
	xorps	%xmm0, %xmm0
	movlps	%xmm0, reftex+56(%rip)
	movl	$0, reftex+64(%rip)
	movaps	.LCPI3_0(%rip), %xmm0           # xmm0 = [0,0,0,1]
	movaps	%xmm0, qrytex(%rip)
	movq	%rbx, qrytex+16(%rip)
	leaq	8(%rsp), %rdi
	movl	$8, %esi
	xorl	%edx, %edx
	xorl	%ecx, %ecx
	xorl	%r8d, %r8d
	xorl	%r9d, %r9d
	callq	hipCreateChannelDesc@PLT
	movl	24(%rsp), %eax
	movl	%eax, qrytex+40(%rip)
	movups	8(%rsp), %xmm0
	movups	%xmm0, qrytex+24(%rip)
	movq	$0, qrytex+72(%rip)
	movq	$0, qrytex+44(%rip)
	xorps	%xmm0, %xmm0
	movlps	%xmm0, qrytex+56(%rip)
	movl	$0, qrytex+64(%rip)
	addq	$32, %rsp
	.cfi_def_cfa_offset 16
	popq	%rbx
	.cfi_def_cfa_offset 8
	retq
.Lfunc_end3:
	.size	_GLOBAL__sub_I_mummergpu_kernel.cu, .Lfunc_end3-_GLOBAL__sub_I_mummergpu_kernel.cu
	.cfi_endproc
                                        # -- End function
	.text
	.p2align	4, 0x90                         # -- Begin function __hip_module_ctor
	.type	__hip_module_ctor,@function
__hip_module_ctor:                      # @__hip_module_ctor
	.cfi_startproc
# %bb.0:
	pushq	%rbx
	.cfi_def_cfa_offset 16
	subq	$32, %rsp
	.cfi_def_cfa_offset 48
	.cfi_offset %rbx, -16
	movq	__hip_gpubin_handle(%rip), %rbx
	testq	%rbx, %rbx
	jne	.LBB4_2
# %bb.1:
	leaq	__hip_fatbin_wrapper(%rip), %rdi
	callq	__hipRegisterFatBinary@PLT
	movq	%rax, %rbx
	movq	%rax, __hip_gpubin_handle(%rip)
.LBB4_2:
	xorps	%xmm0, %xmm0
	movups	%xmm0, 16(%rsp)
	movups	%xmm0, (%rsp)
	movq	_Z15mummergpuKernelPvPcS0_PKiS2_ii@GOTPCREL(%rip), %rsi
	leaq	.L__unnamed_1(%rip), %rcx
	movq	%rbx, %rdi
	movq	%rcx, %rdx
	movl	$-1, %r8d
	xorl	%r9d, %r9d
	callq	__hipRegisterFunction@PLT
	xorps	%xmm0, %xmm0
	movups	%xmm0, 16(%rsp)
	movups	%xmm0, (%rsp)
	movq	_Z17mummergpuRCKernelP10MatchCoordPcPKiS3_ii@GOTPCREL(%rip), %rsi
	leaq	.L__unnamed_2(%rip), %rcx
	movq	%rbx, %rdi
	movq	%rcx, %rdx
	movl	$-1, %r8d
	xorl	%r9d, %r9d
	callq	__hipRegisterFunction@PLT
	xorps	%xmm0, %xmm0
	movups	%xmm0, 16(%rsp)
	movups	%xmm0, (%rsp)
	movq	_Z11printKernelP9MatchInfoiP9AlignmentPcPKiS5_iiiii@GOTPCREL(%rip), %rsi
	leaq	.L__unnamed_3(%rip), %rcx
	movq	%rbx, %rdi
	movq	%rcx, %rdx
	movl	$-1, %r8d
	xorl	%r9d, %r9d
	callq	__hipRegisterFunction@PLT
	movl	$0, (%rsp)
	leaq	nodetex(%rip), %rsi
	leaq	.L__unnamed_4(%rip), %rcx
	movq	%rbx, %rdi
	movq	%rcx, %rdx
	movl	$2, %r8d
	xorl	%r9d, %r9d
	callq	__hipRegisterTexture@PLT
	movl	$0, (%rsp)
	leaq	childrentex(%rip), %rsi
	leaq	.L__unnamed_5(%rip), %rcx
	movq	%rbx, %rdi
	movq	%rcx, %rdx
	movl	$2, %r8d
	xorl	%r9d, %r9d
	callq	__hipRegisterTexture@PLT
	movl	$0, (%rsp)
	leaq	reftex(%rip), %rsi
	leaq	.L__unnamed_6(%rip), %rcx
	movq	%rbx, %rdi
	movq	%rcx, %rdx
	movl	$1, %r8d
	xorl	%r9d, %r9d
	callq	__hipRegisterTexture@PLT
	movl	$0, (%rsp)
	leaq	qrytex(%rip), %rsi
	leaq	.L__unnamed_7(%rip), %rcx
	movq	%rbx, %rdi
	movq	%rcx, %rdx
	movl	$1, %r8d
	xorl	%r9d, %r9d
	callq	__hipRegisterTexture@PLT
	leaq	__hip_module_dtor(%rip), %rdi
	addq	$32, %rsp
	.cfi_def_cfa_offset 16
	popq	%rbx
	.cfi_def_cfa_offset 8
	jmp	atexit@PLT                      # TAILCALL
.Lfunc_end4:
	.size	__hip_module_ctor, .Lfunc_end4-__hip_module_ctor
	.cfi_endproc
                                        # -- End function
	.p2align	4, 0x90                         # -- Begin function __hip_module_dtor
	.type	__hip_module_dtor,@function
__hip_module_dtor:                      # @__hip_module_dtor
	.cfi_startproc
# %bb.0:
	pushq	%rax
	.cfi_def_cfa_offset 16
	movq	__hip_gpubin_handle(%rip), %rdi
	testq	%rdi, %rdi
	je	.LBB5_2
# %bb.1:
	callq	__hipUnregisterFatBinary@PLT
	movq	$0, __hip_gpubin_handle(%rip)
.LBB5_2:
	popq	%rax
	.cfi_def_cfa_offset 8
	retq
.Lfunc_end5:
	.size	__hip_module_dtor, .Lfunc_end5-__hip_module_dtor
	.cfi_endproc
                                        # -- End function
	.type	nodetex,@object                 # @nodetex
	.local	nodetex
	.comm	nodetex,88,16
	.type	childrentex,@object             # @childrentex
	.local	childrentex
	.comm	childrentex,88,16
	.type	reftex,@object                  # @reftex
	.local	reftex
	.comm	reftex,88,16
	.type	qrytex,@object                  # @qrytex
	.local	qrytex
	.comm	qrytex,88,16
	.type	_Z15mummergpuKernelPvPcS0_PKiS2_ii,@object # @_Z15mummergpuKernelPvPcS0_PKiS2_ii
	.section	.data.rel.ro,"aw",@progbits
	.globl	_Z15mummergpuKernelPvPcS0_PKiS2_ii
	.p2align	3
_Z15mummergpuKernelPvPcS0_PKiS2_ii:
	.quad	_Z30__device_stub__mummergpuKernelPvPcS0_PKiS2_ii
	.size	_Z15mummergpuKernelPvPcS0_PKiS2_ii, 8

	.type	_Z17mummergpuRCKernelP10MatchCoordPcPKiS3_ii,@object # @_Z17mummergpuRCKernelP10MatchCoordPcPKiS3_ii
	.globl	_Z17mummergpuRCKernelP10MatchCoordPcPKiS3_ii
	.p2align	3
_Z17mummergpuRCKernelP10MatchCoordPcPKiS3_ii:
	.quad	_Z32__device_stub__mummergpuRCKernelP10MatchCoordPcPKiS3_ii
	.size	_Z17mummergpuRCKernelP10MatchCoordPcPKiS3_ii, 8

	.type	_Z11printKernelP9MatchInfoiP9AlignmentPcPKiS5_iiiii,@object # @_Z11printKernelP9MatchInfoiP9AlignmentPcPKiS5_iiiii
	.globl	_Z11printKernelP9MatchInfoiP9AlignmentPcPKiS5_iiiii
	.p2align	3
_Z11printKernelP9MatchInfoiP9AlignmentPcPKiS5_iiiii:
	.quad	_Z26__device_stub__printKernelP9MatchInfoiP9AlignmentPcPKiS5_iiiii
	.size	_Z11printKernelP9MatchInfoiP9AlignmentPcPKiS5_iiiii, 8

	.type	.L__unnamed_1,@object           # @0
	.section	.rodata.str1.1,"aMS",@progbits,1
.L__unnamed_1:
	.asciz	"_Z15mummergpuKernelPvPcS0_PKiS2_ii"
	.size	.L__unnamed_1, 35

	.type	.L__unnamed_2,@object           # @1
.L__unnamed_2:
	.asciz	"_Z17mummergpuRCKernelP10MatchCoordPcPKiS3_ii"
	.size	.L__unnamed_2, 45

	.type	.L__unnamed_3,@object           # @2
.L__unnamed_3:
	.asciz	"_Z11printKernelP9MatchInfoiP9AlignmentPcPKiS5_iiiii"
	.size	.L__unnamed_3, 52

	.type	.L__unnamed_4,@object           # @3
.L__unnamed_4:
	.asciz	"nodetex"
	.size	.L__unnamed_4, 8

	.type	.L__unnamed_5,@object           # @4
.L__unnamed_5:
	.asciz	"childrentex"
	.size	.L__unnamed_5, 12

	.type	.L__unnamed_6,@object           # @5
.L__unnamed_6:
	.asciz	"reftex"
	.size	.L__unnamed_6, 7

	.type	.L__unnamed_7,@object           # @6
.L__unnamed_7:
	.asciz	"qrytex"
	.size	.L__unnamed_7, 7

	.type	.L__unnamed_8,@object           # @7
	.section	.hip_fatbin,"a",@progbits
	.p2align	12
.L__unnamed_8:
	.asciz	"__CLANG_OFFLOAD_BUNDLE__\002\000\000\000\000\000\000\000\000\020\000\000\000\000\000\000\000\000\000\000\000\000\000\000\031\000\000\000\000\000\000\000host-x86_64-unknown-linux\000\020\000\000\000\000\000\000\220;\000\000\000\000\000\000\037\000\000\000\000\000\000\000hipv4-amdgcn-amd-amdhsa--gfx90a\000\000\000\000\000\000\000\000\000\000\000\000\000\000\000\000\000\000\000\000\000\000\000\000\000\000\000\000\000\000\000\000\000\000\000\000\000\000\000\000\000\000\000\000\000\000\000\000\000\000\000\000\000\000\000\000\000\000\000\000\000\000\000\000\000\000\000\000\000\000\000\000\000\000\000\000\000\000\000\000\000\000\000\000\000\000\000\000\000\000\000\000\000\000\000\000\000\000\000\000\000\000\000\000\000\000\000\000\000\000\000\000\000\000\000\000\000\000\000\000\000\000\000\000\000\000\000\000\000\000\000\000\000\000\000\000\000\000\000\000\000\000\000\000\000\000\000\000\000\000\000\000\000\000\000\000\000\000\000\000\000\000\000\000\000\000\000\000\000\000\000\000\000\000\000\000\000\000\000\000\000\000\000\000\000\000\000\000\000\000\000\000\000\000\000\000\000\000\000\000\000\000\000\000\000\000\000\000\000\000\000\000\000\000\000\000\000\000\000\000\000\000\000\000\000\000\000\000\000\000\000\000\000\000\000\000\000\000\000\000\000\000\000\000\000\000\000\000\000\000\000\000\000\000\000\000\000\000\000\000\000\000\000\000\000\000\000\000\000\000\000\000\000\000\000\000\000\000\000\000\000\000\000\000\000\000\000\000\000\000\000\000\000\000\000\000\000\000\000\000\000\000\000\000\000\000\000\000\000\000\000\000\000\000\000\000\000\000\000\000\000\000\000\000\000\000\000\000\000\000\000\000\000\000\000\000\000\000\000\000\000\000\000\000\000\000\000\000\000\000\000\000\000\000\000\000\000\000\000\000\000\000\000\000\000\000\000\000\000\000\000\000\000\000\000\000\000\000\000\000\000\000\000\000\000\000\000\000\000\000\000\000\000\000\000\000\000\000\000\000\000\000\000\000\000\000\000\000\000\000\000\000\000\000\000\000\000\000\000\000\000\000\000\000\000\000\000\000\000\000\000\000\000\000\000\000\000\000\000\000\000\000\000\000\000\000\000\000\000\000\000\000\000\000\000\000\000\000\000\000\000\000\000\000\000\000\000\000\000\000\000\000\000\000\000\000\000\000\000\000\000\000\000\000\000\000\000\000\000\000\000\000\000\000\000\000\000\000\000\000\000\000\000\000\000\000\000\000\000\000\000\000\000\000\000\000\000\000\000\000\000\000\000\000\000\000\000\000\000\000\000\000\000\000\000\000\000\000\000\000\000\000\000\000\000\000\000\000\000\000\000\000\000\000\000\000\000\000\000\000\000\000\000\000\000\000\000\000\000\000\000\000\000\000\000\000\000\000\000\000\000\000\000\000\000\000\000\000\000\000\000\000\000\000\000\000\000\000\000\000\000\000\000\000\000\000\000\000\000\000\000\000\000\000\000\000\000\000\000\000\000\000\000\000\000\000\000\000\000\000\000\000\000\000\000\000\000\000\000\000\000\000\000\000\000\000\000\000\000\000\000\000\000\000\000\000\000\000\000\000\000\000\000\000\000\000\000\000\000\000\000\000\000\000\000\000\000\000\000\000\000\000\000\000\000\000\000\000\000\000\000\000\000\000\000\000\000\000\000\000\000\000\000\000\000\000\000\000\000\000\000\000\000\000\000\000\000\000\000\000\000\000\000\000\000\000\000\000\000\000\000\000\000\000\000\000\000\000\000\000\000\000\000\000\000\000\000\000\000\000\000\000\000\000\000\000\000\000\000\000\000\000\000\000\000\000\000\000\000\000\000\000\000\000\000\000\000\000\000\000\000\000\000\000\000\000\000\000\000\000\000\000\000\000\000\000\000\000\000\000\000\000\000\000\000\000\000\000\000\000\000\000\000\000\000\000\000\000\000\000\000\000\000\000\000\000\000\000\000\000\000\000\000\000\000\000\000\000\000\000\000\000\000\000\000\000\000\000\000\000\000\000\000\000\000\000\000\000\000\000\000\000\000\000\000\000\000\000\000\000\000\000\000\000\000\000\000\000\000\000\000\000\000\000\000\000\000\000\000\000\000\000\000\000\000\000\000\000\000\000\000\000\000\000\000\000\000\000\000\000\000\000\000\000\000\000\000\000\000\000\000\000\000\000\000\000\000\000\000\000\000\000\000\000\000\000\000\000\000\000\000\000\000\000\000\000\000\000\000\000\000\000\000\000\000\000\000\000\000\000\000\000\000\000\000\000\000\000\000\000\000\000\000\000\000\000\000\000\000\000\000\000\000\000\000\000\000\000\000\000\000\000\000\000\000\000\000\000\000\000\000\000\000\000\000\000\000\000\000\000\000\000\000\000\000\000\000\000\000\000\000\000\000\000\000\000\000\000\000\000\000\000\000\000\000\000\000\000\000\000\000\000\000\000\000\000\000\000\000\000\000\000\000\000\000\000\000\000\000\000\000\000\000\000\000\000\000\000\000\000\000\000\000\000\000\000\000\000\000\000\000\000\000\000\000\000\000\000\000\000\000\000\000\000\000\000\000\000\000\000\000\000\000\000\000\000\000\000\000\000\000\000\000\000\000\000\000\000\000\000\000\000\000\000\000\000\000\000\000\000\000\000\000\000\000\000\000\000\000\000\000\000\000\000\000\000\000\000\000\000\000\000\000\000\000\000\000\000\000\000\000\000\000\000\000\000\000\000\000\000\000\000\000\000\000\000\000\000\000\000\000\000\000\000\000\000\000\000\000\000\000\000\000\000\000\000\000\000\000\000\000\000\000\000\000\000\000\000\000\000\000\000\000\000\000\000\000\000\000\000\000\000\000\000\000\000\000\000\000\000\000\000\000\000\000\000\000\000\000\000\000\000\000\000\000\000\000\000\000\000\000\000\000\000\000\000\000\000\000\000\000\000\000\000\000\000\000\000\000\000\000\000\000\000\000\000\000\000\000\000\000\000\000\000\000\000\000\000\000\000\000\000\000\000\000\000\000\000\000\000\000\000\000\000\000\000\000\000\000\000\000\000\000\000\000\000\000\000\000\000\000\000\000\000\000\000\000\000\000\000\000\000\000\000\000\000\000\000\000\000\000\000\000\000\000\000\000\000\000\000\000\000\000\000\000\000\000\000\000\000\000\000\000\000\000\000\000\000\000\000\000\000\000\000\000\000\000\000\000\000\000\000\000\000\000\000\000\000\000\000\000\000\000\000\000\000\000\000\000\000\000\000\000\000\000\000\000\000\000\000\000\000\000\000\000\000\000\000\000\000\000\000\000\000\000\000\000\000\000\000\000\000\000\000\000\000\000\000\000\000\000\000\000\000\000\000\000\000\000\000\000\000\000\000\000\000\000\000\000\000\000\000\000\000\000\000\000\000\000\000\000\000\000\000\000\000\000\000\000\000\000\000\000\000\000\000\000\000\000\000\000\000\000\000\000\000\000\000\000\000\000\000\000\000\000\000\000\000\000\000\000\000\000\000\000\000\000\000\000\000\000\000\000\000\000\000\000\000\000\000\000\000\000\000\000\000\000\000\000\000\000\000\000\000\000\000\000\000\000\000\000\000\000\000\000\000\000\000\000\000\000\000\000\000\000\000\000\000\000\000\000\000\000\000\000\000\000\000\000\000\000\000\000\000\000\000\000\000\000\000\000\000\000\000\000\000\000\000\000\000\000\000\000\000\000\000\000\000\000\000\000\000\000\000\000\000\000\000\000\000\000\000\000\000\000\000\000\000\000\000\000\000\000\000\000\000\000\000\000\000\000\000\000\000\000\000\000\000\000\000\000\000\000\000\000\000\000\000\000\000\000\000\000\000\000\000\000\000\000\000\000\000\000\000\000\000\000\000\000\000\000\000\000\000\000\000\000\000\000\000\000\000\000\000\000\000\000\000\000\000\000\000\000\000\000\000\000\000\000\000\000\000\000\000\000\000\000\000\000\000\000\000\000\000\000\000\000\000\000\000\000\000\000\000\000\000\000\000\000\000\000\000\000\000\000\000\000\000\000\000\000\000\000\000\000\000\000\000\000\000\000\000\000\000\000\000\000\000\000\000\000\000\000\000\000\000\000\000\000\000\000\000\000\000\000\000\000\000\000\000\000\000\000\000\000\000\000\000\000\000\000\000\000\000\000\000\000\000\000\000\000\000\000\000\000\000\000\000\000\000\000\000\000\000\000\000\000\000\000\000\000\000\000\000\000\000\000\000\000\000\000\000\000\000\000\000\000\000\000\000\000\000\000\000\000\000\000\000\000\000\000\000\000\000\000\000\000\000\000\000\000\000\000\000\000\000\000\000\000\000\000\000\000\000\000\000\000\000\000\000\000\000\000\000\000\000\000\000\000\000\000\000\000\000\000\000\000\000\000\000\000\000\000\000\000\000\000\000\000\000\000\000\000\000\000\000\000\000\000\000\000\000\000\000\000\000\000\000\000\000\000\000\000\000\000\000\000\000\000\000\000\000\000\000\000\000\000\000\000\000\000\000\000\000\000\000\000\000\000\000\000\000\000\000\000\000\000\000\000\000\000\000\000\000\000\000\000\000\000\000\000\000\000\000\000\000\000\000\000\000\000\000\000\000\000\000\000\000\000\000\000\000\000\000\000\000\000\000\000\000\000\000\000\000\000\000\000\000\000\000\000\000\000\000\000\000\000\000\000\000\000\000\000\000\000\000\000\000\000\000\000\000\000\000\000\000\000\000\000\000\000\000\000\000\000\000\000\000\000\000\000\000\000\000\000\000\000\000\000\000\000\000\000\000\000\000\000\000\000\000\000\000\000\000\000\000\000\000\000\000\000\000\000\000\000\000\000\000\000\000\000\000\000\000\000\000\000\000\000\000\000\000\000\000\000\000\000\000\000\000\000\000\000\000\000\000\000\000\000\000\000\000\000\000\000\000\000\000\000\000\000\000\000\000\000\000\000\000\000\000\000\000\000\000\000\000\000\000\000\000\000\000\000\000\000\000\000\000\000\000\000\000\000\000\000\000\000\000\000\000\000\000\000\000\000\000\000\000\000\000\000\000\000\000\000\000\000\000\000\000\000\000\000\000\000\000\000\000\000\000\000\000\000\000\000\000\000\000\000\000\000\000\000\000\000\000\000\000\000\000\000\000\000\000\000\000\000\000\000\000\000\000\000\000\000\000\000\000\000\000\000\000\000\000\000\000\000\000\000\000\000\000\000\000\000\000\000\000\000\000\000\000\000\000\000\000\000\000\000\000\000\000\000\000\000\000\000\000\000\000\000\000\000\000\000\000\000\000\000\000\000\000\000\000\000\000\000\000\000\000\000\000\000\000\000\000\000\000\000\000\000\000\000\000\000\000\000\000\000\000\000\000\000\000\000\000\000\000\000\000\000\000\000\000\000\000\000\000\000\000\000\000\000\000\000\000\000\000\000\000\000\000\000\000\000\000\000\000\000\000\000\000\000\000\000\000\000\000\000\000\000\000\000\000\000\000\000\000\000\000\000\000\000\000\000\000\000\000\000\000\000\000\000\000\000\000\000\000\000\000\000\000\000\000\000\000\000\000\000\000\000\000\000\000\000\000\000\000\000\000\000\000\000\000\000\000\000\000\000\000\000\000\000\000\000\000\000\000\000\000\000\000\000\000\000\000\000\000\000\000\000\000\000\000\000\000\000\000\000\000\000\000\000\000\000\000\000\000\000\000\000\000\000\000\000\000\000\000\000\000\000\000\000\000\000\000\000\000\000\000\000\000\000\000\000\000\000\000\000\000\000\000\000\000\000\000\000\000\000\000\000\000\000\000\000\000\000\000\000\000\000\000\000\000\000\000\000\000\000\000\000\000\000\000\000\000\000\000\000\000\000\000\000\000\000\000\000\000\000\000\000\000\000\000\000\000\000\000\000\000\000\000\000\000\000\000\000\000\000\000\000\000\000\000\000\000\000\000\000\000\000\000\000\000\000\000\000\000\000\000\000\000\000\000\000\000\000\000\000\000\000\000\000\000\000\000\000\000\000\000\000\000\000\000\000\000\000\000\000\000\000\000\000\000\000\000\000\000\000\000\000\000\000\000\000\000\000\000\000\000\000\000\000\000\000\000\000\000\000\000\000\000\000\000\000\000\000\000\000\000\000\000\000\000\000\000\000\000\000\000\000\000\000\000\000\000\000\000\000\000\000\000\000\000\000\000\000\000\000\000\000\000\000\000\000\000\000\000\000\000\000\000\000\000\000\000\000\000\000\000\000\000\000\000\000\000\000\000\000\000\000\000\000\000\000\000\000\000\000\000\000\000\000\000\000\000\000\000\000\000\000\000\000\000\000\000\000\000\000\000\000\000\000\000\000\000\000\000\000\000\000\000\000\000\000\000\000\000\000\000\000\000\000\000\000\000\000\000\000\000\000\000\000\000\000\000\000\000\000\000\000\000\000\000\000\000\000\000\000\000\000\000\000\000\000\000\000\000\000\000\000\000\000\000\000\000\000\000\000\000\000\000\000\000\000\000\000\000\000\000\000\000\000\000\000\000\000\000\000\000\000\000\000\000\000\000\000\000\000\000\000\000\000\000\000\000\000\000\000\000\000\000\000\000\000\000\000\000\000\000\000\000\000\000\000\000\000\000\000\000\000\000\000\000\000\000\000\000\000\000\000\000\000\000\000\000\000\000\000\000\000\000\000\000\000\000\000\000\000\000\000\000\000\000\000\000\000\000\000\000\000\000\000\000\000\000\000\000\000\000\000\000\000\000\000\000\000\000\000\000\000\000\000\000\000\000\000\000\000\000\000\000\000\000\000\000\000\000\000\000\000\000\000\000\000\000\000\000\000\000\000\000\000\000\000\000\000\000\000\000\000\000\000\000\000\000\000\000\000\000\000\000\000\000\000\000\000\000\000\000\000\000\000\000\000\000\000\000\000\000\000\000\000\000\000\000\000\000\000\000\000\000\000\000\000\000\000\000\000\000\000\000\000\000\000\000\000\000\000\000\000\000\000\000\000\000\000\000\000\000\000\000\000\000\000\000\000\000\000\000\000\000\000\000\000\000\000\000\000\000\000\000\000\000\000\000\000\000\000\000\000\000\000\000\000\000\000\000\000\000\000\000\000\000\000\000\000\000\000\000\000\000\000\000\000\000\000\000\000\000\000\000\000\000\000\000\000\000\000\000\000\000\000\000\000\000\000\000\000\000\000\000\000\000\000\000\000\000\000\000\000\000\000\000\000\000\000\000\000\000\000\000\000\000\000\000\000\000\000\000\000\000\000\000\000\000\000\000\000\000\000\000\000\000\000\000\000\000\000\000\000\000\000\000\000\000\000\000\000\000\000\000\000\000\000\000\000\000\000\000\000\000\000\000\000\000\000\000\000\000\000\000\000\000\000\000\000\000\000\000\000\000\000\000\000\000\000\000\000\000\000\000\000\000\000\000\000\000\000\000\000\000\000\000\000\000\000\000\000\000\000\000\000\000\000\000\000\000\000\000\000\000\000\000\000\000\000\000\000\000\000\000\000\000\000\000\000\000\000\000\000\000\000\000\000\000\000\000\000\000\000\000\000\000\000\000\000\000\000\000\000\000\000\000\000\000\000\000\000\000\000\000\000\000\000\000\000\000\000\000\000\000\000\000\000\000\000\000\000\000\000\000\000\000\000\000\000\000\000\000\000\000\000\000\000\000\000\000\000\000\000\000\000\000\000\000\000\000\000\000\000\000\000\000\000\000\000\000\000\000\000\000\000\000\000\000\000\000\000\000\000\000\000\000\000\000\000\000\000\000\000\000\000\000\000\000\000\000\000\000\000\000\000\000\000\000\000\000\000\000\000\000\000\000\000\000\000\000\000\000\000\000\000\000\000\000\000\000\000\000\000\000\000\000\000\000\000\000\000\000\000\000\000\000\000\000\000\000\000\000\000\000\000\000\000\000\000\000\000\000\000\000\000\000\000\000\000\000\000\000\000\000\000\000\000\000\000\000\000\000\000\000\000\000\000\000\000\000\000\000\000\000\000\000\000\000\000\000\000\000\000\000\000\000\000\000\000\000\000\000\000\000\000\000\000\000\000\000\000\000\000\000\000\000\000\000\000\000\000\000\000\000\000\000\000\000\000\000\000\000\000\000\000\000\000\000\000\000\000\000\000\000\000\000\000\000\000\000\000\000\000\000\000\000\000\000\000\000\000\000\000\000\000\000\000\000\000\000\000\000\000\000\000\000\000\000\000\000\000\000\000\000\000\000\000\000\000\000\000\000\000\000\000\000\000\000\000\000\000\000\000\000\000\000\000\000\000\000\000\000\000\000\000\000\000\000\000\000\000\000\000\000\000\000\000\000\000\000\000\000\000\000\000\000\000\000\000\000\000\000\000\000\000\000\000\000\000\000\000\000\000\000\000\000\000\000\000\000\000\000\000\000\000\000\000\000\000\000\000\000\000\000\000\000\000\000\000\000\000\000\000\000\000\000\000\000\000\000\000\000\000\000\000\000\000\000\000\000\000\000\000\000\000\000\000\000\000\000\000\000\000\000\000\000\000\000\000\000\000\000\000\000\000\000\000\000\000\000\000\000\000\000\000\000\000\000\000\000\000\000\000\000\000\000\000\000\000\000\000\000\000\000\000\000\000\000\000\000\000\000\000\000\000\000\000\000\000\000\000\000\000\000\000\000\000\000\000\000\000\000\000\000\000\000\000\000\000\000\000\000\000\000\000\000\000\000\000\000\000\000\000\000\000\000\000\000\000\000\000\000\000\000\000\000\000\000\000\000\000\000\000\000\000\000\000\000\000\000\000\000\000\000\000\000\000\000\000\000\000\000\000\000\000\000\000\000\000\000\000\000\000\000\000\000\000\000\000\000\000\000\000\000\000\000\000\000\000\000\000\000\000\000\000\000\000\000\000\000\000\000\000\000\000\000\000\000\000\000\000\000\000\000\000\000\000\000\000\000\000\000\000\000\000\000\000\000\000\000\000\000\000\000\000\000\000\000\000\000\000\000\000\000\000\000\000\000\000\000\000\000\177ELF\002\001\001@\002\000\000\000\000\000\000\000\003\000\340\000\001\000\000\000\000\000\000\000\000\000\000\000@\000\000\000\000\000\000\000\3207\000\000\000\000\000\000?\005\000\000@\0008\000\t\000@\000\017\000\r\000\006\000\000\000\004\000\000\000@\000\000\000\000\000\000\000@\000\000\000\000\000\000\000@\000\000\000\000\000\000\000\370\001\000\000\000\000\000\000\370\001\000\000\000\000\000\000\b\000\000\000\000\000\000\000\001\000\000\000\004\000\000\000\000\000\000\000\000\000\000\000\000\000\000\000\000\000\000\000\000\000\000\000\000\000\000\000C\021\000\000\000\000\000\000C\021\000\000\000\000\000\000\000\020\000\000\000\000\000\000\001\000\000\000\005\000\000\000\000\022\000\000\000\000\000\000\000\"\000\000\000\000\000\000\000\"\000\000\000\000\000\000@!\000\000\000\000\000\000@!\000\000\000\000\000\000\000\020\000\000\000\000\000\000\001\000\000\000\006\000\000\000@3\000\000\000\000\000\000@S\000\000\000\000\000\000@S\000\000\000\000\000\000p\000\000\000\000\000\000\000p\000\000\000\000\000\000\000\000\020\000\000\000\000\000\000\001\000\000\000\006\000\000\000\2603\000\000\000\000\000\000\260c\000\000\000\000\000\000\260c\000\000\000\000\000\000\000\000\000\000\000\000\000\000`\001\000\000\000\000\000\000\000\020\000\000\000\000\000\000\002\000\000\000\006\000\000\000@3\000\000\000\000\000\000@S\000\000\000\000\000\000@S\000\000\000\000\000\000p\000\000\000\000\000\000\000p\000\000\000\000\000\000\000\b\000\000\000\000\000\000\000R\345td\004\000\000\000@3\000\000\000\000\000\000@S\000\000\000\000\000\000@S\000\000\000\000\000\000p\000\000\000\000\000\000\000\300\f\000\000\000\000\000\000\001\000\000\000\000\000\000\000Q\345td\006\000\000\000\000\000\000\000\000\000\000\000\000\000\000\000\000\000\000\000\000\000\000\000\000\000\000\000\000\000\000\000\000\000\000\000\000\000\000\000\000\000\000\000\000\000\000\000\000\000\000\000\004\000\000\000\004\000\000\0008\002\000\000\000\000\000\0008\002\000\000\000\000\000\0008\002\000\000\000\000\000\000$\n\000\000\000\000\000\000$\n\000\000\000\000\000\000\004\000\000\000\000\000\000\000\007\000\000\000\016\n\000\000 \000\000\000AMDGPU\000\000\203\256amdhsa.kernels\223\336\000\021\253.agpr_count\000\245.args\227\204\256.address_space\246global\247.offset\000\245.size\b\253.value_kind\255global_buffer\204\256.address_space\246global\247.offset\b\245.size\b\253.value_kind\255global_buffer\204\256.address_space\246global\247.offset\020\245.size\b\253.value_kind\255global_buffer\204\256.address_space\246global\247.offset\030\245.size\b\253.value_kind\255global_buffer\204\256.address_space\246global\247.offset \245.size\b\253.value_kind\255global_buffer\203\247.offset(\245.size\004\253.value_kind\250by_value\203\247.offset,\245.size\004\253.value_kind\250by_value\271.group_segment_fixed_size\000\266.kernarg_segment_align\b\265.kernarg_segment_size0\251.language\250OpenCL C\261.language_version\222\002\000\270.max_flat_workgroup_size\315\004\000\245.name\331\"_Z15mummergpuKernelPvPcS0_PKiS2_ii\273.private_segment_fixed_size\000\253.sgpr_count/\261.sgpr_spill_count\000\247.symbol\331%_Z15mummergpuKernelPvPcS0_PKiS2_ii.kd\263.uses_dynamic_stack\302\253.vgpr_count&\261.vgpr_spill_count\000\257.wavefront_size@\336\000\021\253.agpr_count\000\245.args\226\204\256.address_space\246global\247.offset\000\245.size\b\253.value_kind\255global_buffer\204\256.address_space\246global\247.offset\b\245.size\b\253.value_kind\255global_buffer\204\256.address_space\246global\247.offset\020\245.size\b\253.value_kind\255global_buffer\204\256.address_space\246global\247.offset\030\245.size\b\253.value_kind\255global_buffer\203\247.offset \245.size\004\253.value_kind\250by_value\203\247.offset$\245.size\004\253.value_kind\250by_value\271.group_segment_fixed_size\000\266.kernarg_segment_align\b\265.kernarg_segment_size(\251.language\250OpenCL C\261.language_version\222\002\000\270.max_flat_workgroup_size\315\004\000\245.name\331,_Z17mummergpuRCKernelP10MatchCoordPcPKiS3_ii\273.private_segment_fixed_size\000\253.sgpr_count\000\261.sgpr_spill_count\000\247.symbol\331/_Z17mummergpuRCKernelP10MatchCoordPcPKiS3_ii.kd\263.uses_dynamic_stack\302\253.vgpr_count\000\261.vgpr_spill_count\000\257.wavefront_size@\336\000\021\253.agpr_count\000\245.args\233\204\256.address_space\246global\247.offset\000\245.size\b\253.value_kind\255global_buffer\203\247.offset\b\245.size\004\253.value_kind\250by_value\204\256.address_space\246global\247.offset\020\245.size\b\253.value_kind\255global_buffer\204\256.address_space\246global\247.offset\030\245.size\b\253.value_kind\255global_buffer\204\256.address_space\246global\247.offset \245.size\b\253.value_kind\255global_buffer\204\256.address_space\246global\247.offset(\245.size\b\253.value_kind\255global_buffer\203\247.offset0\245.size\004\253.value_kind\250by_value\203\247.offset4\245.size\004\253.value_kind\250by_value\203\247.offset8\245.size\004\253.value_kind\250by_value\203\247.offset<\245.size\004\253.value_kind\250by_value\203\247.offset@\245.size\004\253.value_kind\250by_value\271.group_segment_fixed_size\000\266.kernarg_segment_align\b\265.kernarg_segment_sizeD\251.language\250OpenCL C\261.language_version\222\002\000\270.max_flat_workgroup_size\315\004\000\245.name\3313_Z11printKernelP9MatchInfoiP9AlignmentPcPKiS5_iiiii\273.private_segment_fixed_size\000\253.sgpr_count?\261.sgpr_spill_count\000\247.symbol\3316_Z11printKernelP9MatchInfoiP9AlignmentPcPKiS5_iiiii.kd\263.uses_dynamic_stack\302\253.vgpr_count4\261.vgpr_spill_count\000\257.wavefront_size@\255amdhsa.target\271amdgcn-amd-amdhsa--gfx90a\256amdhsa.version\222\001\001\000\000\000\000\000\000\000\000\000\000\000\000\000\000\000\000\000\000\000\000\000\000\000\000\000\000\000\000\000\000\213\000\000\000\021\003\006\000\300\020\000\000\000\000\000\000@\000\000\000\000\000\000\0004\001\000\000!\003\006\000@\021\000\000\000\000\000\000\001\000\000\000\000\000\000\000\001\000\000\000\022\003\007\000\000\"\000\000\000\000\000\000\210\b\000\000\000\000\000\0000\000\000\000\021\003\t\000\260c\000\000\000\000\000\000X\000\000\000\000\000\000\0008\000\000\000\021\003\006\000\200\020\000\000\000\000\000\000@\000\000\000\000\000\000\000^\000\000\000\022\003\007\000\000+\000\000\000\000\000\000\004\000\000\000\000\000\000\000\273\000\000\000\022\003\007\000\000,\000\000\000\000\000\000@\023\000\000\000\000\000\000\357\000\000\000\021\003\006\000\000\021\000\000\000\000\000\000@\000\000\000\000\000\000\000&\001\000\000\021\003\t\000`d\000\000\000\000\000\000X\000\000\000\000\000\000\000-\001\000\000\021\003\t\000\270d\000\000\000\000\000\000X\000\000\000\000\000\000\000$\000\000\000\021\003\t\000\bd\000\000\000\000\000\000X\000\000\000\000\000\000\000`\001\000\000!\003\006\000A\021\000\000\000\000\000\000\001\000\000\000\000\000\000\000\214\001\000\000!\003\006\000B\021\000\000\000\000\000\000\001\000\000\000\000\000\000\000\003\000\000\000\001\000\000\000\004\000\000\000\032\000\000\000 \000\005@\004\000\000\b\002\020\002\200\020@@\020 \001\b\002\000\002\000\020@\004H\b\000\000\b\000\001\000\000\000\003\000\000\000\013\000\000\000:\310^C}[\344\007\230\342\312M\274E}!\326Y\314m\036c\204\213LM\264\331\250\253\227\027\362\260(\031\0232\311\027^\310l\270P\351\343\221\313\227QN\016\000\000\000\016\000\000\000\005\000\000\000\000\000\000\000\b\000\000\000\000\000\000\000\000\000\000\000\000\000\000\000\t\000\000\000\000\000\000\000\004\000\000\000\f\000\000\000\000\000\000\000\007\000\000\000\013\000\000\000\r\000\000\000\000\000\000\000\000\000\000\000\000\000\000\000\000\000\000\000\001\000\000\000\000\000\000\000\002\000\000\000\000\000\000\000\000\000\000\000\000\000\000\000\000\000\000\000\n\000\000\000\003\000\000\000\006\000\000\000\000_Z15mummergpuKernelPvPcS0_PKiS2_ii\000childrentex\000nodetex\000_Z15mummergpuKernelPvPcS0_PKiS2_ii.kd\000_Z17mummergpuRCKernelP10MatchCoordPcPKiS3_ii\000_Z17mummergpuRCKernelP10MatchCoordPcPKiS3_ii.kd\000_Z11printKernelP9MatchInfoiP9AlignmentPcPKiS5_iiiii\000_Z11printKernelP9MatchInfoiP9AlignmentPcPKiS5_iiiii.kd\000reftex\000qrytex\000_ZN17__HIP_CoordinatesI14__HIP_BlockIdxE1xE\000_ZN17__HIP_CoordinatesI14__HIP_BlockDimE1xE\000_ZN17__HIP_CoordinatesI15__HIP_ThreadIdxE1xE\000\000\000\000\000\000\000\000\000\000\000\000\000\000\000\000\000\000\000\000\000\000\000\000\000\000\000\000\000\000\000\000\000\000\000\000\000\000\000\000\000\000\000\000\000\000\000\000\000\000\000\000\000\000\000\0000\000\000\000\000\000\000\000\200\021\000\000\000\000\000\000\000\000\000\000\000\000\000\000\000\000\000\000\000\000\000\000\000\000\000\000\t\000\000\000\204\001\257\000\220\000\000\000\013\000\000\000\000\000\000\000\000\000\000\000\000\000\000\000(\000\000\000\000\000\000\000@\032\000\000\000\000\000\000\000\000\000\000\000\000\000\000\000\000\000\000\000\000\000\000\000\000\000\000\000\000\000\000\000\000\257\000\214\000\000\000\t\000\000\000\000\000\000\000\000\000\000\000\000\000\000\000D\000\000\000\000\000\000\000\000\033\000\000\000\000\000\000\000\000\000\000\000\000\000\000\000\000\000\000\000\000\000\000\000\000\000\000\f\000\000\000\006\002\257\000\220\000\000\000\013\000\000\000\000\000\000\000\000\000\000\000\000\000\000\000\000\000\000\000\000\000\000\000\000\000\000\000\000\000\000\000\000\000\000\000\000\000\000\000\000\000\000\000\000\000\000\000\000\000\000\000\000\000\000\000\000\000\000\000\000\000\000\000\000\000\000\000\000\000\000\000\000\000\000\000\000\000\000\000\000\000\000\000\000\000\000\000\000\000\000\000\000\000\000\000\000\000\000\000\000\000\000\000\000\000\000\000\000\000\000\000\000\000\000\000\000\000\000\000\000\000\000\000\000\000\000\000\000\000\000\000\000\000\000\000\000\000\000\000\000\000\000\000\000\000\000\000\000\000\000\000\000\000\000\000\000\000\000\000\000\000\000\000\000\000\000\000\000\000\000\000\000\000\000\000\000\000\000\000\000\000\000\000\000\000\000\000\000\000\000\000\000\000\000\000\000\000\000\000\002\000\002\300\004\000\000\000B\000\002\300\f\000\000\000\003\005\006\300(\000\000\000\177\300\214\277\000\377\000\206\377\377\000\000\b\000\002\222\001\002\201\201\001\000\200\203\b\377\001\206\377\377\377\000\000\001\000\222\000\000\000h\024\000\210}j \200\276\016\002\210\277\003\000\n\300 \000\000\000\237\000\002\"\002\000\217\322\202\000\002\000\177\300\214\277\001\002\b~\000\004\0042\004\007\0068\000\200P\334\002\000\177\002p\017\214\277\025\004\206}~j\376\206\377\001\210\277\003\000\016\300\000\000\000\000\004\000\217\322\202\000\002\000\025\201\b\201\b\000\000\020\200\000\224\276\177\300\214\277\007\002\002~\006\b\b2\001\013\n8\000\200P\334\004\000\177\004\025\004\002l\003\002\004~\201\0028h\237\000\002\"\001\002\f~\000\000\217\322\203\000\002\000\200\001\206\276\200\0024~\200\002\"~F\000!\260S\000$\260T\000%\260G\000&\260B\000'\260C\000(\260A\000)\260\377\000*\260\000\017+\260\377\000\254\276\000\004\005\006\377\0026~\000\000\001\000\200\002&~\200\002:~\000\034\226\276\026\377\026\200,A\000\000\027\377\027\202\000\000\000\000p\017\214\277\237\b\n\"\002\b<2\002\013>8\002\000\217\322\203\b\002\000\000\004\0042\006\007\0068\002\001(4\003\003*:\200\002\000~N\000\202\277~\002\376\207\371\fB~\020\006\004\000\371\fD~\020\006\005\000\035\000\363\321\023\203u\004~\000\376\207\000\034\200\276\000\377\000\200p@\000\000\001\377\001\202\000\000\000\000\000\200T\334\021\000\000\000p\017\214\277\000\005\000~\001\005\002~\200\000\002\3008\000\000\000\300\000\002\300\b\000\000\000\000\006\002\300(\000\000\000\000\004\n\3000\000\000\000@\006\002\3000\000\000\000\000\002\016\300\000\000\000\000\177\300\214\277\002\224\f\277\030\f\000~\301\200\352\205\031\217\f\277\301\200\200\205\003\377\202\222\016\000\016\000\002\201\002\201\000\000\000\321\362\000\002\000\002\f\002~\000E\004~\000C\000\n\000?\000~\001\000\000\321\362\002\002\000\002\001\000\n\001E\004~\001E\002\n\001?\002~!\001\000\000\002\003\002\n\"\003\002\000\000\003\200\360\000\000\202\000\024\201\024\201\0248\224}j\006\206\207\210((2\200**8p\017\214\277\000\000\316\321\001\001b\002\210\000\002 \002\000\310\321\000\021!\002\214\000\006 \377\002\002&\000\017\000\000\002\000\001\322\003W\b\004\000\000\001\322\000U\004\004\000\000\000\322\002!\001\004~\006\376\211z\001\210\277\200\000\224}\000\000\304\320\201:\002\000j\000\352\207\035\000\000\321\035\003\251\001\0007$\000\024:\000h\237\000\002\"\000\000\031\321\036\001\002\000\001\000\034\321\037\003\002\000\000\200@\334\000\000\177$\200\002F~\301\001\210\276p\017\214\277\000\000\255\320\200H\002\000\000 \202\276Z\001\210\277\000\200T\334\021\000\026\026\200\002F~\023\000\000\321\023\001\251\001\200\001\232\276\f\000\202\277~\f\376\207\b~\214\212\n~\210\212~\000\376\207\f\301\200\210~\b\210\206\b\032\232\207\030~\210\211\000~\200\206\b\000\230\207~\032\376\211@\001\210\277p\017\214\2778\200P\334\026\000\177\b0\200P\334\026\000\177\t(\200P\334\026\000\177\n\b\200P\334\026\000\177\013\020\200\\\334\026\000\177\004\000\200\\\334\026\000\177\0000\200\\\334\026\000\177\f\022\003 ~\371\fB~\020\006\004\000\371\fD~\020\006\005\000%\000\311\321$\001!\002~\001\234\276v\017\214\277\377\020\020&\000\000\020\000u\017\214\277\377\022\022&\000\200\000\000t\017\214\277\n\r\024~s\017\214\277\013\000\310\321\013\0359\002\201\026\026h\013\r\026~\200\022\224}\362\024\022\000\tE\024~\362\026\026\000\013E$~\tC\022\n\013E\026\n\t?\022~\013?\026~\n\023\022\n\200\020\224}\022\027\020\n!\0230\000\"\0212\000p\017\214\277\f\005 ~\r\005\"~\016\005$~\017\005&~\020\030\324}\000\000\352\320\022\034\002\000j\000\200\206\000 \236\276~\001\242\276\000\005\020~\001\005\022~\002\005\024~\003\005\026~\b\000\324}\000\000\352\320\n\004\002\000\004\005\030~\005\005\032~j\000\200\206\f\b\324}\006\005\034~\007\005\036~\000j\200\206\016\f\324}\000j\200\206\000 \200\276\000\000\200\277\000\017\200\360\030\b\202\000~\000\376\210\352\377\211\277\"\001\376\276~\036\376\210\335\377\211\277\034\001\376\276!J\202}j \200\276~\000\200\210\027\000\210\277$J\202}j \210\276~\b\210\210\b\000\210\277%J\224}\200\002\000~j \212\276\003\000\210\277p\017\214\277\000\000\316\321\013\025\"\002~\n\376\207\b#\210\276\b\000\210\277&J\224}\200\002\000~j \212\276\003\000\210\277p\017\214\277\000\000\316\321\n\023B\002~\n\376\207~\b\376\207\000#\200\276\026\000\210\277'J\202}j \210\276~\b\210\210\b\000\210\277(J\224}\200\002\000~j \212\276\003\000\210\277p\017\214\277\000\000\316\321\t\021b\002~\n\376\207\b#\210\276\007\000\210\277)J\224}\200\002\000~j \212\276\002\000\210\277p\017\214\277\b\003\000~~\n\376\207~\b\376\207~\000\376\207\210\000\002 \377\000\004&\377\000\000\000\002\000\001\322\001W\b\004\001\000\310\321\000\021!\002\214\000\000 \000\000\001\322\000W\004\004\022\000\000\322\000!\t\004\200$\232}j \200\276~\000\210\210\206\000\210\277\000\034\200\276\000\377\000\200H<\000\000\001\377\001\202\000\000\000\000\000\200T\334\021\000\000\004\002\r\002~\000\r\004~p\017\214\277\004\005\000~\005\005\002~\200\002\002\3008\000\000\000\300\002\002\300\b\000\000\000\200\b\002\300(\000\000\000\000\007\n\3000\000\000\000\300\b\002\3000\000\000\000\000\003\016\300\000\000\000\000\177\300\214\277\n\224\f\277\"\f\000~\301\200\352\205#\217\f\277\301\200\200\205\013\377\212\222\016\000\016\000\n\201\n\201\000\000\000\321\362\000\002\000\n\f\006~\000E\b~\000\003\000\n\000?\000~\003\000\000\321\362\006\002\000\004\001\000\n\003E\b~\003\005\006\n\001\001\000\000\003?\002~\004\003\002\n\002\003\002\000\000\006\200\360\000\000\343\000\200&\232}p\017\214\277\220\000\004 \230\000\000 \210\002\b \005\000\310\321\001!!\002\377\002\006&\377\000\000\000\230\002\002 \000\000\355\321\000\005\262\000\002\000\355\321\005\t\262\000 \000\000\322\003!\001\004\000\000\000\322\001!\t\004j \200\276~\000\200\210\000A\002j\201\002\002h\023\003\004j\201\000\006h '\bh\004\007F\030\001'\002\030\200\004&\032\000#\200\276\201@Fh\201\002\002~\200\002&~~\000\376\207\001;:h\024:\002h\237\002\006\"\036\003\0042\037\007\0068\000\200@\334\002\000\177$\200\001\200\276\n\000\202\277~\016\376\207\002\007Z}\n~\212\211j~\216\206\n\016\212\207~\f\376\207~\n\214\206\f\000\200\207~\000\376\211\037\000\210\277#\001\226}p\017\214\277\3714Z}$\214\000\006j\f\216\206\200\002\002~\n~\212\207\016 \214\276\362\377\210\277\000\200@\334#\000\004\002\377H\006&\377\000\000\000\233\002\002~p\017\214\277\002\007T}j \216\276\344\377\210\277\024\237\020\220\237:\002\"\020\002\b~\024:\n2\001\t\0028\036\013\b2\037\003\n8\001\200@\334\004\000\177$\201::h\201FFh\200\002\002~\327\377\202\277~\000\376\207\b#\200\276\013\000\210\277\025:\202}j \210\276\004\000\210\277\000\200t\334\024\020\177\000\000\200T\334\021\000\026\026~\b\376\207\301::h\222\002\002~\200\002&~~\000\376\207\233\002\210}\301\001\210\276\301\001\214\276j \200\276~\000\200\210\302\376\210\277\222\002\232}\301\001\212\276\200\001\210\276j \214\276\272\376\210\277p\017\214\277\3714T}$\212\000\006~\001\210\276\n~\212\212\264\376\202\277~\032\376\207\301\001\200\276\030 \210\276~\b\210\210~\301\200\210~\b\376\207\000~\210\212~\002\376\207\b \200\276F\376\210\277#A&j\025:\202}j \202\276;\376\210\277\000\200t\334\024\022\177\0008\376\202\277\000\000\201\277\000\000\200\277\000\000\200\277\000\000\200\277\000\000\200\277\000\000\200\277\000\000\200\277\000\000\200\277\000\000\200\277\000\000\200\277\000\000\200\277\000\000\200\277\000\000\200\277\000\000\200\277\000\000\200\277\000\000\200\277\000\000\200\277\000\000\200\277\000\000\200\277\000\000\200\277\000\000\200\277\000\000\200\277\000\000\200\277\000\000\200\277\000\000\200\277\000\000\200\277\000\000\200\277\000\000\200\277\000\000\200\277\000\000\200\277\000\000\200\277\000\000\201\277\000\000\200\277\000\000\200\277\000\000\200\277\000\000\200\277\000\000\200\277\000\000\200\277\000\000\200\277\000\000\200\277\000\000\200\277\000\000\200\277\000\000\200\277\000\000\200\277\000\000\200\277\000\000\200\277\000\000\200\277\000\000\200\277\000\000\200\277\000\000\200\277\000\000\200\277\000\000\200\277\000\000\200\277\000\000\200\277\000\000\200\277\000\000\200\277\000\000\200\277\000\000\200\277\000\000\200\277\000\000\200\277\000\000\200\277\000\000\200\277\000\000\200\277\000\000\200\277\000\000\200\277\000\000\200\277\000\000\200\277\000\000\200\277\000\000\200\277\000\000\200\277\000\000\200\277\000\000\200\277\000\000\200\277\000\000\200\277\000\000\200\277\000\000\200\277\000\000\200\277\000\000\200\277\000\000\200\277\000\000\200\277\000\000\200\277\000\000\200\277\000\000\200\277\000\000\200\277\000\000\200\277\000\000\200\277\000\000\200\277\000\000\200\277\000\000\200\277\000\000\200\277\000\000\200\277\000\000\200\277\000\000\200\277\000\000\200\277\000\000\200\277\002\000\002\300\004\000\000\000B\000\002\300\f\000\000\000\203\000\002\300\b\000\000\000\177\300\214\277\000\377\000\206\377\377\000\000\b\000\003\222\001\003\201\201\001\000\200\203\b\377\001\206\377\377\377\000\000\001\000\222\000\000\bh\002\b\210}j \200\276\274\004\210\277\203\000\006\300\000\000\000\000\003\005\n\300\020\000\000\000\000\034\242\276\"\377\"\200\2307\000\000#\377#\202\000\000\000\000\177\300\214\277\000\000\351\321\004)\t\000\004\200T\334\000\000\177\022\022\200H\334\000\000\177\005\003\000\006\300 \000\000\000\003\006\n\3000\000\000\000\200\002\002~\027\002\026~\177\300\214\277\001\002\004~q\017\214\277\022\003\000~\000\000\217\322\202\000\002\000\000\000\0002\002\003\0028\000\200P\334\000\000\177\n\021\000\006\300\000\000\000\000\177\300\214\277\000\001\002\3008\000\000\000@\001\002\300\b\000\000\000\300\005\002\300(\000\000\000\000\002\016\300\000\000\000\000\000\004\n\3000\000\000\000\000\007\002\3000\000\000\000\177\300\214\277\004\224\f\277\027\f\f~\301\200\352\205\371\f\022~\023\006\004\000\034\217\f\277\301\200\200\205\005\377\204\222\016\000\016\000\000\000\000\321\362\f\002\000\004\201\004\201\000E\002~\004\f\016~\000\023\000\n\371\f\020~\023\006\005\000\000?\000~\001\001\000\n\001\000\000\321\362\016\002\000\001E\004~\001\021\002\n\001?\002~\t\001\000\000\002\003\002\n\b\003\002\000\000\017\200\360\000\000\202\000r\017\214\277\377\n\030&\377\377\000\000p\017\214\277\237\024\002\"\022\000\031\321\026\024\002\000&\000\034\321\013\003\002\000\n\000\031\321\022\031\002\000\013\000\034\321\200L\002\000\000\200@\334\n\000\177'\203\005\002\300@\000\000\000\377\000\200\276\000\004\005\006\001\000\310\321\003\021!\002\001\000\355\321\001\007\002\000\002\000\310\321\003!!\002\001\000\000\322\002!\005\004\177\300\214\277\000\000\306\320\026\002\002\000\000 \204\276~\004\200\210\020\377\006\206\000\200\000\000\000!\204\276\006\002\002~\023\003V~\023\003P~~\004\376\210<\000\210\277\020\377\027\206\000\200\000\000\027\200\006\277\301\200\200\205\002\000\000\321\362\f\002\000\b\000\000\321\362\016\002\000\002E\006~\bE\022~\200\001\206\276\000\017\034\260\377\000\235\276\000\004\005\006\023\003P~\210\000\002 \377\000\024&\377\000\000\000\013\000\310\321\000\021!\002\214\000\000 \n\000\001\322\0019(\004\013\000\001\322\0009,\004\n\r\000~\013\r\002~(\003V~(\000\000\322\013!)\004\002\001\030\n\b\003\032\n\f?\030~\r?\032~\003\031\030\n\t\033\032\n\000\031\000\000\001\033\002\000\000\t\200\360\000\000\202\000p\017\214\277\f\000\310\321\001\021!\002\r\000\310\321\001!!\002\001\000\355\321\f\003v\000\001\000\000\322\r!\005\004\000\000\306\320\026\002\002\000\000\006\206\207~\006\376\211\331\377\211\277~\006\376\207\371\f\022~+\006\004\000\371\f\020~+\006\005\000\027\002\002~~\004\376\207\000\000\312\320\200\002\002\000\001\000\000\321\362\f\002\000\001E\000~\001\023\004\n\002?\004~\003\000\000\321\362\016\002\000\000\005\f\n\003E\004~\003\021\016\n\007?\016~\t\r\f\000\002\017\016\n\b\017\016\000\000\b\200\360\006\b\202\000\006\000\351\321\004)\t\000\000\200P\334\006\000\177\024\377\000\204\276\000\004\005\006\000\000\312\320+'\002\000\200\002^~q\017\214\277\006\000\310\321\b\021!\002\007\000\310\321\b!!\002\006\000\355\321\006\021\022\000\006\000\000\322\007!\031\004\301\f\\h\000 \204\276(\000\210\277\006\000\351\321\004)\t\000\020\200H\334\006\000\177\006p\017\214\277\000\000\255\320\200\f\002\000\000 \206\276\035\000\210\277\371\f\016~(\006\004\000\371\f\020~(\006\005\000\377\000\200\276\000\004\005\006\001\017\002\n\003\021\006\n\001?\002~\003?\006~\000\003\000\n\002\007\002\n\007\001\000\000\b\003\002\000\000\b\200\360\000\000\202\000\377\f\002&\377\377\000\000p\017\214\277\002\000\310\321\000\021!\002\002\000\355\321\002\001\002\000\000\000\310\321\000!!\002\000\000\000\322\000!\t\004.\000\377\321\001\001\006\003~\006\376\207\201\002^~~\004\376\207+Q\232}~j\376\206\267\003\210\277\032\301\006\277\201\002\000~\301\200\226\205\033\301\006\277\371\000Rh\005\006\004\006\000\000\351\321\004)\t\000\301\200\250\205\000\034\252\276*\377*\200\3103\000\000+\377+\202\000\000\000\000\025\000\006\300\000\000\000\000\220\000,2\200\002.8\200\001\256\276\200\001\254\276\177\300\214\277\030P\263\323\000\000\000\030\377\002`~A\000\000\000\200\002T~\377\000\033\260A\000!\260C\0008\260G\0009\260T\000:\260\000\017;\260\377\000\274\276\000\004\005\006\244\002X~\377\002Z~T\000\000\000\030\000\202\277~\f\376\207.~\200\211\002~\202\206+\000\000\322\"!\205\004\000\002\256\207$P\263\323\036=\002\030\"P\263\323\0349\002\030 P\263\323\0325\002\030~0\376\207+Q\224}j,\254\207\032P\263\323 A\002\030\034P\263\323\"E\002\030\036P\263\323$I\002\030\t\003`~~,\376\211y\003\210\2778\200P\334\030\000\177\b0\200P\334\030\000\177\tr\017\214\277(\200P\334\030\000\177\n\b\200P\334\030\000\177\013\020\200\\\334\030\000\177\004\000\200\\\334\030\000\177\0000\200\\\334\030\000\177\016\371\fd~+\006\004\000\371\fb~+\006\005\000~\001\220\276v\017\214\277\377\020\020&\000\000\020\000u\017\214\277\377\022\022&\000\200\000\000t\017\214\277\n\rf~s\017\214\277\n\000\310\321\013\0359\002\201\024\024h\n\r*~\200\022\224}\362f\022\000\tE\024~\362*\026\000\013E\032~\te\022\n\013c\026\n\t?\022~\013?\026~\n\023\022\n\000\000\312\320\200\020\002\000\r\027\020\n\f\000\000\3212\023\002\000\r\000\000\3211\021\002\000p\017\214\277\016\005\030~\017\005\032~\020\005\034~\021\005\036~\f\034\324}\002\000\352\320\016 \002\000j\002\202\206\002 \222\276~\001\234\276\000\005\b~\001\005\n~\002\005\f~\003\005\016~\004\000\324}\002\000\352\320\006\004\002\000\004\005\020~\005\005\022~j\002\202\206\b\b\324}\006\005\024~\007\005\026~\002j\202\206\n\f\324}\002j\202\206\002 \202\276\000\000\200\277\000\017\200\360\f\ba\000~\002\376\210\352\377\211\277\034\001\376\276~\022\376\210\335\377\211\277\020\001\376\276p\017\214\277\230\026\024 \200\024T}.\301\202\210j\002\202\206\002 \204\276~\004\220\210\220\001\210\277\377\034\022&\000\200\000\000\002\000\312\320\200\022\002\000\t\000\000\321\362f\n\000\tE\024~\te\022\n\t?\022~~\001\222\276\n\023\022\n\n\000\000\321\362*\n\000\nE\026~ \000\000\3212\023\002\000\nc\022\n\t?\022~\013\023\022\n!\000\000\3211\023\002\000\016\005\030~\017\005\032~\020\005\034~\021\005\036~\000\000\352\320\f\034\002\000\002\000\352\320\016 \002\000\000\002\200\206\000 \234\276~\001\236\276\000\005\b~\001\005\n~\002\005\f~\003\005\016~\000\000\352\320\004\000\002\000\002\000\352\320\006\004\002\000\004\005\020~\005\005\022~\000\002\202\206\000\000\352\320\b\b\002\000\006\005\024~\007\005\026~\002\000\202\206\000\000\352\320\n\f\002\000\002\000\200\206\000 \200\276\000\000\200\277\000\017\200\360 \na\000~\000\376\210\347\377\211\277\036\001\376\276~\034\376\210\331\377\211\277\022\001\376\276\000\000\315\320\200^\002\000\002\000\312\320\200^\002\000\200\002\000~\002 \204\276\007\000\210\277)]\000h\000\002\031\321\022\001\002\000\001\002\034\321\200L\n\000\000\200@\334\000\000\177\000~\004\376\207\377`\002&\377\000\000\000\006\000\255\320!\002\002\000\002\000\252\320!\002\002\000\200\001\204\276\002 \210\276\r\000\210\277p\017\214\277\210\024\002 \n\003\002(\371\024\002(\001\006\006\005\371TT}\001\202\000\006\006~\206\211\002~\202\206~\001\204\276\377\002`~C\000\000\000\006\002\206\207~\b\376\207\006 \210\276~\b\206\210\201\000\210\277\377`\002&\377\000\000\000\n\000\255\3208\002\002\000\002\000\252\3208\002\002\000\200\001\210\276 P\263\323\0325\002\030\002 \214\276\016\000\210\277p\017\214\277 \000\220\322\230\024\002\000\210\026\002  \027\004(\002\003\002(\371TT}\001\202\000\006\n~\212\211\002~\202\206~\001\210\276\377\002`~G\000\000\000\n\002\212\207~\f\376\207\n \214\276~\f\212\210I\002\210\277\377`\002&\377\000\000\000\016\000\255\3209\002\002\000\002\000\252\3209\002\002\000\200\001\214\276\"P\263\323\0349\002\030\002 \222\276\020\000\210\277p\017\214\277\002\000\217\322\220\030\002\000\220\026\002 \001\005D(\371\026\002(\001\006\006\003\001\031\002(\371TT}\001\202\000\006\016~\216\211\002~\202\206~\001\214\276\377\002`~T\000\000\000\016\002\216\207~\022\376\207\016 \222\276~\022\216\210F\002\210\277\377`\002&\377\000\000\000\036\000\255\320:\002\002\000\002\000\252\320:\002\002\000\200\001\222\276$P\263\323\036=\002\030\002 \234\276\020\000\210\277p\017\214\277\210\030\002 \002\000\220\322\230\030\002\000\371\030\002(\001\006\006\005\001\005\002(\371TT}\001\202\000\006\036~\236\211\002~\202\206~\001\222\276$\000\220\322\210\030\002\000\244\002`~\036\002\236\207~\034\376\207\036 \202\276~\002\202\210A\002\210\277\371XT}0\244\000\006\301\001\236\276$ \234\276\032\000\210\277p\017\214\277\210\032\002 \r\003\002(\371\032\002(\001\006\006\005\371TZ}\001\246\000\006\301\001\244\276& \236\276\r\003\004~\210\004\002 \377\002\002&\000\017\000\000\001\000\001\322\0027\004\004\003\000\310\321\002\021!\002\214\004\004 \002\000\001\322\002w\f\004+\000\000\322\002!\005\004~\301\244\210~\036\376\207\244\002`~$~\236\212~\034\376\207\036~\234\206\022~\222\211~\002\376\207\022 \202\276\036\002\211\277,\002\202\277~\006\376\207\004 \206\276\026\000\210\277p\017\214\277\210\024\002 \377\002\002&\000\017\000\000\002\000\310\321\n\021!\002\214\024\006 \001\000\001\322\n7\004\004\002\000\001\322\003w\b\004+\000\000\322\002!\005\004\377\002`~A\000\000\000\002~\202\211 P\263\323\0325\002\030\"P\263\323\0349\002\030$P\263\323\036=\002\030~\006\376\207\301\001\204\276\002\301\202\210\002 \222\276\210\000\210\277\000 \202\276~\002\200\210\201^^h\000#\234\276\177\000\210\277p\017\214\277\371\000\224}0\200\000\b\201\002^~\000 \236\276x\000\210\277\000\200T\334*\000\"\000\371\f\004~+\006\004\000\371\f\006~+\006\005\000\200\002^~p\017\214\277\000\005\000~\001\005\002~\200\000\002\3008\000\000\000\000\t\002\300\b\000\000\000\300\000\002\300(\000\000\000\000\003\n\3000\000\000\000@\t\002\3000\000\000\000\000\001\016\300\000\000\000\000\177\300\214\277\002\224\f\277\003\f\b~\301\200\200\205%\217\f\277\301\200\202\205$\377\244\222\016\000\016\000$\201$\201\000\000\000\321\362\b\n\000$\f\n~\000E\002~\000\005\000\n\000?\000~\006\000\000\321\362\n\n\000\001\001\000\n\006E\002~\006\007\f\n\000\000\000\321\002\001\002\000\006?\004~\001\005\002\n\001\000\000\321\003\003\002\000\000\017\200\360\000\000a\000\002\000\312\320+'\002\000p\017\214\277\001\000\310\321\003\021!\002\002\000\310\321\003!!\002\001\000\355\321\001\007\362\000\001\000\000\322\002!\005\004\301\002\\h\002 \244\2767\000\210\277\000\200H\334\026\000\177\001p\017\214\277\002\000\255\320\200\002\002\000\002 \246\276-\000\210\277\210\000\004 \377\000\006&\377\000\000\000\002\000\001\322\002w\f\004\f\217\f\277\003\000\310\321\000\021!\002\214\000\000 \002\r\004~\301\200\202\205\000\000\001\322\000w\f\004\003\000\000\321\362\b\n\000\003E\b~\003\005\006\n\000\r\000~\003?\006~\004\007\006\n\004\000\000\321\362\n\n\000\004E\n~\002\000\000\321\002\007\002\000\004\001\006\n\003?\006~\005\007\006\n\003\000\000\321\000\007\002\000\000\b\200\360\002\000a\000\377\002\002&\377\377\000\000p\017\214\277\002\000\310\321\000\021!\002\002\000\355\321\002\001\362\000\000\000\310\321\000!!\002\000\000\000\322\000!\t\004.\000\377\321\001\001\006\003~&\376\207\201\002^~\023\003V~~$\376\207~\036\376\207~\034\376\207\377\002`~A\000\000\000~\301\204\210~\022\376\207\004~\256\2060\003\022~\020#\260\276\003\376\210\277p\017\214\277\371NZ}\n\200\006\000j\301\202\210\002\000\200\206\000 \202\276(\000\210\277\210\020\000 \377\000\000&\377\000\000\000\000\000\355\321\000\021\362\000\3716\002&\b\006\005\206\001\000\000\322\001!\001\004\301\002\006h\030\006\000h\000]\004h\200\006\232}\026j\200\207\031\004\232}(j\204\207\000\004\200\206\000 \204\276\024\000\210\277\202\002\230}\000\000\303\320\032\004\002\000j\000\206\207\006 \200\276\r\000\210\277\237(*\"\002\000\217\322\203(\002\000\025\002\002~\024\004\0042\001\007\0068\000\200p\334\002\000\177\000\004\200h\334\002.\177\000\000\200T\334*\000*\030\201((h~\000\376\207~\004\376\207~\002\376\207\000\200T\334*\000\"\000q\017\214\2778\200P\334\030\000\177\0160\200P\334\030\000\177\017(\200P\334\030\000\177\020\b\200P\334\030\000\177\021~\001\262\276t\017\214\277\000\005\000~\001\005\002~\200\000\002\3008\000\000\000\300\000\002\300\b\000\000\000\000\003\002\300(\000\000\000\000\007\n\3000\000\000\000@\003\002\3000\000\000\000\000\001\016\300\000\000\000\000\177\300\214\277\002\224\f\277\f\f@~\301\200\352\205\r\217\f\277\301\200\200\205\003\377\202\222\016\000\016\000\002\201\002\201\000\000\000\321\362@\002\000\002\f*~\000E\002~\000e\000\n\000?\000~\002\000\000\321\362*\002\000\001\001\000\n\002E\002~\002c\004\n2\001\030\000\002?\000~\001\001\000\n1\001\032\000\000\001\200\360\f!\341\000\020\200\\\334\030\000\177\004\000\200\\\334\030\000\177\0000\200\\\334\030\000\177\bv\017\214\277\377\036\032&\000\200\000\000t\017\214\277\017\000\310\321\021\0359\002\201\036\036h\377\034\030&\000\000\020\000\020\r\034~\017\r\036~\000\000\312\320\200\032\002\000\r\000\000\321\362\034\002\000\017\000\000\321\362\036\002\000\rE\034~\000\000\312\320\200\030\002\000s\017\214\277\210B  \377B\"&\377\000\000\000\"\000\310\321!\021!\002\214BF !\000\001\322\020wD\004\"\000\001\322#w\210\004!\rH~\"\rF~\017E ~\rI\032\n\017G\036\n\r?\032~\017?\036~\016\033\032\n\020\037\034\n\020\000\000\321$\033\002\000\021\000\000\321#\035\002\000p\017\214\277\b\005H~\t\005J~\n\005L~\013\005N~\000\000\352\320$\020\002\000\002\000\352\320&\024\002\000\000\002\200\206\000 \264\276~\001\266\276\000\005\030~\001\005\032~\002\005\034~\003\005\036~\000\000\352\320\f\000\002\000\002\000\352\320\016\004\002\000\004\005 ~\005\005\"~\000\002\202\206\000\000\352\320\020\b\002\000\006\005$~\007\005&~\002\000\202\206\000\000\352\320\022\f\002\000\002\000\200\206\000 \200\276\000\000\200\277\000\017\200\360\020\f#\001~\000\376\210\347\377\211\2776\001\376\276~4\376\210\331\377\211\2772\001\376\276p\017\214\277\210\030\000 \377\000\000&\000\017\000\000\001\000\310\321\f\021!\002\214\030\004 \000\000\001\322\f7\000\004\001\000\001\322\002w\004\004\000\000\000\322\001!\001\004\000\000\315\320\000W\002\000\200\001\202\276\377\002\022~C\000\000\000\000 \214\276>\000\210\277\000\000\316\321\r\031b\002\210\000\004 \214\000\002 \003\000\310\321\000\021!\002\377\004\004&\000\017\000\000\001\000\001\322\001w\f\004\000\000\001\322\0007\b\004\000\000\000\322\001!\001\004\000\000\315\320\000W\002\000\200\001\202\276\377\002\022~G\000\000\000\000 \216\276'\000\210\277\000\000\316\321\016\033B\002\210\000\002 \377\002\002&\000\017\000\000\001\000\001\322\0007\004\004\002\000\310\321\000\021!\002\214\000\000 \000\000\001\322\000w\b\004\000\000\000\322\000!\005\004\001\000\316\321\017\035\"\002\210\002\004 \377\004\004&\000\017\000\000\002\000\001\322\0017\b\004\003\000\310\321\001\021!\002\214\002\002 \001\000\001\322\001w\f\004\001\000\000\322\001!\t\004\000\000\312\320\001W\002\000\002\000\312\320\000W\002\000\001\000\000\3210I\001\000\002\000\200\207\000\301\200\210\t\000\000\321\001[\n\000\000~\202\206~\016\376\207\002~\202\206~\f\376\207\301^\000h\000\000\315\320\200^\002\000/\000\000\321\200\000\002\000\000\000\312\320\200^\002\000\000 \214\276\333\374\210\277\034\217\f\277\301\200\200\205\000\000\000\321\362@\002\000\000E\002~\000I\000\n\000?\000~\200\002^~\001\001\000\n\001\000\000\321\362*\002\000\001E\004~\001G\002\n\001?\002~$\001\000\000\002\003\002\n#\003\002\000\000\b\200\360\000\000\341\000p\017\214\277\001\000\310\321\000\021!\002\002\000\310\321\000!!\002\000\000\355\321\001\001\362\000\000\000\000\322\002!\001\004\301\000\\h\275\374\202\277~\n\376\207\b \212\276\210@\002 \377\002\002&\000\017\000\000\002\000\310\321 \021!\002\214@\006 \001\000\001\322 7\004\004\002\000\001\322\003w\b\004+\000\000\322\002!\005\004\377\002`~C\000\000\000\002~\202\211$P\263\323\036=\002\030\"P\263\323\0349\002\030~\n\376\207\002~\202\206\004~\204\211~\006\376\207\004 \206\276\003\376\211\277\030\376\202\277~\016\376\207\f \216\276\210D\002 \377\002\002&\000\017\000\000\002\000\310\321\"\021!\002\214D\006 \001\000\001\322\"7\004\004\002\000\001\322\003w\b\004+\000\000\322\002!\005\004\377\002`~G\000\000\000\002~\202\211$P\263\323\036=\002\030~\016\376\207\002~\202\206\b~\210\211~\n\376\207\b \212\276\315\377\211\277\337\377\202\277~\002\376\207\022 \202\276\210H\002 \377\002\002&\000\017\000\000\002\000\310\321$\021!\002\214H\006 \001\000\001\322$7\004\004\002\000\001\322\003w\b\004+\000\000\322\002!\005\004\377\002`~T\000\000\000\034~\234\211~\002\376\207\034~\202\206\f~\214\211~\016\376\207\f \216\276\321\377\211\277\341\377\202\277\000\000\201\277\000\000\200\277\000\000\200\277\000\000\200\277\000\000\200\277\000\000\200\277\000\000\200\277\000\000\200\277\000\000\200\277\000\000\200\277\000\000\200\277\000\000\200\277\000\000\200\277\000\000\200\277\000\000\200\277\000\000\200\277\000\000\200\277\000\000\200\277\000\000\200\277\000\000\200\277\000\000\200\277\000\000\200\277\000\000\200\277\000\000\200\277\000\000\200\277\000\000\200\277\000\000\200\277\000\000\200\277\000\000\200\277\000\000\200\277\000\000\200\277\000\000\200\277\000\000\200\277\000\000\200\277\000\000\200\277\000\000\200\277\000\000\200\277\000\000\200\277\000\000\200\277\000\000\200\277\000\000\200\277\000\000\200\277\000\000\200\277\000\000\200\277\000\000\200\277\000\000\200\277\000\000\200\277\000\000\200\277\000\000\200\277\000\000\200\277\000\000\200\277\000\000\200\277\000\000\200\277\000\000\200\277\000\000\200\277\000\000\200\277\000\000\200\277\000\000\200\277\000\000\200\277\000\000\200\277\000\000\200\277\000\000\200\277\000\000\200\277\000\000\200\277\000\000\200\277\000\000\200\277\000\000\200\277\000\000\200\277\000\000\200\277\000\000\200\277\000\000\200\277\000\000\200\277\000\000\200\277\000\000\200\277\000\000\200\277\000\000\200\277\000\000\200\277\000\000\200\277\000\000\200\277\000\000\200\277\000\000\200\277\000\000\200\277\000\000\200\277\000\000\200\277\000\000\200\277\000\000\200\277\000\000\200\277\000\000\200\277\000\000\200\277\000\000\200\277\000\000\200\277\000\000\200\277\000\000\200\277\000\000\200\277\000\000\200\277\000\000\200\277\000\000\200\277\000\000\200\277\000\000\200\277\000\000\200\277\000\000\200\277\000\000\200\277\000\000\200\277\000\000\200\277\000\000\200\277\000\000\200\277\000\000\200\277\000\000\200\277\000\000\200\277\000\000\200\277\000\000\200\277\000\000\200\277\000\000\200\277\000\000\200\277\000\000\200\277\000\000\200\277\000\000\200\277\000\000\200\277\000\000\200\277\000\000\200\277\000\000\200\277\000\000\200\277\000\000\200\277\000\000\200\277\000\000\200\277\000\000\200\277\000\000\200\277\000\000\200\277\000\000\200\277\000\000\200\277\000\000\200\277\000\000\200\277\000\000\200\277\000\000\200\277\000\000\200\277\000\000\200\277\000\000\200\277\000\000\200\277\000\000\200\277\000\000\200\277\000\000\200\277\000\000\200\277\000\000\200\277\000\000\200\277\000\000\200\277\000\000\200\277\000\000\200\277\000\000\200\277\000\000\200\277\000\000\200\277\000\000\200\277\000\000\200\277\000\000\200\277\000\000\200\277\000\000\200\277\000\000\200\277\000\000\200\277\000\000\200\277\000\000\200\277\000\000\200\277\000\000\200\277\000\000\200\277\000\000\200\277\000\000\200\277\000\000\200\277\000\000\200\277\000\000\200\277\000\000\200\277\000\000\200\277\000\000\200\277\000\000\200\277\000\000\200\277\000\000\200\277\000\000\200\277\000\000\200\277\000\000\200\277\000\000\200\277\000\000\200\277\000\000\200\277\000\000\200\277\000\000\200\277\000\000\200\277\000\000\200\277\000\000\200\277\000\000\200\277\000\000\200\277\000\000\200\277\000\000\200\277\000\000\200\277\000\000\200\277\000\000\200\277\000\000\200\277\000\000\200\277\000\000\200\277\000\000\200\277\000\000\200\277\000\000\200\277\000\000\200\277\000\000\200\277\000\000\200\277\000\000\200\277\000\000\200\277\000\000\200\277\000\000\200\277\000\000\200\277\000\000\200\277\000\000\200\277\000\000\200\277\000\000\200\277\000\000\200\277\000\000\200\277\000\000\200\277\000\000\200\277\000\000\200\277\000\000\200\277\000\000\200\277\000\000\200\277\000\000\200\277\000\000\200\277\000\000\200\277\000\000\200\277\000\000\200\277\000\000\200\277\000\000\200\277\000\000\200\277\000\000\200\277\000\000\200\277\000\000\200\277\000\000\200\277\000\000\200\277\000\000\200\277\000\000\200\277\000\000\200\277\000\000\200\277\000\000\200\277\000\000\200\277\000\000\200\277\000\000\200\277\000\000\200\277\000\000\200\277\000\000\200\277\000\000\200\277\000\000\200\277\000\000\200\277\000\000\200\277\000\000\200\277\000\000\200\277\000\000\200\277\000\000\200\277\000\000\200\277\000\000\200\277\000\000\200\277\000\000\200\277\000\000\200\277\000\000\200\277\000\000\200\277\000\000\200\277\006\000\000\000\000\000\000\000`\f\000\000\000\000\000\000\013\000\000\000\000\000\000\000\030\000\000\000\000\000\000\000\005\000\000\000\000\000\000\000\230\016\000\000\000\000\000\000\n\000\000\000\000\000\000\000\271\001\000\000\000\000\000\000\365\376\377o\000\000\000\000\260\r\000\000\000\000\000\000\004\000\000\000\000\000\000\000 \016\000\000\000\000\000\000\000\000\000\000\000\000\000\000\000\000\000\000\000\000\000\000\000Linker: LLD 16.0.0\000clang version 16.0.0 (https://github.com/llvm/llvm-project 809855b56f06dd7182685f88fbbc64111df9339a)\000\000\000\000\000\000\000\000\000\000\000\000\000\000\000\000\000\000\000\000\000\000\000\000\000\000\000\000\000\000\000\000\271\001\000\000\000\002\b\000@S\000\000\000\000\000\000\000\000\000\000\000\000\000\000\001\000\000\000\022\003\007\000\000\"\000\000\000\000\000\000\210\b\000\000\000\000\000\000$\000\000\000\021\003\t\000\bd\000\000\000\000\000\000X\000\000\000\000\000\000\0000\000\000\000\021\003\t\000\260c\000\000\000\000\000\000X\000\000\000\000\000\000\0008\000\000\000\021\003\006\000\200\020\000\000\000\000\000\000@\000\000\000\000\000\000\000^\000\000\000\022\003\007\000\000+\000\000\000\000\000\000\004\000\000\000\000\000\000\000\213\000\000\000\021\003\006\000\300\020\000\000\000\000\000\000@\000\000\000\000\000\000\000\273\000\000\000\022\003\007\000\000,\000\000\000\000\000\000@\023\000\000\000\000\000\000\357\000\000\000\021\003\006\000\000\021\000\000\000\000\000\000@\000\000\000\000\000\000\000&\001\000\000\021\003\t\000`d\000\000\000\000\000\000X\000\000\000\000\000\000\000-\001\000\000\021\003\t\000\270d\000\000\000\000\000\000X\000\000\000\000\000\000\0004\001\000\000!\003\006\000@\021\000\000\000\000\000\000\001\000\000\000\000\000\000\000`\001\000\000!\003\006\000A\021\000\000\000\000\000\000\001\000\000\000\000\000\000\000\214\001\000\000!\003\006\000B\021\000\000\000\000\000\000\001\000\000\000\000\000\000\000\000.note\000.dynsym\000.gnu.hash\000.hash\000.dynstr\000.rodata\000.text\000.dynamic\000.bss\000.AMDGPU.csdata\000.comment\000.symtab\000.shstrtab\000.strtab\000\000_Z15mummergpuKernelPvPcS0_PKiS2_ii\000childrentex\000nodetex\000_Z15mummergpuKernelPvPcS0_PKiS2_ii.kd\000_Z17mummergpuRCKernelP10MatchCoordPcPKiS3_ii\000_Z17mummergpuRCKernelP10MatchCoordPcPKiS3_ii.kd\000_Z11printKernelP9MatchInfoiP9AlignmentPcPKiS5_iiiii\000_Z11printKernelP9MatchInfoiP9AlignmentPcPKiS5_iiiii.kd\000reftex\000qrytex\000_ZN17__HIP_CoordinatesI14__HIP_BlockIdxE1xE\000_ZN17__HIP_CoordinatesI14__HIP_BlockDimE1xE\000_ZN17__HIP_CoordinatesI15__HIP_ThreadIdxE1xE\000_DYNAMIC\000\000\000\000\000\000\000\000\000\000\000\000\000\000\000\000\000\000\000\000\000\000\000\000\000\000\000\000\000\000\000\000\000\000\000\000\000\000\000\000\000\000\000\000\000\000\000\000\000\000\000\000\000\000\000\000\000\000\000\000\000\000\000\000\000\000\001\000\000\000\007\000\000\000\002\000\000\000\000\000\000\0008\002\000\000\000\000\000\0008\002\000\000\000\000\000\000$\n\000\000\000\000\000\000\000\000\000\000\000\000\000\000\004\000\000\000\000\000\000\000\000\000\000\000\000\000\000\000\007\000\000\000\013\000\000\000\002\000\000\000\000\000\000\000`\f\000\000\000\000\000\000`\f\000\000\000\000\000\000P\001\000\000\000\000\000\000\005\000\000\000\001\000\000\000\b\000\000\000\000\000\000\000\030\000\000\000\000\000\000\000\017\000\000\000\366\377\377o\002\000\000\000\000\000\000\000\260\r\000\000\000\000\000\000\260\r\000\000\000\000\000\000p\000\000\000\000\000\000\000\002\000\000\000\000\000\000\000\b\000\000\000\000\000\000\000\000\000\000\000\000\000\000\000\031\000\000\000\005\000\000\000\002\000\000\000\000\000\000\000 \016\000\000\000\000\000\000 \016\000\000\000\000\000\000x\000\000\000\000\000\000\000\002\000\000\000\000\000\000\000\004\000\000\000\000\000\000\000\004\000\000\000\000\000\000\000\037\000\000\000\003\000\000\000\002\000\000\000\000\000\000\000\230\016\000\000\000\000\000\000\230\016\000\000\000\000\000\000\271\001\000\000\000\000\000\000\000\000\000\000\000\000\000\000\001\000\000\000\000\000\000\000\000\000\000\000\000\000\000\000'\000\000\000\001\000\000\000\002\000\000\000\000\000\000\000\200\020\000\000\000\000\000\000\200\020\000\000\000\000\000\000\303\000\000\000\000\000\000\000\000\000\000\000\000\000\000\000@\000\000\000\000\000\000\000\000\000\000\000\000\000\000\000/\000\000\000\001\000\000\000\006\000\000\000\000\000\000\000\000\"\000\000\000\000\000\000\000\022\000\000\000\000\000\000@!\000\000\000\000\000\000\000\000\000\000\000\000\000\000\000\001\000\000\000\000\000\000\000\000\000\000\000\000\000\0005\000\000\000\006\000\000\000\003\000\000\000\000\000\000\000@S\000\000\000\000\000\000@3\000\000\000\000\000\000p\000\000\000\000\000\000\000\005\000\000\000\000\000\000\000\b\000\000\000\000\000\000\000\020\000\000\000\000\000\000\000>\000\000\000\b\000\000\000\003\000\000\000\000\000\000\000\260c\000\000\000\000\000\000\2603\000\000\000\000\000\000`\001\000\000\000\000\000\000\000\000\000\000\000\000\000\000\b\000\000\000\000\000\000\000\000\000\000\000\000\000\000\000C\000\000\000\001\000\000\000\000\000\000\000\000\000\000\000\000\000\000\000\000\000\000\000\2603\000\000\000\000\000\000\000\000\000\000\000\000\000\000\000\000\000\000\000\000\000\000\001\000\000\000\000\000\000\000\000\000\000\000\000\000\000\000R\000\000\000\001\000\000\0000\000\000\000\000\000\000\000\000\000\000\000\000\000\000\000\2603\000\000\000\000\000\000y\000\000\000\000\000\000\000\000\000\000\000\000\000\000\000\001\000\000\000\000\000\000\000\001\000\000\000\000\000\000\000[\000\000\000\002\000\000\000\000\000\000\000\000\000\000\000\000\000\000\000\000\000\000\00004\000\000\000\000\000\000h\001\000\000\000\000\000\000\016\000\000\000\002\000\000\000\b\000\000\000\000\000\000\000\030\000\000\000\000\000\000\000c\000\000\000\003\000\000\000\000\000\000\000\000\000\000\000\000\000\000\000\000\000\000\000\2305\000\000\000\000\000\000u\000\000\000\000\000\000\000\000\000\000\000\000\000\000\000\001\000\000\000\000\000\000\000\000\000\000\000\000\000\000\000m\000\000\000\003\000\000\000\000\000\000\000\000\000\000\000\000\000\000\000\000\000\000\000\r6\000\000\000\000\000\000\302\001\000\000\000\000\000\000\000\000\000\000\000\000\000\000\001\000\000\000\000\000\000\000\000\000\000\000\000\000\000\000"
	.size	.L__unnamed_8, 19345

	.type	__hip_fatbin_wrapper,@object    # @__hip_fatbin_wrapper
	.section	.hipFatBinSegment,"aw",@progbits
	.p2align	3
__hip_fatbin_wrapper:
	.long	1212764230                      # 0x48495046
	.long	1                               # 0x1
	.quad	.L__unnamed_8
	.quad	0
	.size	__hip_fatbin_wrapper, 24

	.type	__hip_gpubin_handle,@object     # @__hip_gpubin_handle
	.local	__hip_gpubin_handle
	.comm	__hip_gpubin_handle,8,8
	.section	.init_array,"aw",@init_array
	.p2align	3
	.quad	_GLOBAL__sub_I_mummergpu_kernel.cu
	.quad	__hip_module_ctor
	.ident	"clang version 16.0.0 (https://github.com/llvm/llvm-project 809855b56f06dd7182685f88fbbc64111df9339a)"
	.section	".note.GNU-stack","",@progbits
	.addrsig
	.addrsig_sym _Z30__device_stub__mummergpuKernelPvPcS0_PKiS2_ii
	.addrsig_sym _Z32__device_stub__mummergpuRCKernelP10MatchCoordPcPKiS3_ii
	.addrsig_sym _Z26__device_stub__printKernelP9MatchInfoiP9AlignmentPcPKiS5_iiiii
	.addrsig_sym _GLOBAL__sub_I_mummergpu_kernel.cu
	.addrsig_sym __hip_module_ctor
	.addrsig_sym __hip_module_dtor
	.addrsig_sym nodetex
	.addrsig_sym childrentex
	.addrsig_sym reftex
	.addrsig_sym qrytex
	.addrsig_sym _Z15mummergpuKernelPvPcS0_PKiS2_ii
	.addrsig_sym _Z17mummergpuRCKernelP10MatchCoordPcPKiS3_ii
	.addrsig_sym _Z11printKernelP9MatchInfoiP9AlignmentPcPKiS5_iiiii
	.addrsig_sym .L__unnamed_8
	.addrsig_sym __hip_fatbin_wrapper
