; ModuleID = 'mummergpu_kernel-host-x86_64-unknown-linux-gnu.bc'
source_filename = "mummergpu_kernel.cu"
target datalayout = "e-m:e-p270:32:32-p271:32:32-p272:64:64-i64:64-f80:128-n8:16:32:64-S128"
target triple = "x86_64-unknown-linux-gnu"

%struct.texture = type { %struct.textureReference }
%struct.textureReference = type { i32, i32, i32, [3 x i32], %struct.hipChannelFormatDesc, i32, i32, i32, float, float, float, ptr, i32, i32 }
%struct.hipChannelFormatDesc = type { i32, i32, i32, i32, i32 }
%struct.texture.0 = type { %struct.textureReference }
%struct.dim3 = type { i32, i32, i32 }

$_ZN7textureI15HIP_vector_typeIjLj4EELi2EL18hipTextureReadMode0EEC2Ei20hipTextureFilterMode21hipTextureAddressMode = comdat any

$_ZN7textureIcLi1EL18hipTextureReadMode0EEC2Ei20hipTextureFilterMode21hipTextureAddressMode = comdat any

@nodetex = internal global %struct.texture zeroinitializer, align 8
@childrentex = internal global %struct.texture zeroinitializer, align 8
@reftex = internal global %struct.texture.0 zeroinitializer, align 8
@qrytex = internal global %struct.texture.0 zeroinitializer, align 8
@_Z15mummergpuKernelPvPcS0_PKiS2_ii = constant ptr @_Z30__device_stub__mummergpuKernelPvPcS0_PKiS2_ii, align 8
@_Z17mummergpuRCKernelP10MatchCoordPcPKiS3_ii = constant ptr @_Z32__device_stub__mummergpuRCKernelP10MatchCoordPcPKiS3_ii, align 8
@_Z11printKernelP9MatchInfoiP9AlignmentPcPKiS5_iiiii = constant ptr @_Z26__device_stub__printKernelP9MatchInfoiP9AlignmentPcPKiS5_iiiii, align 8
@0 = private unnamed_addr constant [35 x i8] c"_Z15mummergpuKernelPvPcS0_PKiS2_ii\00", align 1
@1 = private unnamed_addr constant [45 x i8] c"_Z17mummergpuRCKernelP10MatchCoordPcPKiS3_ii\00", align 1
@2 = private unnamed_addr constant [52 x i8] c"_Z11printKernelP9MatchInfoiP9AlignmentPcPKiS5_iiiii\00", align 1
@3 = private unnamed_addr constant [8 x i8] c"nodetex\00", align 1
@4 = private unnamed_addr constant [12 x i8] c"childrentex\00", align 1
@5 = private unnamed_addr constant [7 x i8] c"reftex\00", align 1
@6 = private unnamed_addr constant [7 x i8] c"qrytex\00", align 1
@7 = private constant [19345 x i8] c"__CLANG_OFFLOAD_BUNDLE__\02\00\00\00\00\00\00\00\00\10\00\00\00\00\00\00\00\00\00\00\00\00\00\00\19\00\00\00\00\00\00\00host-x86_64-unknown-linux\00\10\00\00\00\00\00\00\90;\00\00\00\00\00\00\1F\00\00\00\00\00\00\00hipv4-amdgcn-amd-amdhsa--gfx90a\00\00\00\00\00\00\00\00\00\00\00\00\00\00\00\00\00\00\00\00\00\00\00\00\00\00\00\00\00\00\00\00\00\00\00\00\00\00\00\00\00\00\00\00\00\00\00\00\00\00\00\00\00\00\00\00\00\00\00\00\00\00\00\00\00\00\00\00\00\00\00\00\00\00\00\00\00\00\00\00\00\00\00\00\00\00\00\00\00\00\00\00\00\00\00\00\00\00\00\00\00\00\00\00\00\00\00\00\00\00\00\00\00\00\00\00\00\00\00\00\00\00\00\00\00\00\00\00\00\00\00\00\00\00\00\00\00\00\00\00\00\00\00\00\00\00\00\00\00\00\00\00\00\00\00\00\00\00\00\00\00\00\00\00\00\00\00\00\00\00\00\00\00\00\00\00\00\00\00\00\00\00\00\00\00\00\00\00\00\00\00\00\00\00\00\00\00\00\00\00\00\00\00\00\00\00\00\00\00\00\00\00\00\00\00\00\00\00\00\00\00\00\00\00\00\00\00\00\00\00\00\00\00\00\00\00\00\00\00\00\00\00\00\00\00\00\00\00\00\00\00\00\00\00\00\00\00\00\00\00\00\00\00\00\00\00\00\00\00\00\00\00\00\00\00\00\00\00\00\00\00\00\00\00\00\00\00\00\00\00\00\00\00\00\00\00\00\00\00\00\00\00\00\00\00\00\00\00\00\00\00\00\00\00\00\00\00\00\00\00\00\00\00\00\00\00\00\00\00\00\00\00\00\00\00\00\00\00\00\00\00\00\00\00\00\00\00\00\00\00\00\00\00\00\00\00\00\00\00\00\00\00\00\00\00\00\00\00\00\00\00\00\00\00\00\00\00\00\00\00\00\00\00\00\00\00\00\00\00\00\00\00\00\00\00\00\00\00\00\00\00\00\00\00\00\00\00\00\00\00\00\00\00\00\00\00\00\00\00\00\00\00\00\00\00\00\00\00\00\00\00\00\00\00\00\00\00\00\00\00\00\00\00\00\00\00\00\00\00\00\00\00\00\00\00\00\00\00\00\00\00\00\00\00\00\00\00\00\00\00\00\00\00\00\00\00\00\00\00\00\00\00\00\00\00\00\00\00\00\00\00\00\00\00\00\00\00\00\00\00\00\00\00\00\00\00\00\00\00\00\00\00\00\00\00\00\00\00\00\00\00\00\00\00\00\00\00\00\00\00\00\00\00\00\00\00\00\00\00\00\00\00\00\00\00\00\00\00\00\00\00\00\00\00\00\00\00\00\00\00\00\00\00\00\00\00\00\00\00\00\00\00\00\00\00\00\00\00\00\00\00\00\00\00\00\00\00\00\00\00\00\00\00\00\00\00\00\00\00\00\00\00\00\00\00\00\00\00\00\00\00\00\00\00\00\00\00\00\00\00\00\00\00\00\00\00\00\00\00\00\00\00\00\00\00\00\00\00\00\00\00\00\00\00\00\00\00\00\00\00\00\00\00\00\00\00\00\00\00\00\00\00\00\00\00\00\00\00\00\00\00\00\00\00\00\00\00\00\00\00\00\00\00\00\00\00\00\00\00\00\00\00\00\00\00\00\00\00\00\00\00\00\00\00\00\00\00\00\00\00\00\00\00\00\00\00\00\00\00\00\00\00\00\00\00\00\00\00\00\00\00\00\00\00\00\00\00\00\00\00\00\00\00\00\00\00\00\00\00\00\00\00\00\00\00\00\00\00\00\00\00\00\00\00\00\00\00\00\00\00\00\00\00\00\00\00\00\00\00\00\00\00\00\00\00\00\00\00\00\00\00\00\00\00\00\00\00\00\00\00\00\00\00\00\00\00\00\00\00\00\00\00\00\00\00\00\00\00\00\00\00\00\00\00\00\00\00\00\00\00\00\00\00\00\00\00\00\00\00\00\00\00\00\00\00\00\00\00\00\00\00\00\00\00\00\00\00\00\00\00\00\00\00\00\00\00\00\00\00\00\00\00\00\00\00\00\00\00\00\00\00\00\00\00\00\00\00\00\00\00\00\00\00\00\00\00\00\00\00\00\00\00\00\00\00\00\00\00\00\00\00\00\00\00\00\00\00\00\00\00\00\00\00\00\00\00\00\00\00\00\00\00\00\00\00\00\00\00\00\00\00\00\00\00\00\00\00\00\00\00\00\00\00\00\00\00\00\00\00\00\00\00\00\00\00\00\00\00\00\00\00\00\00\00\00\00\00\00\00\00\00\00\00\00\00\00\00\00\00\00\00\00\00\00\00\00\00\00\00\00\00\00\00\00\00\00\00\00\00\00\00\00\00\00\00\00\00\00\00\00\00\00\00\00\00\00\00\00\00\00\00\00\00\00\00\00\00\00\00\00\00\00\00\00\00\00\00\00\00\00\00\00\00\00\00\00\00\00\00\00\00\00\00\00\00\00\00\00\00\00\00\00\00\00\00\00\00\00\00\00\00\00\00\00\00\00\00\00\00\00\00\00\00\00\00\00\00\00\00\00\00\00\00\00\00\00\00\00\00\00\00\00\00\00\00\00\00\00\00\00\00\00\00\00\00\00\00\00\00\00\00\00\00\00\00\00\00\00\00\00\00\00\00\00\00\00\00\00\00\00\00\00\00\00\00\00\00\00\00\00\00\00\00\00\00\00\00\00\00\00\00\00\00\00\00\00\00\00\00\00\00\00\00\00\00\00\00\00\00\00\00\00\00\00\00\00\00\00\00\00\00\00\00\00\00\00\00\00\00\00\00\00\00\00\00\00\00\00\00\00\00\00\00\00\00\00\00\00\00\00\00\00\00\00\00\00\00\00\00\00\00\00\00\00\00\00\00\00\00\00\00\00\00\00\00\00\00\00\00\00\00\00\00\00\00\00\00\00\00\00\00\00\00\00\00\00\00\00\00\00\00\00\00\00\00\00\00\00\00\00\00\00\00\00\00\00\00\00\00\00\00\00\00\00\00\00\00\00\00\00\00\00\00\00\00\00\00\00\00\00\00\00\00\00\00\00\00\00\00\00\00\00\00\00\00\00\00\00\00\00\00\00\00\00\00\00\00\00\00\00\00\00\00\00\00\00\00\00\00\00\00\00\00\00\00\00\00\00\00\00\00\00\00\00\00\00\00\00\00\00\00\00\00\00\00\00\00\00\00\00\00\00\00\00\00\00\00\00\00\00\00\00\00\00\00\00\00\00\00\00\00\00\00\00\00\00\00\00\00\00\00\00\00\00\00\00\00\00\00\00\00\00\00\00\00\00\00\00\00\00\00\00\00\00\00\00\00\00\00\00\00\00\00\00\00\00\00\00\00\00\00\00\00\00\00\00\00\00\00\00\00\00\00\00\00\00\00\00\00\00\00\00\00\00\00\00\00\00\00\00\00\00\00\00\00\00\00\00\00\00\00\00\00\00\00\00\00\00\00\00\00\00\00\00\00\00\00\00\00\00\00\00\00\00\00\00\00\00\00\00\00\00\00\00\00\00\00\00\00\00\00\00\00\00\00\00\00\00\00\00\00\00\00\00\00\00\00\00\00\00\00\00\00\00\00\00\00\00\00\00\00\00\00\00\00\00\00\00\00\00\00\00\00\00\00\00\00\00\00\00\00\00\00\00\00\00\00\00\00\00\00\00\00\00\00\00\00\00\00\00\00\00\00\00\00\00\00\00\00\00\00\00\00\00\00\00\00\00\00\00\00\00\00\00\00\00\00\00\00\00\00\00\00\00\00\00\00\00\00\00\00\00\00\00\00\00\00\00\00\00\00\00\00\00\00\00\00\00\00\00\00\00\00\00\00\00\00\00\00\00\00\00\00\00\00\00\00\00\00\00\00\00\00\00\00\00\00\00\00\00\00\00\00\00\00\00\00\00\00\00\00\00\00\00\00\00\00\00\00\00\00\00\00\00\00\00\00\00\00\00\00\00\00\00\00\00\00\00\00\00\00\00\00\00\00\00\00\00\00\00\00\00\00\00\00\00\00\00\00\00\00\00\00\00\00\00\00\00\00\00\00\00\00\00\00\00\00\00\00\00\00\00\00\00\00\00\00\00\00\00\00\00\00\00\00\00\00\00\00\00\00\00\00\00\00\00\00\00\00\00\00\00\00\00\00\00\00\00\00\00\00\00\00\00\00\00\00\00\00\00\00\00\00\00\00\00\00\00\00\00\00\00\00\00\00\00\00\00\00\00\00\00\00\00\00\00\00\00\00\00\00\00\00\00\00\00\00\00\00\00\00\00\00\00\00\00\00\00\00\00\00\00\00\00\00\00\00\00\00\00\00\00\00\00\00\00\00\00\00\00\00\00\00\00\00\00\00\00\00\00\00\00\00\00\00\00\00\00\00\00\00\00\00\00\00\00\00\00\00\00\00\00\00\00\00\00\00\00\00\00\00\00\00\00\00\00\00\00\00\00\00\00\00\00\00\00\00\00\00\00\00\00\00\00\00\00\00\00\00\00\00\00\00\00\00\00\00\00\00\00\00\00\00\00\00\00\00\00\00\00\00\00\00\00\00\00\00\00\00\00\00\00\00\00\00\00\00\00\00\00\00\00\00\00\00\00\00\00\00\00\00\00\00\00\00\00\00\00\00\00\00\00\00\00\00\00\00\00\00\00\00\00\00\00\00\00\00\00\00\00\00\00\00\00\00\00\00\00\00\00\00\00\00\00\00\00\00\00\00\00\00\00\00\00\00\00\00\00\00\00\00\00\00\00\00\00\00\00\00\00\00\00\00\00\00\00\00\00\00\00\00\00\00\00\00\00\00\00\00\00\00\00\00\00\00\00\00\00\00\00\00\00\00\00\00\00\00\00\00\00\00\00\00\00\00\00\00\00\00\00\00\00\00\00\00\00\00\00\00\00\00\00\00\00\00\00\00\00\00\00\00\00\00\00\00\00\00\00\00\00\00\00\00\00\00\00\00\00\00\00\00\00\00\00\00\00\00\00\00\00\00\00\00\00\00\00\00\00\00\00\00\00\00\00\00\00\00\00\00\00\00\00\00\00\00\00\00\00\00\00\00\00\00\00\00\00\00\00\00\00\00\00\00\00\00\00\00\00\00\00\00\00\00\00\00\00\00\00\00\00\00\00\00\00\00\00\00\00\00\00\00\00\00\00\00\00\00\00\00\00\00\00\00\00\00\00\00\00\00\00\00\00\00\00\00\00\00\00\00\00\00\00\00\00\00\00\00\00\00\00\00\00\00\00\00\00\00\00\00\00\00\00\00\00\00\00\00\00\00\00\00\00\00\00\00\00\00\00\00\00\00\00\00\00\00\00\00\00\00\00\00\00\00\00\00\00\00\00\00\00\00\00\00\00\00\00\00\00\00\00\00\00\00\00\00\00\00\00\00\00\00\00\00\00\00\00\00\00\00\00\00\00\00\00\00\00\00\00\00\00\00\00\00\00\00\00\00\00\00\00\00\00\00\00\00\00\00\00\00\00\00\00\00\00\00\00\00\00\00\00\00\00\00\00\00\00\00\00\00\00\00\00\00\00\00\00\00\00\00\00\00\00\00\00\00\00\00\00\00\00\00\00\00\00\00\00\00\00\00\00\00\00\00\00\00\00\00\00\00\00\00\00\00\00\00\00\00\00\00\00\00\00\00\00\00\00\00\00\00\00\00\00\00\00\00\00\00\00\00\00\00\00\00\00\00\00\00\00\00\00\00\00\00\00\00\00\00\00\00\00\00\00\00\00\00\00\00\00\00\00\00\00\00\00\00\00\00\00\00\00\00\00\00\00\00\00\00\00\00\00\00\00\00\00\00\00\00\00\00\00\00\00\00\00\00\00\00\00\00\00\00\00\00\00\00\00\00\00\00\00\00\00\00\00\00\00\00\00\00\00\00\00\00\00\00\00\00\00\00\00\00\00\00\00\00\00\00\00\00\00\00\00\00\00\00\00\00\00\00\00\00\00\00\00\00\00\00\00\00\00\00\00\00\00\00\00\00\00\00\00\00\00\00\00\00\00\00\00\00\00\00\00\00\00\00\00\00\00\00\00\00\00\00\00\00\00\00\00\00\00\00\00\00\00\00\00\00\00\00\00\00\00\00\00\00\00\00\00\00\00\00\00\00\00\00\00\00\00\00\00\00\00\00\00\00\00\00\00\00\00\00\00\00\00\00\00\00\00\00\00\00\00\00\00\00\00\00\00\00\00\00\00\00\00\00\00\00\00\00\00\00\00\00\00\00\00\00\00\00\00\00\00\00\00\00\00\00\00\00\00\00\00\00\00\00\00\00\00\00\00\00\00\00\00\00\00\00\00\00\00\00\00\00\00\00\00\00\00\00\00\00\00\00\00\00\00\00\00\00\00\00\00\00\00\00\00\00\00\00\00\00\00\00\00\00\00\00\00\00\00\00\00\00\00\00\00\00\00\00\00\00\00\00\00\00\00\00\00\00\00\00\00\00\00\00\00\00\00\00\00\00\00\00\00\00\00\00\00\00\00\00\00\00\00\00\00\00\00\00\00\00\00\00\00\00\00\00\00\00\00\00\00\00\00\00\00\00\00\00\00\00\00\00\00\00\00\00\00\00\00\00\00\00\00\00\00\00\00\00\00\00\00\00\00\00\00\00\00\00\00\00\00\00\00\00\00\00\00\00\00\00\00\00\00\00\00\00\00\00\00\00\00\00\00\00\00\00\00\00\00\00\00\00\00\00\00\00\00\00\00\00\00\00\00\00\00\00\00\00\00\00\00\00\00\00\00\00\00\00\00\00\00\00\00\00\00\00\00\00\00\00\00\00\00\00\00\00\00\00\00\00\00\00\00\00\00\00\00\00\00\00\00\00\00\00\00\00\00\00\00\00\00\00\00\00\00\00\00\00\00\00\00\00\00\00\00\00\00\00\00\00\00\00\00\00\00\00\00\00\00\00\00\00\00\00\00\00\00\00\00\00\00\00\00\00\00\00\00\00\00\00\00\00\00\00\00\00\00\00\00\00\00\00\00\00\00\00\00\00\00\00\00\00\00\00\00\00\00\00\00\00\00\00\00\00\00\00\00\00\00\00\00\00\00\00\00\00\00\00\00\00\00\00\00\00\00\00\00\00\00\00\00\00\00\00\00\00\00\00\00\00\00\00\00\00\00\00\00\00\00\00\00\00\00\00\00\00\00\00\00\00\00\00\00\00\00\00\00\00\00\00\00\00\00\00\00\00\00\00\00\00\00\00\00\00\00\00\00\00\00\00\00\00\00\00\00\00\00\00\00\00\00\00\00\00\00\00\00\00\00\00\00\00\00\00\00\00\00\00\00\00\00\00\00\00\00\00\00\00\00\00\00\00\00\00\00\00\00\00\00\00\00\00\00\00\00\00\00\00\00\00\00\00\00\00\00\00\00\00\00\00\00\00\00\00\00\00\00\00\00\00\00\00\00\00\00\00\00\00\00\00\00\00\00\00\00\00\00\00\00\00\00\00\00\00\00\00\00\00\00\00\00\00\00\00\00\00\00\00\00\00\00\00\00\00\00\00\00\00\00\00\00\00\00\00\00\00\00\00\00\00\00\00\00\00\00\00\00\00\00\00\00\00\00\00\00\00\00\00\00\00\00\00\00\00\00\00\00\00\00\00\00\00\00\00\00\00\00\00\00\00\00\00\00\00\00\00\00\00\00\00\00\00\00\00\00\00\00\00\00\00\00\00\00\00\00\00\00\00\00\00\00\00\00\00\00\00\00\00\00\00\00\00\00\00\00\00\00\00\00\00\00\00\00\00\00\00\00\00\00\00\00\00\00\00\00\00\00\00\00\00\00\00\00\00\00\00\00\00\00\00\00\00\00\00\00\00\00\00\00\00\00\00\00\00\00\00\00\00\00\00\00\00\00\00\00\00\00\00\00\00\00\00\00\00\00\00\00\00\00\00\00\00\00\00\00\00\00\00\00\00\00\00\00\00\00\00\00\00\00\00\00\00\00\00\00\00\00\00\00\00\00\00\00\00\00\00\00\00\00\00\00\00\00\00\00\00\00\00\00\00\00\00\00\00\00\00\00\00\00\00\00\00\00\00\00\00\00\00\00\00\00\00\00\00\00\00\00\00\00\00\00\00\00\00\00\00\00\00\00\00\00\00\00\00\00\00\00\00\00\00\00\00\00\00\00\00\00\00\00\00\00\00\00\00\00\00\00\00\00\00\00\00\00\00\00\00\00\00\00\00\00\00\00\00\00\00\00\00\00\00\00\00\00\00\00\00\00\00\00\00\00\00\00\00\00\00\00\00\00\00\00\00\00\00\00\00\00\00\00\00\00\00\00\00\00\00\00\00\00\00\00\00\00\00\00\00\00\00\00\00\00\00\00\00\00\00\00\00\00\00\00\00\00\00\00\00\00\00\00\00\00\00\00\00\00\00\00\00\00\00\00\00\00\00\00\00\00\00\00\00\00\00\00\00\00\00\00\00\00\00\00\00\00\00\00\00\00\00\00\00\00\00\00\00\00\00\00\00\00\00\00\00\00\00\00\00\00\00\00\00\00\00\00\00\00\00\00\00\00\00\00\00\00\00\00\00\00\00\00\00\00\00\00\00\00\00\00\00\00\00\00\00\00\00\00\00\00\00\00\00\00\00\00\00\00\00\00\00\00\00\00\00\00\00\00\00\00\00\00\00\00\00\00\00\00\00\00\00\00\00\00\00\00\00\00\00\00\00\00\00\00\00\00\00\00\00\00\00\00\00\00\00\00\00\00\00\00\00\00\00\00\00\00\00\00\00\00\00\00\00\00\00\00\00\00\00\00\00\00\00\00\00\00\00\00\00\00\00\00\00\00\00\00\00\00\00\00\00\00\00\00\00\00\00\00\00\00\00\00\00\00\00\00\00\00\00\00\00\00\00\00\00\00\00\00\00\00\00\00\00\00\00\00\00\00\00\00\00\00\00\00\00\00\00\00\00\00\00\00\00\00\00\00\00\00\00\00\00\00\7FELF\02\01\01@\02\00\00\00\00\00\00\00\03\00\E0\00\01\00\00\00\00\00\00\00\00\00\00\00@\00\00\00\00\00\00\00\D07\00\00\00\00\00\00?\05\00\00@\008\00\09\00@\00\0F\00\0D\00\06\00\00\00\04\00\00\00@\00\00\00\00\00\00\00@\00\00\00\00\00\00\00@\00\00\00\00\00\00\00\F8\01\00\00\00\00\00\00\F8\01\00\00\00\00\00\00\08\00\00\00\00\00\00\00\01\00\00\00\04\00\00\00\00\00\00\00\00\00\00\00\00\00\00\00\00\00\00\00\00\00\00\00\00\00\00\00C\11\00\00\00\00\00\00C\11\00\00\00\00\00\00\00\10\00\00\00\00\00\00\01\00\00\00\05\00\00\00\00\12\00\00\00\00\00\00\00\22\00\00\00\00\00\00\00\22\00\00\00\00\00\00@!\00\00\00\00\00\00@!\00\00\00\00\00\00\00\10\00\00\00\00\00\00\01\00\00\00\06\00\00\00@3\00\00\00\00\00\00@S\00\00\00\00\00\00@S\00\00\00\00\00\00p\00\00\00\00\00\00\00p\00\00\00\00\00\00\00\00\10\00\00\00\00\00\00\01\00\00\00\06\00\00\00\B03\00\00\00\00\00\00\B0c\00\00\00\00\00\00\B0c\00\00\00\00\00\00\00\00\00\00\00\00\00\00`\01\00\00\00\00\00\00\00\10\00\00\00\00\00\00\02\00\00\00\06\00\00\00@3\00\00\00\00\00\00@S\00\00\00\00\00\00@S\00\00\00\00\00\00p\00\00\00\00\00\00\00p\00\00\00\00\00\00\00\08\00\00\00\00\00\00\00R\E5td\04\00\00\00@3\00\00\00\00\00\00@S\00\00\00\00\00\00@S\00\00\00\00\00\00p\00\00\00\00\00\00\00\C0\0C\00\00\00\00\00\00\01\00\00\00\00\00\00\00Q\E5td\06\00\00\00\00\00\00\00\00\00\00\00\00\00\00\00\00\00\00\00\00\00\00\00\00\00\00\00\00\00\00\00\00\00\00\00\00\00\00\00\00\00\00\00\00\00\00\00\00\00\00\00\04\00\00\00\04\00\00\008\02\00\00\00\00\00\008\02\00\00\00\00\00\008\02\00\00\00\00\00\00$\0A\00\00\00\00\00\00$\0A\00\00\00\00\00\00\04\00\00\00\00\00\00\00\07\00\00\00\0E\0A\00\00 \00\00\00AMDGPU\00\00\83\AEamdhsa.kernels\93\DE\00\11\AB.agpr_count\00\A5.args\97\84\AE.address_space\A6global\A7.offset\00\A5.size\08\AB.value_kind\ADglobal_buffer\84\AE.address_space\A6global\A7.offset\08\A5.size\08\AB.value_kind\ADglobal_buffer\84\AE.address_space\A6global\A7.offset\10\A5.size\08\AB.value_kind\ADglobal_buffer\84\AE.address_space\A6global\A7.offset\18\A5.size\08\AB.value_kind\ADglobal_buffer\84\AE.address_space\A6global\A7.offset \A5.size\08\AB.value_kind\ADglobal_buffer\83\A7.offset(\A5.size\04\AB.value_kind\A8by_value\83\A7.offset,\A5.size\04\AB.value_kind\A8by_value\B9.group_segment_fixed_size\00\B6.kernarg_segment_align\08\B5.kernarg_segment_size0\A9.language\A8OpenCL C\B1.language_version\92\02\00\B8.max_flat_workgroup_size\CD\04\00\A5.name\D9\22_Z15mummergpuKernelPvPcS0_PKiS2_ii\BB.private_segment_fixed_size\00\AB.sgpr_count/\B1.sgpr_spill_count\00\A7.symbol\D9%_Z15mummergpuKernelPvPcS0_PKiS2_ii.kd\B3.uses_dynamic_stack\C2\AB.vgpr_count&\B1.vgpr_spill_count\00\AF.wavefront_size@\DE\00\11\AB.agpr_count\00\A5.args\96\84\AE.address_space\A6global\A7.offset\00\A5.size\08\AB.value_kind\ADglobal_buffer\84\AE.address_space\A6global\A7.offset\08\A5.size\08\AB.value_kind\ADglobal_buffer\84\AE.address_space\A6global\A7.offset\10\A5.size\08\AB.value_kind\ADglobal_buffer\84\AE.address_space\A6global\A7.offset\18\A5.size\08\AB.value_kind\ADglobal_buffer\83\A7.offset \A5.size\04\AB.value_kind\A8by_value\83\A7.offset$\A5.size\04\AB.value_kind\A8by_value\B9.group_segment_fixed_size\00\B6.kernarg_segment_align\08\B5.kernarg_segment_size(\A9.language\A8OpenCL C\B1.language_version\92\02\00\B8.max_flat_workgroup_size\CD\04\00\A5.name\D9,_Z17mummergpuRCKernelP10MatchCoordPcPKiS3_ii\BB.private_segment_fixed_size\00\AB.sgpr_count\00\B1.sgpr_spill_count\00\A7.symbol\D9/_Z17mummergpuRCKernelP10MatchCoordPcPKiS3_ii.kd\B3.uses_dynamic_stack\C2\AB.vgpr_count\00\B1.vgpr_spill_count\00\AF.wavefront_size@\DE\00\11\AB.agpr_count\00\A5.args\9B\84\AE.address_space\A6global\A7.offset\00\A5.size\08\AB.value_kind\ADglobal_buffer\83\A7.offset\08\A5.size\04\AB.value_kind\A8by_value\84\AE.address_space\A6global\A7.offset\10\A5.size\08\AB.value_kind\ADglobal_buffer\84\AE.address_space\A6global\A7.offset\18\A5.size\08\AB.value_kind\ADglobal_buffer\84\AE.address_space\A6global\A7.offset \A5.size\08\AB.value_kind\ADglobal_buffer\84\AE.address_space\A6global\A7.offset(\A5.size\08\AB.value_kind\ADglobal_buffer\83\A7.offset0\A5.size\04\AB.value_kind\A8by_value\83\A7.offset4\A5.size\04\AB.value_kind\A8by_value\83\A7.offset8\A5.size\04\AB.value_kind\A8by_value\83\A7.offset<\A5.size\04\AB.value_kind\A8by_value\83\A7.offset@\A5.size\04\AB.value_kind\A8by_value\B9.group_segment_fixed_size\00\B6.kernarg_segment_align\08\B5.kernarg_segment_sizeD\A9.language\A8OpenCL C\B1.language_version\92\02\00\B8.max_flat_workgroup_size\CD\04\00\A5.name\D93_Z11printKernelP9MatchInfoiP9AlignmentPcPKiS5_iiiii\BB.private_segment_fixed_size\00\AB.sgpr_count?\B1.sgpr_spill_count\00\A7.symbol\D96_Z11printKernelP9MatchInfoiP9AlignmentPcPKiS5_iiiii.kd\B3.uses_dynamic_stack\C2\AB.vgpr_count4\B1.vgpr_spill_count\00\AF.wavefront_size@\ADamdhsa.target\B9amdgcn-amd-amdhsa--gfx90a\AEamdhsa.version\92\01\01\00\00\00\00\00\00\00\00\00\00\00\00\00\00\00\00\00\00\00\00\00\00\00\00\00\00\00\00\00\00\8B\00\00\00\11\03\06\00\C0\10\00\00\00\00\00\00@\00\00\00\00\00\00\004\01\00\00!\03\06\00@\11\00\00\00\00\00\00\01\00\00\00\00\00\00\00\01\00\00\00\12\03\07\00\00\22\00\00\00\00\00\00\88\08\00\00\00\00\00\000\00\00\00\11\03\09\00\B0c\00\00\00\00\00\00X\00\00\00\00\00\00\008\00\00\00\11\03\06\00\80\10\00\00\00\00\00\00@\00\00\00\00\00\00\00^\00\00\00\12\03\07\00\00+\00\00\00\00\00\00\04\00\00\00\00\00\00\00\BB\00\00\00\12\03\07\00\00,\00\00\00\00\00\00@\13\00\00\00\00\00\00\EF\00\00\00\11\03\06\00\00\11\00\00\00\00\00\00@\00\00\00\00\00\00\00&\01\00\00\11\03\09\00`d\00\00\00\00\00\00X\00\00\00\00\00\00\00-\01\00\00\11\03\09\00\B8d\00\00\00\00\00\00X\00\00\00\00\00\00\00$\00\00\00\11\03\09\00\08d\00\00\00\00\00\00X\00\00\00\00\00\00\00`\01\00\00!\03\06\00A\11\00\00\00\00\00\00\01\00\00\00\00\00\00\00\8C\01\00\00!\03\06\00B\11\00\00\00\00\00\00\01\00\00\00\00\00\00\00\03\00\00\00\01\00\00\00\04\00\00\00\1A\00\00\00 \00\05@\04\00\00\08\02\10\02\80\10@@\10 \01\08\02\00\02\00\10@\04H\08\00\00\08\00\01\00\00\00\03\00\00\00\0B\00\00\00:\C8^C}[\E4\07\98\E2\CAM\BCE}!\D6Y\CCm\1Ec\84\8BLM\B4\D9\A8\AB\97\17\F2\B0(\19\132\C9\17^\C8l\B8P\E9\E3\91\CB\97QN\0E\00\00\00\0E\00\00\00\05\00\00\00\00\00\00\00\08\00\00\00\00\00\00\00\00\00\00\00\00\00\00\00\09\00\00\00\00\00\00\00\04\00\00\00\0C\00\00\00\00\00\00\00\07\00\00\00\0B\00\00\00\0D\00\00\00\00\00\00\00\00\00\00\00\00\00\00\00\00\00\00\00\01\00\00\00\00\00\00\00\02\00\00\00\00\00\00\00\00\00\00\00\00\00\00\00\00\00\00\00\0A\00\00\00\03\00\00\00\06\00\00\00\00_Z15mummergpuKernelPvPcS0_PKiS2_ii\00childrentex\00nodetex\00_Z15mummergpuKernelPvPcS0_PKiS2_ii.kd\00_Z17mummergpuRCKernelP10MatchCoordPcPKiS3_ii\00_Z17mummergpuRCKernelP10MatchCoordPcPKiS3_ii.kd\00_Z11printKernelP9MatchInfoiP9AlignmentPcPKiS5_iiiii\00_Z11printKernelP9MatchInfoiP9AlignmentPcPKiS5_iiiii.kd\00reftex\00qrytex\00_ZN17__HIP_CoordinatesI14__HIP_BlockIdxE1xE\00_ZN17__HIP_CoordinatesI14__HIP_BlockDimE1xE\00_ZN17__HIP_CoordinatesI15__HIP_ThreadIdxE1xE\00\00\00\00\00\00\00\00\00\00\00\00\00\00\00\00\00\00\00\00\00\00\00\00\00\00\00\00\00\00\00\00\00\00\00\00\00\00\00\00\00\00\00\00\00\00\00\00\00\00\00\00\00\00\00\000\00\00\00\00\00\00\00\80\11\00\00\00\00\00\00\00\00\00\00\00\00\00\00\00\00\00\00\00\00\00\00\00\00\00\00\09\00\00\00\84\01\AF\00\90\00\00\00\0B\00\00\00\00\00\00\00\00\00\00\00\00\00\00\00(\00\00\00\00\00\00\00@\1A\00\00\00\00\00\00\00\00\00\00\00\00\00\00\00\00\00\00\00\00\00\00\00\00\00\00\00\00\00\00\00\00\AF\00\8C\00\00\00\09\00\00\00\00\00\00\00\00\00\00\00\00\00\00\00D\00\00\00\00\00\00\00\00\1B\00\00\00\00\00\00\00\00\00\00\00\00\00\00\00\00\00\00\00\00\00\00\00\00\00\00\0C\00\00\00\06\02\AF\00\90\00\00\00\0B\00\00\00\00\00\00\00\00\00\00\00\00\00\00\00\00\00\00\00\00\00\00\00\00\00\00\00\00\00\00\00\00\00\00\00\00\00\00\00\00\00\00\00\00\00\00\00\00\00\00\00\00\00\00\00\00\00\00\00\00\00\00\00\00\00\00\00\00\00\00\00\00\00\00\00\00\00\00\00\00\00\00\00\00\00\00\00\00\00\00\00\00\00\00\00\00\00\00\00\00\00\00\00\00\00\00\00\00\00\00\00\00\00\00\00\00\00\00\00\00\00\00\00\00\00\00\00\00\00\00\00\00\00\00\00\00\00\00\00\00\00\00\00\00\00\00\00\00\00\00\00\00\00\00\00\00\00\00\00\00\00\00\00\00\00\00\00\00\00\00\00\00\00\00\00\00\00\00\00\00\00\00\00\00\00\00\00\00\00\00\00\00\00\00\00\00\00\00\00\02\00\02\C0\04\00\00\00B\00\02\C0\0C\00\00\00\03\05\06\C0(\00\00\00\7F\C0\8C\BF\00\FF\00\86\FF\FF\00\00\08\00\02\92\01\02\81\81\01\00\80\83\08\FF\01\86\FF\FF\FF\00\00\01\00\92\00\00\00h\14\00\88}j \80\BE\0E\02\88\BF\03\00\0A\C0 \00\00\00\9F\00\02\22\02\00\8F\D2\82\00\02\00\7F\C0\8C\BF\01\02\08~\00\04\042\04\07\068\00\80P\DC\02\00\7F\02p\0F\8C\BF\15\04\86}~j\FE\86\FF\01\88\BF\03\00\0E\C0\00\00\00\00\04\00\8F\D2\82\00\02\00\15\81\08\81\08\00\00\10\80\00\94\BE\7F\C0\8C\BF\07\02\02~\06\08\082\01\0B\0A8\00\80P\DC\04\00\7F\04\15\04\02l\03\02\04~\81\028h\9F\00\02\22\01\02\0C~\00\00\8F\D2\83\00\02\00\80\01\86\BE\80\024~\80\02\22~F\00!\B0S\00$\B0T\00%\B0G\00&\B0B\00'\B0C\00(\B0A\00)\B0\FF\00*\B0\00\0F+\B0\FF\00\AC\BE\00\04\05\06\FF\026~\00\00\01\00\80\02&~\80\02:~\00\1C\96\BE\16\FF\16\80,A\00\00\17\FF\17\82\00\00\00\00p\0F\8C\BF\9F\08\0A\22\02\08<2\02\0B>8\02\00\8F\D2\83\08\02\00\00\04\042\06\07\068\02\01(4\03\03*:\80\02\00~N\00\82\BF~\02\FE\87\F9\0CB~\10\06\04\00\F9\0CD~\10\06\05\00\1D\00\F3\D1\13\83u\04~\00\FE\87\00\1C\80\BE\00\FF\00\80p@\00\00\01\FF\01\82\00\00\00\00\00\80T\DC\11\00\00\00p\0F\8C\BF\00\05\00~\01\05\02~\80\00\02\C08\00\00\00\C0\00\02\C0\08\00\00\00\00\06\02\C0(\00\00\00\00\04\0A\C00\00\00\00@\06\02\C00\00\00\00\00\02\0E\C0\00\00\00\00\7F\C0\8C\BF\02\94\0C\BF\18\0C\00~\C1\80\EA\85\19\8F\0C\BF\C1\80\80\85\03\FF\82\92\0E\00\0E\00\02\81\02\81\00\00\00\D1\F2\00\02\00\02\0C\02~\00E\04~\00C\00\0A\00?\00~\01\00\00\D1\F2\02\02\00\02\01\00\0A\01E\04~\01E\02\0A\01?\02~!\01\00\00\02\03\02\0A\22\03\02\00\00\03\80\F0\00\00\82\00\14\81\14\81\148\94}j\06\86\87\88((2\80**8p\0F\8C\BF\00\00\CE\D1\01\01b\02\88\00\02 \02\00\C8\D1\00\11!\02\8C\00\06 \FF\02\02&\00\0F\00\00\02\00\01\D2\03W\08\04\00\00\01\D2\00U\04\04\00\00\00\D2\02!\01\04~\06\FE\89z\01\88\BF\80\00\94}\00\00\C4\D0\81:\02\00j\00\EA\87\1D\00\00\D1\1D\03\A9\01\007$\00\14:\00h\9F\00\02\22\00\00\19\D1\1E\01\02\00\01\00\1C\D1\1F\03\02\00\00\80@\DC\00\00\7F$\80\02F~\C1\01\88\BEp\0F\8C\BF\00\00\AD\D0\80H\02\00\00 \82\BEZ\01\88\BF\00\80T\DC\11\00\16\16\80\02F~\13\00\00\D1\13\01\A9\01\80\01\9A\BE\0C\00\82\BF~\0C\FE\87\08~\8C\8A\0A~\88\8A~\00\FE\87\0C\C1\80\88~\08\88\86\08\1A\9A\87\18~\88\89\00~\80\86\08\00\98\87~\1A\FE\89@\01\88\BFp\0F\8C\BF8\80P\DC\16\00\7F\080\80P\DC\16\00\7F\09(\80P\DC\16\00\7F\0A\08\80P\DC\16\00\7F\0B\10\80\\\DC\16\00\7F\04\00\80\\\DC\16\00\7F\000\80\\\DC\16\00\7F\0C\12\03 ~\F9\0CB~\10\06\04\00\F9\0CD~\10\06\05\00%\00\C9\D1$\01!\02~\01\9C\BEv\0F\8C\BF\FF\10\10&\00\00\10\00u\0F\8C\BF\FF\12\12&\00\80\00\00t\0F\8C\BF\0A\0D\14~s\0F\8C\BF\0B\00\C8\D1\0B\1D9\02\81\16\16h\0B\0D\16~\80\12\94}\F2\14\12\00\09E\14~\F2\16\16\00\0BE$~\09C\12\0A\0BE\16\0A\09?\12~\0B?\16~\0A\13\12\0A\80\10\94}\12\17\10\0A!\130\00\22\112\00p\0F\8C\BF\0C\05 ~\0D\05\22~\0E\05$~\0F\05&~\10\18\D4}\00\00\EA\D0\12\1C\02\00j\00\80\86\00 \9E\BE~\01\A2\BE\00\05\10~\01\05\12~\02\05\14~\03\05\16~\08\00\D4}\00\00\EA\D0\0A\04\02\00\04\05\18~\05\05\1A~j\00\80\86\0C\08\D4}\06\05\1C~\07\05\1E~\00j\80\86\0E\0C\D4}\00j\80\86\00 \80\BE\00\00\80\BF\00\0F\80\F0\18\08\82\00~\00\FE\88\EA\FF\89\BF\22\01\FE\BE~\1E\FE\88\DD\FF\89\BF\1C\01\FE\BE!J\82}j \80\BE~\00\80\88\17\00\88\BF$J\82}j \88\BE~\08\88\88\08\00\88\BF%J\94}\80\02\00~j \8A\BE\03\00\88\BFp\0F\8C\BF\00\00\CE\D1\0B\15\22\02~\0A\FE\87\08#\88\BE\08\00\88\BF&J\94}\80\02\00~j \8A\BE\03\00\88\BFp\0F\8C\BF\00\00\CE\D1\0A\13B\02~\0A\FE\87~\08\FE\87\00#\80\BE\16\00\88\BF'J\82}j \88\BE~\08\88\88\08\00\88\BF(J\94}\80\02\00~j \8A\BE\03\00\88\BFp\0F\8C\BF\00\00\CE\D1\09\11b\02~\0A\FE\87\08#\88\BE\07\00\88\BF)J\94}\80\02\00~j \8A\BE\02\00\88\BFp\0F\8C\BF\08\03\00~~\0A\FE\87~\08\FE\87~\00\FE\87\88\00\02 \FF\00\04&\FF\00\00\00\02\00\01\D2\01W\08\04\01\00\C8\D1\00\11!\02\8C\00\00 \00\00\01\D2\00W\04\04\12\00\00\D2\00!\09\04\80$\9A}j \80\BE~\00\88\88\86\00\88\BF\00\1C\80\BE\00\FF\00\80H<\00\00\01\FF\01\82\00\00\00\00\00\80T\DC\11\00\00\04\02\0D\02~\00\0D\04~p\0F\8C\BF\04\05\00~\05\05\02~\80\02\02\C08\00\00\00\C0\02\02\C0\08\00\00\00\80\08\02\C0(\00\00\00\00\07\0A\C00\00\00\00\C0\08\02\C00\00\00\00\00\03\0E\C0\00\00\00\00\7F\C0\8C\BF\0A\94\0C\BF\22\0C\00~\C1\80\EA\85#\8F\0C\BF\C1\80\80\85\0B\FF\8A\92\0E\00\0E\00\0A\81\0A\81\00\00\00\D1\F2\00\02\00\0A\0C\06~\00E\08~\00\03\00\0A\00?\00~\03\00\00\D1\F2\06\02\00\04\01\00\0A\03E\08~\03\05\06\0A\01\01\00\00\03?\02~\04\03\02\0A\02\03\02\00\00\06\80\F0\00\00\E3\00\80&\9A}p\0F\8C\BF\90\00\04 \98\00\00 \88\02\08 \05\00\C8\D1\01!!\02\FF\02\06&\FF\00\00\00\98\02\02 \00\00\ED\D1\00\05\B2\00\02\00\ED\D1\05\09\B2\00 \00\00\D2\03!\01\04\00\00\00\D2\01!\09\04j \80\BE~\00\80\88\00A\02j\81\02\02h\13\03\04j\81\00\06h '\08h\04\07F\18\01'\02\18\80\04&\1A\00#\80\BE\81@Fh\81\02\02~\80\02&~~\00\FE\87\01;:h\14:\02h\9F\02\06\22\1E\03\042\1F\07\068\00\80@\DC\02\00\7F$\80\01\80\BE\0A\00\82\BF~\0E\FE\87\02\07Z}\0A~\8A\89j~\8E\86\0A\0E\8A\87~\0C\FE\87~\0A\8C\86\0C\00\80\87~\00\FE\89\1F\00\88\BF#\01\96}p\0F\8C\BF\F94Z}$\8C\00\06j\0C\8E\86\80\02\02~\0A~\8A\87\0E \8C\BE\F2\FF\88\BF\00\80@\DC#\00\04\02\FFH\06&\FF\00\00\00\9B\02\02~p\0F\8C\BF\02\07T}j \8E\BE\E4\FF\88\BF\14\9F\10\90\9F:\02\22\10\02\08~\14:\0A2\01\09\028\1E\0B\082\1F\03\0A8\01\80@\DC\04\00\7F$\81::h\81FFh\80\02\02~\D7\FF\82\BF~\00\FE\87\08#\80\BE\0B\00\88\BF\15:\82}j \88\BE\04\00\88\BF\00\80t\DC\14\10\7F\00\00\80T\DC\11\00\16\16~\08\FE\87\C1::h\92\02\02~\80\02&~~\00\FE\87\9B\02\88}\C1\01\88\BE\C1\01\8C\BEj \80\BE~\00\80\88\C2\FE\88\BF\92\02\9A}\C1\01\8A\BE\80\01\88\BEj \8C\BE\BA\FE\88\BFp\0F\8C\BF\F94T}$\8A\00\06~\01\88\BE\0A~\8A\8A\B4\FE\82\BF~\1A\FE\87\C1\01\80\BE\18 \88\BE~\08\88\88~\C1\80\88~\08\FE\87\00~\88\8A~\02\FE\87\08 \80\BEF\FE\88\BF#A&j\15:\82}j \82\BE;\FE\88\BF\00\80t\DC\14\12\7F\008\FE\82\BF\00\00\81\BF\00\00\80\BF\00\00\80\BF\00\00\80\BF\00\00\80\BF\00\00\80\BF\00\00\80\BF\00\00\80\BF\00\00\80\BF\00\00\80\BF\00\00\80\BF\00\00\80\BF\00\00\80\BF\00\00\80\BF\00\00\80\BF\00\00\80\BF\00\00\80\BF\00\00\80\BF\00\00\80\BF\00\00\80\BF\00\00\80\BF\00\00\80\BF\00\00\80\BF\00\00\80\BF\00\00\80\BF\00\00\80\BF\00\00\80\BF\00\00\80\BF\00\00\80\BF\00\00\80\BF\00\00\80\BF\00\00\81\BF\00\00\80\BF\00\00\80\BF\00\00\80\BF\00\00\80\BF\00\00\80\BF\00\00\80\BF\00\00\80\BF\00\00\80\BF\00\00\80\BF\00\00\80\BF\00\00\80\BF\00\00\80\BF\00\00\80\BF\00\00\80\BF\00\00\80\BF\00\00\80\BF\00\00\80\BF\00\00\80\BF\00\00\80\BF\00\00\80\BF\00\00\80\BF\00\00\80\BF\00\00\80\BF\00\00\80\BF\00\00\80\BF\00\00\80\BF\00\00\80\BF\00\00\80\BF\00\00\80\BF\00\00\80\BF\00\00\80\BF\00\00\80\BF\00\00\80\BF\00\00\80\BF\00\00\80\BF\00\00\80\BF\00\00\80\BF\00\00\80\BF\00\00\80\BF\00\00\80\BF\00\00\80\BF\00\00\80\BF\00\00\80\BF\00\00\80\BF\00\00\80\BF\00\00\80\BF\00\00\80\BF\00\00\80\BF\00\00\80\BF\00\00\80\BF\00\00\80\BF\00\00\80\BF\00\00\80\BF\00\00\80\BF\00\00\80\BF\00\00\80\BF\00\00\80\BF\00\00\80\BF\00\00\80\BF\00\00\80\BF\00\00\80\BF\00\00\80\BF\00\00\80\BF\02\00\02\C0\04\00\00\00B\00\02\C0\0C\00\00\00\83\00\02\C0\08\00\00\00\7F\C0\8C\BF\00\FF\00\86\FF\FF\00\00\08\00\03\92\01\03\81\81\01\00\80\83\08\FF\01\86\FF\FF\FF\00\00\01\00\92\00\00\08h\02\08\88}j \80\BE\BC\04\88\BF\83\00\06\C0\00\00\00\00\03\05\0A\C0\10\00\00\00\00\1C\A2\BE\22\FF\22\80\987\00\00#\FF#\82\00\00\00\00\7F\C0\8C\BF\00\00\E9\D1\04)\09\00\04\80T\DC\00\00\7F\12\12\80H\DC\00\00\7F\05\03\00\06\C0 \00\00\00\03\06\0A\C00\00\00\00\80\02\02~\17\02\16~\7F\C0\8C\BF\01\02\04~q\0F\8C\BF\12\03\00~\00\00\8F\D2\82\00\02\00\00\00\002\02\03\028\00\80P\DC\00\00\7F\0A\11\00\06\C0\00\00\00\00\7F\C0\8C\BF\00\01\02\C08\00\00\00@\01\02\C0\08\00\00\00\C0\05\02\C0(\00\00\00\00\02\0E\C0\00\00\00\00\00\04\0A\C00\00\00\00\00\07\02\C00\00\00\00\7F\C0\8C\BF\04\94\0C\BF\17\0C\0C~\C1\80\EA\85\F9\0C\12~\13\06\04\00\1C\8F\0C\BF\C1\80\80\85\05\FF\84\92\0E\00\0E\00\00\00\00\D1\F2\0C\02\00\04\81\04\81\00E\02~\04\0C\0E~\00\13\00\0A\F9\0C\10~\13\06\05\00\00?\00~\01\01\00\0A\01\00\00\D1\F2\0E\02\00\01E\04~\01\11\02\0A\01?\02~\09\01\00\00\02\03\02\0A\08\03\02\00\00\0F\80\F0\00\00\82\00r\0F\8C\BF\FF\0A\18&\FF\FF\00\00p\0F\8C\BF\9F\14\02\22\12\00\19\D1\16\14\02\00&\00\1C\D1\0B\03\02\00\0A\00\19\D1\12\19\02\00\0B\00\1C\D1\80L\02\00\00\80@\DC\0A\00\7F'\83\05\02\C0@\00\00\00\FF\00\80\BE\00\04\05\06\01\00\C8\D1\03\11!\02\01\00\ED\D1\01\07\02\00\02\00\C8\D1\03!!\02\01\00\00\D2\02!\05\04\7F\C0\8C\BF\00\00\C6\D0\16\02\02\00\00 \84\BE~\04\80\88\10\FF\06\86\00\80\00\00\00!\84\BE\06\02\02~\13\03V~\13\03P~~\04\FE\88<\00\88\BF\10\FF\17\86\00\80\00\00\17\80\06\BF\C1\80\80\85\02\00\00\D1\F2\0C\02\00\08\00\00\D1\F2\0E\02\00\02E\06~\08E\12~\80\01\86\BE\00\0F\1C\B0\FF\00\9D\BE\00\04\05\06\13\03P~\88\00\02 \FF\00\14&\FF\00\00\00\0B\00\C8\D1\00\11!\02\8C\00\00 \0A\00\01\D2\019(\04\0B\00\01\D2\009,\04\0A\0D\00~\0B\0D\02~(\03V~(\00\00\D2\0B!)\04\02\01\18\0A\08\03\1A\0A\0C?\18~\0D?\1A~\03\19\18\0A\09\1B\1A\0A\00\19\00\00\01\1B\02\00\00\09\80\F0\00\00\82\00p\0F\8C\BF\0C\00\C8\D1\01\11!\02\0D\00\C8\D1\01!!\02\01\00\ED\D1\0C\03v\00\01\00\00\D2\0D!\05\04\00\00\C6\D0\16\02\02\00\00\06\86\87~\06\FE\89\D9\FF\89\BF~\06\FE\87\F9\0C\12~+\06\04\00\F9\0C\10~+\06\05\00\17\02\02~~\04\FE\87\00\00\CA\D0\80\02\02\00\01\00\00\D1\F2\0C\02\00\01E\00~\01\13\04\0A\02?\04~\03\00\00\D1\F2\0E\02\00\00\05\0C\0A\03E\04~\03\11\0E\0A\07?\0E~\09\0D\0C\00\02\0F\0E\0A\08\0F\0E\00\00\08\80\F0\06\08\82\00\06\00\E9\D1\04)\09\00\00\80P\DC\06\00\7F\14\FF\00\84\BE\00\04\05\06\00\00\CA\D0+'\02\00\80\02^~q\0F\8C\BF\06\00\C8\D1\08\11!\02\07\00\C8\D1\08!!\02\06\00\ED\D1\06\11\12\00\06\00\00\D2\07!\19\04\C1\0C\\h\00 \84\BE(\00\88\BF\06\00\E9\D1\04)\09\00\10\80H\DC\06\00\7F\06p\0F\8C\BF\00\00\AD\D0\80\0C\02\00\00 \86\BE\1D\00\88\BF\F9\0C\0E~(\06\04\00\F9\0C\10~(\06\05\00\FF\00\80\BE\00\04\05\06\01\0F\02\0A\03\11\06\0A\01?\02~\03?\06~\00\03\00\0A\02\07\02\0A\07\01\00\00\08\03\02\00\00\08\80\F0\00\00\82\00\FF\0C\02&\FF\FF\00\00p\0F\8C\BF\02\00\C8\D1\00\11!\02\02\00\ED\D1\02\01\02\00\00\00\C8\D1\00!!\02\00\00\00\D2\00!\09\04.\00\FF\D1\01\01\06\03~\06\FE\87\81\02^~~\04\FE\87+Q\9A}~j\FE\86\B7\03\88\BF\1A\C1\06\BF\81\02\00~\C1\80\96\85\1B\C1\06\BF\F9\00Rh\05\06\04\06\00\00\E9\D1\04)\09\00\C1\80\A8\85\00\1C\AA\BE*\FF*\80\C83\00\00+\FF+\82\00\00\00\00\15\00\06\C0\00\00\00\00\90\00,2\80\02.8\80\01\AE\BE\80\01\AC\BE\7F\C0\8C\BF\18P\B3\D3\00\00\00\18\FF\02`~A\00\00\00\80\02T~\FF\00\1B\B0A\00!\B0C\008\B0G\009\B0T\00:\B0\00\0F;\B0\FF\00\BC\BE\00\04\05\06\A4\02X~\FF\02Z~T\00\00\00\18\00\82\BF~\0C\FE\87.~\80\89\02~\82\86+\00\00\D2\22!\85\04\00\02\AE\87$P\B3\D3\1E=\02\18\22P\B3\D3\1C9\02\18 P\B3\D3\1A5\02\18~0\FE\87+Q\94}j,\AC\87\1AP\B3\D3 A\02\18\1CP\B3\D3\22E\02\18\1EP\B3\D3$I\02\18\09\03`~~,\FE\89y\03\88\BF8\80P\DC\18\00\7F\080\80P\DC\18\00\7F\09r\0F\8C\BF(\80P\DC\18\00\7F\0A\08\80P\DC\18\00\7F\0B\10\80\\\DC\18\00\7F\04\00\80\\\DC\18\00\7F\000\80\\\DC\18\00\7F\0E\F9\0Cd~+\06\04\00\F9\0Cb~+\06\05\00~\01\90\BEv\0F\8C\BF\FF\10\10&\00\00\10\00u\0F\8C\BF\FF\12\12&\00\80\00\00t\0F\8C\BF\0A\0Df~s\0F\8C\BF\0A\00\C8\D1\0B\1D9\02\81\14\14h\0A\0D*~\80\12\94}\F2f\12\00\09E\14~\F2*\16\00\0BE\1A~\09e\12\0A\0Bc\16\0A\09?\12~\0B?\16~\0A\13\12\0A\00\00\CA\D0\80\10\02\00\0D\17\10\0A\0C\00\00\D12\13\02\00\0D\00\00\D11\11\02\00p\0F\8C\BF\0E\05\18~\0F\05\1A~\10\05\1C~\11\05\1E~\0C\1C\D4}\02\00\EA\D0\0E \02\00j\02\82\86\02 \92\BE~\01\9C\BE\00\05\08~\01\05\0A~\02\05\0C~\03\05\0E~\04\00\D4}\02\00\EA\D0\06\04\02\00\04\05\10~\05\05\12~j\02\82\86\08\08\D4}\06\05\14~\07\05\16~\02j\82\86\0A\0C\D4}\02j\82\86\02 \82\BE\00\00\80\BF\00\0F\80\F0\0C\08a\00~\02\FE\88\EA\FF\89\BF\1C\01\FE\BE~\12\FE\88\DD\FF\89\BF\10\01\FE\BEp\0F\8C\BF\98\16\14 \80\14T}.\C1\82\88j\02\82\86\02 \84\BE~\04\90\88\90\01\88\BF\FF\1C\12&\00\80\00\00\02\00\CA\D0\80\12\02\00\09\00\00\D1\F2f\0A\00\09E\14~\09e\12\0A\09?\12~~\01\92\BE\0A\13\12\0A\0A\00\00\D1\F2*\0A\00\0AE\16~ \00\00\D12\13\02\00\0Ac\12\0A\09?\12~\0B\13\12\0A!\00\00\D11\13\02\00\0E\05\18~\0F\05\1A~\10\05\1C~\11\05\1E~\00\00\EA\D0\0C\1C\02\00\02\00\EA\D0\0E \02\00\00\02\80\86\00 \9C\BE~\01\9E\BE\00\05\08~\01\05\0A~\02\05\0C~\03\05\0E~\00\00\EA\D0\04\00\02\00\02\00\EA\D0\06\04\02\00\04\05\10~\05\05\12~\00\02\82\86\00\00\EA\D0\08\08\02\00\06\05\14~\07\05\16~\02\00\82\86\00\00\EA\D0\0A\0C\02\00\02\00\80\86\00 \80\BE\00\00\80\BF\00\0F\80\F0 \0Aa\00~\00\FE\88\E7\FF\89\BF\1E\01\FE\BE~\1C\FE\88\D9\FF\89\BF\12\01\FE\BE\00\00\CD\D0\80^\02\00\02\00\CA\D0\80^\02\00\80\02\00~\02 \84\BE\07\00\88\BF)]\00h\00\02\19\D1\12\01\02\00\01\02\1C\D1\80L\0A\00\00\80@\DC\00\00\7F\00~\04\FE\87\FF`\02&\FF\00\00\00\06\00\AD\D0!\02\02\00\02\00\AA\D0!\02\02\00\80\01\84\BE\02 \88\BE\0D\00\88\BFp\0F\8C\BF\88\14\02 \0A\03\02(\F9\14\02(\01\06\06\05\F9TT}\01\82\00\06\06~\86\89\02~\82\86~\01\84\BE\FF\02`~C\00\00\00\06\02\86\87~\08\FE\87\06 \88\BE~\08\86\88\81\00\88\BF\FF`\02&\FF\00\00\00\0A\00\AD\D08\02\02\00\02\00\AA\D08\02\02\00\80\01\88\BE P\B3\D3\1A5\02\18\02 \8C\BE\0E\00\88\BFp\0F\8C\BF \00\90\D2\98\14\02\00\88\16\02  \17\04(\02\03\02(\F9TT}\01\82\00\06\0A~\8A\89\02~\82\86~\01\88\BE\FF\02`~G\00\00\00\0A\02\8A\87~\0C\FE\87\0A \8C\BE~\0C\8A\88I\02\88\BF\FF`\02&\FF\00\00\00\0E\00\AD\D09\02\02\00\02\00\AA\D09\02\02\00\80\01\8C\BE\22P\B3\D3\1C9\02\18\02 \92\BE\10\00\88\BFp\0F\8C\BF\02\00\8F\D2\90\18\02\00\90\16\02 \01\05D(\F9\16\02(\01\06\06\03\01\19\02(\F9TT}\01\82\00\06\0E~\8E\89\02~\82\86~\01\8C\BE\FF\02`~T\00\00\00\0E\02\8E\87~\12\FE\87\0E \92\BE~\12\8E\88F\02\88\BF\FF`\02&\FF\00\00\00\1E\00\AD\D0:\02\02\00\02\00\AA\D0:\02\02\00\80\01\92\BE$P\B3\D3\1E=\02\18\02 \9C\BE\10\00\88\BFp\0F\8C\BF\88\18\02 \02\00\90\D2\98\18\02\00\F9\18\02(\01\06\06\05\01\05\02(\F9TT}\01\82\00\06\1E~\9E\89\02~\82\86~\01\92\BE$\00\90\D2\88\18\02\00\A4\02`~\1E\02\9E\87~\1C\FE\87\1E \82\BE~\02\82\88A\02\88\BF\F9XT}0\A4\00\06\C1\01\9E\BE$ \9C\BE\1A\00\88\BFp\0F\8C\BF\88\1A\02 \0D\03\02(\F9\1A\02(\01\06\06\05\F9TZ}\01\A6\00\06\C1\01\A4\BE& \9E\BE\0D\03\04~\88\04\02 \FF\02\02&\00\0F\00\00\01\00\01\D2\027\04\04\03\00\C8\D1\02\11!\02\8C\04\04 \02\00\01\D2\02w\0C\04+\00\00\D2\02!\05\04~\C1\A4\88~\1E\FE\87\A4\02`~$~\9E\8A~\1C\FE\87\1E~\9C\86\12~\92\89~\02\FE\87\12 \82\BE\1E\02\89\BF,\02\82\BF~\06\FE\87\04 \86\BE\16\00\88\BFp\0F\8C\BF\88\14\02 \FF\02\02&\00\0F\00\00\02\00\C8\D1\0A\11!\02\8C\14\06 \01\00\01\D2\0A7\04\04\02\00\01\D2\03w\08\04+\00\00\D2\02!\05\04\FF\02`~A\00\00\00\02~\82\89 P\B3\D3\1A5\02\18\22P\B3\D3\1C9\02\18$P\B3\D3\1E=\02\18~\06\FE\87\C1\01\84\BE\02\C1\82\88\02 \92\BE\88\00\88\BF\00 \82\BE~\02\80\88\81^^h\00#\9C\BE\7F\00\88\BFp\0F\8C\BF\F9\00\94}0\80\00\08\81\02^~\00 \9E\BEx\00\88\BF\00\80T\DC*\00\22\00\F9\0C\04~+\06\04\00\F9\0C\06~+\06\05\00\80\02^~p\0F\8C\BF\00\05\00~\01\05\02~\80\00\02\C08\00\00\00\00\09\02\C0\08\00\00\00\C0\00\02\C0(\00\00\00\00\03\0A\C00\00\00\00@\09\02\C00\00\00\00\00\01\0E\C0\00\00\00\00\7F\C0\8C\BF\02\94\0C\BF\03\0C\08~\C1\80\80\85%\8F\0C\BF\C1\80\82\85$\FF\A4\92\0E\00\0E\00$\81$\81\00\00\00\D1\F2\08\0A\00$\0C\0A~\00E\02~\00\05\00\0A\00?\00~\06\00\00\D1\F2\0A\0A\00\01\01\00\0A\06E\02~\06\07\0C\0A\00\00\00\D1\02\01\02\00\06?\04~\01\05\02\0A\01\00\00\D1\03\03\02\00\00\0F\80\F0\00\00a\00\02\00\CA\D0+'\02\00p\0F\8C\BF\01\00\C8\D1\03\11!\02\02\00\C8\D1\03!!\02\01\00\ED\D1\01\07\F2\00\01\00\00\D2\02!\05\04\C1\02\\h\02 \A4\BE7\00\88\BF\00\80H\DC\16\00\7F\01p\0F\8C\BF\02\00\AD\D0\80\02\02\00\02 \A6\BE-\00\88\BF\88\00\04 \FF\00\06&\FF\00\00\00\02\00\01\D2\02w\0C\04\0C\8F\0C\BF\03\00\C8\D1\00\11!\02\8C\00\00 \02\0D\04~\C1\80\82\85\00\00\01\D2\00w\0C\04\03\00\00\D1\F2\08\0A\00\03E\08~\03\05\06\0A\00\0D\00~\03?\06~\04\07\06\0A\04\00\00\D1\F2\0A\0A\00\04E\0A~\02\00\00\D1\02\07\02\00\04\01\06\0A\03?\06~\05\07\06\0A\03\00\00\D1\00\07\02\00\00\08\80\F0\02\00a\00\FF\02\02&\FF\FF\00\00p\0F\8C\BF\02\00\C8\D1\00\11!\02\02\00\ED\D1\02\01\F2\00\00\00\C8\D1\00!!\02\00\00\00\D2\00!\09\04.\00\FF\D1\01\01\06\03~&\FE\87\81\02^~\13\03V~~$\FE\87~\1E\FE\87~\1C\FE\87\FF\02`~A\00\00\00~\C1\84\88~\12\FE\87\04~\AE\860\03\12~\10#\B0\BE\03\FE\88\BFp\0F\8C\BF\F9NZ}\0A\80\06\00j\C1\82\88\02\00\80\86\00 \82\BE(\00\88\BF\88\10\00 \FF\00\00&\FF\00\00\00\00\00\ED\D1\00\11\F2\00\F96\02&\08\06\05\86\01\00\00\D2\01!\01\04\C1\02\06h\18\06\00h\00]\04h\80\06\9A}\16j\80\87\19\04\9A}(j\84\87\00\04\80\86\00 \84\BE\14\00\88\BF\82\02\98}\00\00\C3\D0\1A\04\02\00j\00\86\87\06 \80\BE\0D\00\88\BF\9F(*\22\02\00\8F\D2\83(\02\00\15\02\02~\14\04\042\01\07\068\00\80p\DC\02\00\7F\00\04\80h\DC\02.\7F\00\00\80T\DC*\00*\18\81((h~\00\FE\87~\04\FE\87~\02\FE\87\00\80T\DC*\00\22\00q\0F\8C\BF8\80P\DC\18\00\7F\0E0\80P\DC\18\00\7F\0F(\80P\DC\18\00\7F\10\08\80P\DC\18\00\7F\11~\01\B2\BEt\0F\8C\BF\00\05\00~\01\05\02~\80\00\02\C08\00\00\00\C0\00\02\C0\08\00\00\00\00\03\02\C0(\00\00\00\00\07\0A\C00\00\00\00@\03\02\C00\00\00\00\00\01\0E\C0\00\00\00\00\7F\C0\8C\BF\02\94\0C\BF\0C\0C@~\C1\80\EA\85\0D\8F\0C\BF\C1\80\80\85\03\FF\82\92\0E\00\0E\00\02\81\02\81\00\00\00\D1\F2@\02\00\02\0C*~\00E\02~\00e\00\0A\00?\00~\02\00\00\D1\F2*\02\00\01\01\00\0A\02E\02~\02c\04\0A2\01\18\00\02?\00~\01\01\00\0A1\01\1A\00\00\01\80\F0\0C!\E1\00\10\80\\\DC\18\00\7F\04\00\80\\\DC\18\00\7F\000\80\\\DC\18\00\7F\08v\0F\8C\BF\FF\1E\1A&\00\80\00\00t\0F\8C\BF\0F\00\C8\D1\11\1D9\02\81\1E\1Eh\FF\1C\18&\00\00\10\00\10\0D\1C~\0F\0D\1E~\00\00\CA\D0\80\1A\02\00\0D\00\00\D1\F2\1C\02\00\0F\00\00\D1\F2\1E\02\00\0DE\1C~\00\00\CA\D0\80\18\02\00s\0F\8C\BF\88B  \FFB\22&\FF\00\00\00\22\00\C8\D1!\11!\02\8CBF !\00\01\D2\10wD\04\22\00\01\D2#w\88\04!\0DH~\22\0DF~\0FE ~\0DI\1A\0A\0FG\1E\0A\0D?\1A~\0F?\1E~\0E\1B\1A\0A\10\1F\1C\0A\10\00\00\D1$\1B\02\00\11\00\00\D1#\1D\02\00p\0F\8C\BF\08\05H~\09\05J~\0A\05L~\0B\05N~\00\00\EA\D0$\10\02\00\02\00\EA\D0&\14\02\00\00\02\80\86\00 \B4\BE~\01\B6\BE\00\05\18~\01\05\1A~\02\05\1C~\03\05\1E~\00\00\EA\D0\0C\00\02\00\02\00\EA\D0\0E\04\02\00\04\05 ~\05\05\22~\00\02\82\86\00\00\EA\D0\10\08\02\00\06\05$~\07\05&~\02\00\82\86\00\00\EA\D0\12\0C\02\00\02\00\80\86\00 \80\BE\00\00\80\BF\00\0F\80\F0\10\0C#\01~\00\FE\88\E7\FF\89\BF6\01\FE\BE~4\FE\88\D9\FF\89\BF2\01\FE\BEp\0F\8C\BF\88\18\00 \FF\00\00&\00\0F\00\00\01\00\C8\D1\0C\11!\02\8C\18\04 \00\00\01\D2\0C7\00\04\01\00\01\D2\02w\04\04\00\00\00\D2\01!\01\04\00\00\CD\D0\00W\02\00\80\01\82\BE\FF\02\12~C\00\00\00\00 \8C\BE>\00\88\BF\00\00\CE\D1\0D\19b\02\88\00\04 \8C\00\02 \03\00\C8\D1\00\11!\02\FF\04\04&\00\0F\00\00\01\00\01\D2\01w\0C\04\00\00\01\D2\007\08\04\00\00\00\D2\01!\01\04\00\00\CD\D0\00W\02\00\80\01\82\BE\FF\02\12~G\00\00\00\00 \8E\BE'\00\88\BF\00\00\CE\D1\0E\1BB\02\88\00\02 \FF\02\02&\00\0F\00\00\01\00\01\D2\007\04\04\02\00\C8\D1\00\11!\02\8C\00\00 \00\00\01\D2\00w\08\04\00\00\00\D2\00!\05\04\01\00\CE\D1\0F\1D\22\02\88\02\04 \FF\04\04&\00\0F\00\00\02\00\01\D2\017\08\04\03\00\C8\D1\01\11!\02\8C\02\02 \01\00\01\D2\01w\0C\04\01\00\00\D2\01!\09\04\00\00\CA\D0\01W\02\00\02\00\CA\D0\00W\02\00\01\00\00\D10I\01\00\02\00\80\87\00\C1\80\88\09\00\00\D1\01[\0A\00\00~\82\86~\0E\FE\87\02~\82\86~\0C\FE\87\C1^\00h\00\00\CD\D0\80^\02\00/\00\00\D1\80\00\02\00\00\00\CA\D0\80^\02\00\00 \8C\BE\DB\FC\88\BF\1C\8F\0C\BF\C1\80\80\85\00\00\00\D1\F2@\02\00\00E\02~\00I\00\0A\00?\00~\80\02^~\01\01\00\0A\01\00\00\D1\F2*\02\00\01E\04~\01G\02\0A\01?\02~$\01\00\00\02\03\02\0A#\03\02\00\00\08\80\F0\00\00\E1\00p\0F\8C\BF\01\00\C8\D1\00\11!\02\02\00\C8\D1\00!!\02\00\00\ED\D1\01\01\F2\00\00\00\00\D2\02!\01\04\C1\00\\h\BD\FC\82\BF~\0A\FE\87\08 \8A\BE\88@\02 \FF\02\02&\00\0F\00\00\02\00\C8\D1 \11!\02\8C@\06 \01\00\01\D2 7\04\04\02\00\01\D2\03w\08\04+\00\00\D2\02!\05\04\FF\02`~C\00\00\00\02~\82\89$P\B3\D3\1E=\02\18\22P\B3\D3\1C9\02\18~\0A\FE\87\02~\82\86\04~\84\89~\06\FE\87\04 \86\BE\03\FE\89\BF\18\FE\82\BF~\0E\FE\87\0C \8E\BE\88D\02 \FF\02\02&\00\0F\00\00\02\00\C8\D1\22\11!\02\8CD\06 \01\00\01\D2\227\04\04\02\00\01\D2\03w\08\04+\00\00\D2\02!\05\04\FF\02`~G\00\00\00\02~\82\89$P\B3\D3\1E=\02\18~\0E\FE\87\02~\82\86\08~\88\89~\0A\FE\87\08 \8A\BE\CD\FF\89\BF\DF\FF\82\BF~\02\FE\87\12 \82\BE\88H\02 \FF\02\02&\00\0F\00\00\02\00\C8\D1$\11!\02\8CH\06 \01\00\01\D2$7\04\04\02\00\01\D2\03w\08\04+\00\00\D2\02!\05\04\FF\02`~T\00\00\00\1C~\9C\89~\02\FE\87\1C~\82\86\0C~\8C\89~\0E\FE\87\0C \8E\BE\D1\FF\89\BF\E1\FF\82\BF\00\00\81\BF\00\00\80\BF\00\00\80\BF\00\00\80\BF\00\00\80\BF\00\00\80\BF\00\00\80\BF\00\00\80\BF\00\00\80\BF\00\00\80\BF\00\00\80\BF\00\00\80\BF\00\00\80\BF\00\00\80\BF\00\00\80\BF\00\00\80\BF\00\00\80\BF\00\00\80\BF\00\00\80\BF\00\00\80\BF\00\00\80\BF\00\00\80\BF\00\00\80\BF\00\00\80\BF\00\00\80\BF\00\00\80\BF\00\00\80\BF\00\00\80\BF\00\00\80\BF\00\00\80\BF\00\00\80\BF\00\00\80\BF\00\00\80\BF\00\00\80\BF\00\00\80\BF\00\00\80\BF\00\00\80\BF\00\00\80\BF\00\00\80\BF\00\00\80\BF\00\00\80\BF\00\00\80\BF\00\00\80\BF\00\00\80\BF\00\00\80\BF\00\00\80\BF\00\00\80\BF\00\00\80\BF\00\00\80\BF\00\00\80\BF\00\00\80\BF\00\00\80\BF\00\00\80\BF\00\00\80\BF\00\00\80\BF\00\00\80\BF\00\00\80\BF\00\00\80\BF\00\00\80\BF\00\00\80\BF\00\00\80\BF\00\00\80\BF\00\00\80\BF\00\00\80\BF\00\00\80\BF\00\00\80\BF\00\00\80\BF\00\00\80\BF\00\00\80\BF\00\00\80\BF\00\00\80\BF\00\00\80\BF\00\00\80\BF\00\00\80\BF\00\00\80\BF\00\00\80\BF\00\00\80\BF\00\00\80\BF\00\00\80\BF\00\00\80\BF\00\00\80\BF\00\00\80\BF\00\00\80\BF\00\00\80\BF\00\00\80\BF\00\00\80\BF\00\00\80\BF\00\00\80\BF\00\00\80\BF\00\00\80\BF\00\00\80\BF\00\00\80\BF\00\00\80\BF\00\00\80\BF\00\00\80\BF\00\00\80\BF\00\00\80\BF\00\00\80\BF\00\00\80\BF\00\00\80\BF\00\00\80\BF\00\00\80\BF\00\00\80\BF\00\00\80\BF\00\00\80\BF\00\00\80\BF\00\00\80\BF\00\00\80\BF\00\00\80\BF\00\00\80\BF\00\00\80\BF\00\00\80\BF\00\00\80\BF\00\00\80\BF\00\00\80\BF\00\00\80\BF\00\00\80\BF\00\00\80\BF\00\00\80\BF\00\00\80\BF\00\00\80\BF\00\00\80\BF\00\00\80\BF\00\00\80\BF\00\00\80\BF\00\00\80\BF\00\00\80\BF\00\00\80\BF\00\00\80\BF\00\00\80\BF\00\00\80\BF\00\00\80\BF\00\00\80\BF\00\00\80\BF\00\00\80\BF\00\00\80\BF\00\00\80\BF\00\00\80\BF\00\00\80\BF\00\00\80\BF\00\00\80\BF\00\00\80\BF\00\00\80\BF\00\00\80\BF\00\00\80\BF\00\00\80\BF\00\00\80\BF\00\00\80\BF\00\00\80\BF\00\00\80\BF\00\00\80\BF\00\00\80\BF\00\00\80\BF\00\00\80\BF\00\00\80\BF\00\00\80\BF\00\00\80\BF\00\00\80\BF\00\00\80\BF\00\00\80\BF\00\00\80\BF\00\00\80\BF\00\00\80\BF\00\00\80\BF\00\00\80\BF\00\00\80\BF\00\00\80\BF\00\00\80\BF\00\00\80\BF\00\00\80\BF\00\00\80\BF\00\00\80\BF\00\00\80\BF\00\00\80\BF\00\00\80\BF\00\00\80\BF\00\00\80\BF\00\00\80\BF\00\00\80\BF\00\00\80\BF\00\00\80\BF\00\00\80\BF\00\00\80\BF\00\00\80\BF\00\00\80\BF\00\00\80\BF\00\00\80\BF\00\00\80\BF\00\00\80\BF\00\00\80\BF\00\00\80\BF\00\00\80\BF\00\00\80\BF\00\00\80\BF\00\00\80\BF\00\00\80\BF\00\00\80\BF\00\00\80\BF\00\00\80\BF\00\00\80\BF\00\00\80\BF\00\00\80\BF\00\00\80\BF\00\00\80\BF\00\00\80\BF\00\00\80\BF\00\00\80\BF\00\00\80\BF\00\00\80\BF\00\00\80\BF\00\00\80\BF\00\00\80\BF\00\00\80\BF\00\00\80\BF\00\00\80\BF\00\00\80\BF\00\00\80\BF\00\00\80\BF\00\00\80\BF\00\00\80\BF\00\00\80\BF\00\00\80\BF\00\00\80\BF\00\00\80\BF\00\00\80\BF\00\00\80\BF\00\00\80\BF\00\00\80\BF\00\00\80\BF\00\00\80\BF\00\00\80\BF\00\00\80\BF\00\00\80\BF\00\00\80\BF\00\00\80\BF\00\00\80\BF\00\00\80\BF\00\00\80\BF\00\00\80\BF\00\00\80\BF\00\00\80\BF\00\00\80\BF\00\00\80\BF\00\00\80\BF\00\00\80\BF\00\00\80\BF\00\00\80\BF\00\00\80\BF\00\00\80\BF\00\00\80\BF\00\00\80\BF\00\00\80\BF\00\00\80\BF\00\00\80\BF\00\00\80\BF\00\00\80\BF\00\00\80\BF\06\00\00\00\00\00\00\00`\0C\00\00\00\00\00\00\0B\00\00\00\00\00\00\00\18\00\00\00\00\00\00\00\05\00\00\00\00\00\00\00\98\0E\00\00\00\00\00\00\0A\00\00\00\00\00\00\00\B9\01\00\00\00\00\00\00\F5\FE\FFo\00\00\00\00\B0\0D\00\00\00\00\00\00\04\00\00\00\00\00\00\00 \0E\00\00\00\00\00\00\00\00\00\00\00\00\00\00\00\00\00\00\00\00\00\00\00Linker: LLD 16.0.0\00clang version 16.0.0 (https://github.com/llvm/llvm-project 809855b56f06dd7182685f88fbbc64111df9339a)\00\00\00\00\00\00\00\00\00\00\00\00\00\00\00\00\00\00\00\00\00\00\00\00\00\00\00\00\00\00\00\00\B9\01\00\00\00\02\08\00@S\00\00\00\00\00\00\00\00\00\00\00\00\00\00\01\00\00\00\12\03\07\00\00\22\00\00\00\00\00\00\88\08\00\00\00\00\00\00$\00\00\00\11\03\09\00\08d\00\00\00\00\00\00X\00\00\00\00\00\00\000\00\00\00\11\03\09\00\B0c\00\00\00\00\00\00X\00\00\00\00\00\00\008\00\00\00\11\03\06\00\80\10\00\00\00\00\00\00@\00\00\00\00\00\00\00^\00\00\00\12\03\07\00\00+\00\00\00\00\00\00\04\00\00\00\00\00\00\00\8B\00\00\00\11\03\06\00\C0\10\00\00\00\00\00\00@\00\00\00\00\00\00\00\BB\00\00\00\12\03\07\00\00,\00\00\00\00\00\00@\13\00\00\00\00\00\00\EF\00\00\00\11\03\06\00\00\11\00\00\00\00\00\00@\00\00\00\00\00\00\00&\01\00\00\11\03\09\00`d\00\00\00\00\00\00X\00\00\00\00\00\00\00-\01\00\00\11\03\09\00\B8d\00\00\00\00\00\00X\00\00\00\00\00\00\004\01\00\00!\03\06\00@\11\00\00\00\00\00\00\01\00\00\00\00\00\00\00`\01\00\00!\03\06\00A\11\00\00\00\00\00\00\01\00\00\00\00\00\00\00\8C\01\00\00!\03\06\00B\11\00\00\00\00\00\00\01\00\00\00\00\00\00\00\00.note\00.dynsym\00.gnu.hash\00.hash\00.dynstr\00.rodata\00.text\00.dynamic\00.bss\00.AMDGPU.csdata\00.comment\00.symtab\00.shstrtab\00.strtab\00\00_Z15mummergpuKernelPvPcS0_PKiS2_ii\00childrentex\00nodetex\00_Z15mummergpuKernelPvPcS0_PKiS2_ii.kd\00_Z17mummergpuRCKernelP10MatchCoordPcPKiS3_ii\00_Z17mummergpuRCKernelP10MatchCoordPcPKiS3_ii.kd\00_Z11printKernelP9MatchInfoiP9AlignmentPcPKiS5_iiiii\00_Z11printKernelP9MatchInfoiP9AlignmentPcPKiS5_iiiii.kd\00reftex\00qrytex\00_ZN17__HIP_CoordinatesI14__HIP_BlockIdxE1xE\00_ZN17__HIP_CoordinatesI14__HIP_BlockDimE1xE\00_ZN17__HIP_CoordinatesI15__HIP_ThreadIdxE1xE\00_DYNAMIC\00\00\00\00\00\00\00\00\00\00\00\00\00\00\00\00\00\00\00\00\00\00\00\00\00\00\00\00\00\00\00\00\00\00\00\00\00\00\00\00\00\00\00\00\00\00\00\00\00\00\00\00\00\00\00\00\00\00\00\00\00\00\00\00\00\00\01\00\00\00\07\00\00\00\02\00\00\00\00\00\00\008\02\00\00\00\00\00\008\02\00\00\00\00\00\00$\0A\00\00\00\00\00\00\00\00\00\00\00\00\00\00\04\00\00\00\00\00\00\00\00\00\00\00\00\00\00\00\07\00\00\00\0B\00\00\00\02\00\00\00\00\00\00\00`\0C\00\00\00\00\00\00`\0C\00\00\00\00\00\00P\01\00\00\00\00\00\00\05\00\00\00\01\00\00\00\08\00\00\00\00\00\00\00\18\00\00\00\00\00\00\00\0F\00\00\00\F6\FF\FFo\02\00\00\00\00\00\00\00\B0\0D\00\00\00\00\00\00\B0\0D\00\00\00\00\00\00p\00\00\00\00\00\00\00\02\00\00\00\00\00\00\00\08\00\00\00\00\00\00\00\00\00\00\00\00\00\00\00\19\00\00\00\05\00\00\00\02\00\00\00\00\00\00\00 \0E\00\00\00\00\00\00 \0E\00\00\00\00\00\00x\00\00\00\00\00\00\00\02\00\00\00\00\00\00\00\04\00\00\00\00\00\00\00\04\00\00\00\00\00\00\00\1F\00\00\00\03\00\00\00\02\00\00\00\00\00\00\00\98\0E\00\00\00\00\00\00\98\0E\00\00\00\00\00\00\B9\01\00\00\00\00\00\00\00\00\00\00\00\00\00\00\01\00\00\00\00\00\00\00\00\00\00\00\00\00\00\00'\00\00\00\01\00\00\00\02\00\00\00\00\00\00\00\80\10\00\00\00\00\00\00\80\10\00\00\00\00\00\00\C3\00\00\00\00\00\00\00\00\00\00\00\00\00\00\00@\00\00\00\00\00\00\00\00\00\00\00\00\00\00\00/\00\00\00\01\00\00\00\06\00\00\00\00\00\00\00\00\22\00\00\00\00\00\00\00\12\00\00\00\00\00\00@!\00\00\00\00\00\00\00\00\00\00\00\00\00\00\00\01\00\00\00\00\00\00\00\00\00\00\00\00\00\005\00\00\00\06\00\00\00\03\00\00\00\00\00\00\00@S\00\00\00\00\00\00@3\00\00\00\00\00\00p\00\00\00\00\00\00\00\05\00\00\00\00\00\00\00\08\00\00\00\00\00\00\00\10\00\00\00\00\00\00\00>\00\00\00\08\00\00\00\03\00\00\00\00\00\00\00\B0c\00\00\00\00\00\00\B03\00\00\00\00\00\00`\01\00\00\00\00\00\00\00\00\00\00\00\00\00\00\08\00\00\00\00\00\00\00\00\00\00\00\00\00\00\00C\00\00\00\01\00\00\00\00\00\00\00\00\00\00\00\00\00\00\00\00\00\00\00\B03\00\00\00\00\00\00\00\00\00\00\00\00\00\00\00\00\00\00\00\00\00\00\01\00\00\00\00\00\00\00\00\00\00\00\00\00\00\00R\00\00\00\01\00\00\000\00\00\00\00\00\00\00\00\00\00\00\00\00\00\00\B03\00\00\00\00\00\00y\00\00\00\00\00\00\00\00\00\00\00\00\00\00\00\01\00\00\00\00\00\00\00\01\00\00\00\00\00\00\00[\00\00\00\02\00\00\00\00\00\00\00\00\00\00\00\00\00\00\00\00\00\00\0004\00\00\00\00\00\00h\01\00\00\00\00\00\00\0E\00\00\00\02\00\00\00\08\00\00\00\00\00\00\00\18\00\00\00\00\00\00\00c\00\00\00\03\00\00\00\00\00\00\00\00\00\00\00\00\00\00\00\00\00\00\00\985\00\00\00\00\00\00u\00\00\00\00\00\00\00\00\00\00\00\00\00\00\00\01\00\00\00\00\00\00\00\00\00\00\00\00\00\00\00m\00\00\00\03\00\00\00\00\00\00\00\00\00\00\00\00\00\00\00\00\00\00\00\0D6\00\00\00\00\00\00\C2\01\00\00\00\00\00\00\00\00\00\00\00\00\00\00\01\00\00\00\00\00\00\00\00\00\00\00\00\00\00\00\00", section ".hip_fatbin", align 4096
@__hip_fatbin_wrapper = internal constant { i32, i32, ptr, ptr } { i32 1212764230, i32 1, ptr @7, ptr null }, section ".hipFatBinSegment", align 8
@__hip_gpubin_handle = internal global ptr null, align 8
@llvm.global_ctors = appending global [2 x { i32, ptr, ptr }] [{ i32, ptr, ptr } { i32 65535, ptr @_GLOBAL__sub_I_mummergpu_kernel.cu, ptr null }, { i32, ptr, ptr } { i32 65535, ptr @__hip_module_ctor, ptr null }]

; Function Attrs: uwtable
define internal void @__cxx_global_var_init() #0 section ".text.startup" {
  call void @_ZN7textureI15HIP_vector_typeIjLj4EELi2EL18hipTextureReadMode0EEC2Ei20hipTextureFilterMode21hipTextureAddressMode(ptr noundef nonnull align 8 dereferenceable(88) @nodetex, i32 noundef 0, i32 noundef 0, i32 noundef 1)
  ret void
}

; Function Attrs: uwtable
define linkonce_odr dso_local void @_ZN7textureI15HIP_vector_typeIjLj4EELi2EL18hipTextureReadMode0EEC2Ei20hipTextureFilterMode21hipTextureAddressMode(ptr noundef nonnull align 8 dereferenceable(88) %0, i32 noundef %1, i32 noundef %2, i32 noundef %3) unnamed_addr #0 comdat align 2 {
  %5 = alloca ptr, align 8
  %6 = alloca i32, align 4
  %7 = alloca i32, align 4
  %8 = alloca i32, align 4
  %9 = alloca %struct.hipChannelFormatDesc, align 4
  store ptr %0, ptr %5, align 8, !tbaa !5
  store i32 %1, ptr %6, align 4, !tbaa !9
  store i32 %2, ptr %7, align 4, !tbaa !11
  store i32 %3, ptr %8, align 4, !tbaa !13
  %10 = load ptr, ptr %5, align 8
  %11 = load i32, ptr %6, align 4, !tbaa !9
  %12 = getelementptr inbounds %struct.textureReference, ptr %10, i32 0, i32 0
  store i32 %11, ptr %12, align 8, !tbaa !15
  %13 = getelementptr inbounds %struct.textureReference, ptr %10, i32 0, i32 1
  store i32 0, ptr %13, align 4, !tbaa !22
  %14 = load i32, ptr %7, align 4, !tbaa !11
  %15 = getelementptr inbounds %struct.textureReference, ptr %10, i32 0, i32 2
  store i32 %14, ptr %15, align 8, !tbaa !23
  %16 = load i32, ptr %8, align 4, !tbaa !13
  %17 = getelementptr inbounds %struct.textureReference, ptr %10, i32 0, i32 3
  %18 = getelementptr inbounds [3 x i32], ptr %17, i64 0, i64 0
  store i32 %16, ptr %18, align 4, !tbaa !13
  %19 = load i32, ptr %8, align 4, !tbaa !13
  %20 = getelementptr inbounds %struct.textureReference, ptr %10, i32 0, i32 3
  %21 = getelementptr inbounds [3 x i32], ptr %20, i64 0, i64 1
  store i32 %19, ptr %21, align 4, !tbaa !13
  %22 = load i32, ptr %8, align 4, !tbaa !13
  %23 = getelementptr inbounds %struct.textureReference, ptr %10, i32 0, i32 3
  %24 = getelementptr inbounds [3 x i32], ptr %23, i64 0, i64 2
  store i32 %22, ptr %24, align 4, !tbaa !13
  call void @llvm.lifetime.start.p0(i64 20, ptr %9) #6
  call void @_ZL20hipCreateChannelDescI15HIP_vector_typeIjLj4EEE20hipChannelFormatDescv(ptr sret(%struct.hipChannelFormatDesc) align 4 %9)
  %25 = getelementptr inbounds %struct.textureReference, ptr %10, i32 0, i32 4
  call void @llvm.memcpy.p0.p0.i64(ptr align 8 %25, ptr align 4 %9, i64 20, i1 false), !tbaa.struct !24
  call void @llvm.lifetime.end.p0(i64 20, ptr %9) #6
  %26 = getelementptr inbounds %struct.textureReference, ptr %10, i32 0, i32 5
  store i32 0, ptr %26, align 4, !tbaa !26
  %27 = getelementptr inbounds %struct.textureReference, ptr %10, i32 0, i32 11
  store ptr null, ptr %27, align 8, !tbaa !27
  %28 = getelementptr inbounds %struct.textureReference, ptr %10, i32 0, i32 6
  store i32 0, ptr %28, align 8, !tbaa !28
  %29 = getelementptr inbounds %struct.textureReference, ptr %10, i32 0, i32 8
  store float 0.000000e+00, ptr %29, align 8, !tbaa !29
  %30 = getelementptr inbounds %struct.textureReference, ptr %10, i32 0, i32 9
  store float 0.000000e+00, ptr %30, align 4, !tbaa !30
  %31 = getelementptr inbounds %struct.textureReference, ptr %10, i32 0, i32 10
  store float 0.000000e+00, ptr %31, align 8, !tbaa !31
  ret void
}

; Function Attrs: uwtable
define internal void @__cxx_global_var_init.1() #0 section ".text.startup" {
  call void @_ZN7textureI15HIP_vector_typeIjLj4EELi2EL18hipTextureReadMode0EEC2Ei20hipTextureFilterMode21hipTextureAddressMode(ptr noundef nonnull align 8 dereferenceable(88) @childrentex, i32 noundef 0, i32 noundef 0, i32 noundef 1)
  ret void
}

; Function Attrs: uwtable
define internal void @__cxx_global_var_init.2() #0 section ".text.startup" {
  call void @_ZN7textureIcLi1EL18hipTextureReadMode0EEC2Ei20hipTextureFilterMode21hipTextureAddressMode(ptr noundef nonnull align 8 dereferenceable(88) @reftex, i32 noundef 0, i32 noundef 0, i32 noundef 1)
  ret void
}

; Function Attrs: uwtable
define linkonce_odr dso_local void @_ZN7textureIcLi1EL18hipTextureReadMode0EEC2Ei20hipTextureFilterMode21hipTextureAddressMode(ptr noundef nonnull align 8 dereferenceable(88) %0, i32 noundef %1, i32 noundef %2, i32 noundef %3) unnamed_addr #0 comdat align 2 {
  %5 = alloca ptr, align 8
  %6 = alloca i32, align 4
  %7 = alloca i32, align 4
  %8 = alloca i32, align 4
  %9 = alloca %struct.hipChannelFormatDesc, align 4
  store ptr %0, ptr %5, align 8, !tbaa !5
  store i32 %1, ptr %6, align 4, !tbaa !9
  store i32 %2, ptr %7, align 4, !tbaa !11
  store i32 %3, ptr %8, align 4, !tbaa !13
  %10 = load ptr, ptr %5, align 8
  %11 = load i32, ptr %6, align 4, !tbaa !9
  %12 = getelementptr inbounds %struct.textureReference, ptr %10, i32 0, i32 0
  store i32 %11, ptr %12, align 8, !tbaa !15
  %13 = getelementptr inbounds %struct.textureReference, ptr %10, i32 0, i32 1
  store i32 0, ptr %13, align 4, !tbaa !22
  %14 = load i32, ptr %7, align 4, !tbaa !11
  %15 = getelementptr inbounds %struct.textureReference, ptr %10, i32 0, i32 2
  store i32 %14, ptr %15, align 8, !tbaa !23
  %16 = load i32, ptr %8, align 4, !tbaa !13
  %17 = getelementptr inbounds %struct.textureReference, ptr %10, i32 0, i32 3
  %18 = getelementptr inbounds [3 x i32], ptr %17, i64 0, i64 0
  store i32 %16, ptr %18, align 4, !tbaa !13
  %19 = load i32, ptr %8, align 4, !tbaa !13
  %20 = getelementptr inbounds %struct.textureReference, ptr %10, i32 0, i32 3
  %21 = getelementptr inbounds [3 x i32], ptr %20, i64 0, i64 1
  store i32 %19, ptr %21, align 4, !tbaa !13
  %22 = load i32, ptr %8, align 4, !tbaa !13
  %23 = getelementptr inbounds %struct.textureReference, ptr %10, i32 0, i32 3
  %24 = getelementptr inbounds [3 x i32], ptr %23, i64 0, i64 2
  store i32 %22, ptr %24, align 4, !tbaa !13
  call void @llvm.lifetime.start.p0(i64 20, ptr %9) #6
  call void @_ZL20hipCreateChannelDescIcE20hipChannelFormatDescv(ptr sret(%struct.hipChannelFormatDesc) align 4 %9)
  %25 = getelementptr inbounds %struct.textureReference, ptr %10, i32 0, i32 4
  call void @llvm.memcpy.p0.p0.i64(ptr align 8 %25, ptr align 4 %9, i64 20, i1 false), !tbaa.struct !24
  call void @llvm.lifetime.end.p0(i64 20, ptr %9) #6
  %26 = getelementptr inbounds %struct.textureReference, ptr %10, i32 0, i32 5
  store i32 0, ptr %26, align 4, !tbaa !26
  %27 = getelementptr inbounds %struct.textureReference, ptr %10, i32 0, i32 11
  store ptr null, ptr %27, align 8, !tbaa !27
  %28 = getelementptr inbounds %struct.textureReference, ptr %10, i32 0, i32 6
  store i32 0, ptr %28, align 8, !tbaa !28
  %29 = getelementptr inbounds %struct.textureReference, ptr %10, i32 0, i32 8
  store float 0.000000e+00, ptr %29, align 8, !tbaa !29
  %30 = getelementptr inbounds %struct.textureReference, ptr %10, i32 0, i32 9
  store float 0.000000e+00, ptr %30, align 4, !tbaa !30
  %31 = getelementptr inbounds %struct.textureReference, ptr %10, i32 0, i32 10
  store float 0.000000e+00, ptr %31, align 8, !tbaa !31
  ret void
}

; Function Attrs: uwtable
define internal void @__cxx_global_var_init.3() #0 section ".text.startup" {
  call void @_ZN7textureIcLi1EL18hipTextureReadMode0EEC2Ei20hipTextureFilterMode21hipTextureAddressMode(ptr noundef nonnull align 8 dereferenceable(88) @qrytex, i32 noundef 0, i32 noundef 0, i32 noundef 1)
  ret void
}

; Function Attrs: norecurse uwtable
define dso_local void @_Z30__device_stub__mummergpuKernelPvPcS0_PKiS2_ii(ptr noundef %0, ptr noundef %1, ptr noundef %2, ptr noundef %3, ptr noundef %4, i32 noundef %5, i32 noundef %6) #1 {
  %8 = alloca ptr, align 8
  %9 = alloca ptr, align 8
  %10 = alloca ptr, align 8
  %11 = alloca ptr, align 8
  %12 = alloca ptr, align 8
  %13 = alloca i32, align 4
  %14 = alloca i32, align 4
  %15 = alloca %struct.dim3, align 8
  %16 = alloca %struct.dim3, align 8
  %17 = alloca i64, align 8
  %18 = alloca ptr, align 8
  %19 = alloca { i64, i32 }, align 8
  %20 = alloca { i64, i32 }, align 8
  store ptr %0, ptr %8, align 8, !tbaa !5
  store ptr %1, ptr %9, align 8, !tbaa !5
  store ptr %2, ptr %10, align 8, !tbaa !5
  store ptr %3, ptr %11, align 8, !tbaa !5
  store ptr %4, ptr %12, align 8, !tbaa !5
  store i32 %5, ptr %13, align 4, !tbaa !9
  store i32 %6, ptr %14, align 4, !tbaa !9
  %21 = alloca ptr, i64 7, align 16
  %22 = getelementptr ptr, ptr %21, i32 0
  store ptr %8, ptr %22, align 8
  %23 = getelementptr ptr, ptr %21, i32 1
  store ptr %9, ptr %23, align 8
  %24 = getelementptr ptr, ptr %21, i32 2
  store ptr %10, ptr %24, align 8
  %25 = getelementptr ptr, ptr %21, i32 3
  store ptr %11, ptr %25, align 8
  %26 = getelementptr ptr, ptr %21, i32 4
  store ptr %12, ptr %26, align 8
  %27 = getelementptr ptr, ptr %21, i32 5
  store ptr %13, ptr %27, align 8
  %28 = getelementptr ptr, ptr %21, i32 6
  store ptr %14, ptr %28, align 8
  %29 = call i32 @__hipPopCallConfiguration(ptr %15, ptr %16, ptr %17, ptr %18)
  %30 = load i64, ptr %17, align 8
  %31 = load ptr, ptr %18, align 8
  call void @llvm.memcpy.p0.p0.i64(ptr align 8 %19, ptr align 8 %15, i64 12, i1 false)
  %32 = getelementptr inbounds { i64, i32 }, ptr %19, i32 0, i32 0
  %33 = load i64, ptr %32, align 8
  %34 = getelementptr inbounds { i64, i32 }, ptr %19, i32 0, i32 1
  %35 = load i32, ptr %34, align 8
  call void @llvm.memcpy.p0.p0.i64(ptr align 8 %20, ptr align 8 %16, i64 12, i1 false)
  %36 = getelementptr inbounds { i64, i32 }, ptr %20, i32 0, i32 0
  %37 = load i64, ptr %36, align 8
  %38 = getelementptr inbounds { i64, i32 }, ptr %20, i32 0, i32 1
  %39 = load i32, ptr %38, align 8
  %40 = call noundef i32 @hipLaunchKernel(ptr noundef @_Z15mummergpuKernelPvPcS0_PKiS2_ii, i64 %33, i32 %35, i64 %37, i32 %39, ptr noundef %21, i64 noundef %30, ptr noundef %31)
  br label %41

41:                                               ; preds = %7
  ret void
}

declare i32 @__hipPopCallConfiguration(ptr, ptr, ptr, ptr)

declare i32 @hipLaunchKernel(ptr, i64, i32, i64, i32, ptr, i64, ptr)

; Function Attrs: argmemonly nocallback nofree nounwind willreturn
declare void @llvm.memcpy.p0.p0.i64(ptr noalias nocapture writeonly, ptr noalias nocapture readonly, i64, i1 immarg) #2

; Function Attrs: norecurse uwtable
define dso_local void @_Z32__device_stub__mummergpuRCKernelP10MatchCoordPcPKiS3_ii(ptr noundef %0, ptr noundef %1, ptr noundef %2, ptr noundef %3, i32 noundef %4, i32 noundef %5) #1 {
  %7 = alloca ptr, align 8
  %8 = alloca ptr, align 8
  %9 = alloca ptr, align 8
  %10 = alloca ptr, align 8
  %11 = alloca i32, align 4
  %12 = alloca i32, align 4
  %13 = alloca %struct.dim3, align 8
  %14 = alloca %struct.dim3, align 8
  %15 = alloca i64, align 8
  %16 = alloca ptr, align 8
  %17 = alloca { i64, i32 }, align 8
  %18 = alloca { i64, i32 }, align 8
  store ptr %0, ptr %7, align 8, !tbaa !5
  store ptr %1, ptr %8, align 8, !tbaa !5
  store ptr %2, ptr %9, align 8, !tbaa !5
  store ptr %3, ptr %10, align 8, !tbaa !5
  store i32 %4, ptr %11, align 4, !tbaa !9
  store i32 %5, ptr %12, align 4, !tbaa !9
  %19 = alloca ptr, i64 6, align 16
  %20 = getelementptr ptr, ptr %19, i32 0
  store ptr %7, ptr %20, align 8
  %21 = getelementptr ptr, ptr %19, i32 1
  store ptr %8, ptr %21, align 8
  %22 = getelementptr ptr, ptr %19, i32 2
  store ptr %9, ptr %22, align 8
  %23 = getelementptr ptr, ptr %19, i32 3
  store ptr %10, ptr %23, align 8
  %24 = getelementptr ptr, ptr %19, i32 4
  store ptr %11, ptr %24, align 8
  %25 = getelementptr ptr, ptr %19, i32 5
  store ptr %12, ptr %25, align 8
  %26 = call i32 @__hipPopCallConfiguration(ptr %13, ptr %14, ptr %15, ptr %16)
  %27 = load i64, ptr %15, align 8
  %28 = load ptr, ptr %16, align 8
  call void @llvm.memcpy.p0.p0.i64(ptr align 8 %17, ptr align 8 %13, i64 12, i1 false)
  %29 = getelementptr inbounds { i64, i32 }, ptr %17, i32 0, i32 0
  %30 = load i64, ptr %29, align 8
  %31 = getelementptr inbounds { i64, i32 }, ptr %17, i32 0, i32 1
  %32 = load i32, ptr %31, align 8
  call void @llvm.memcpy.p0.p0.i64(ptr align 8 %18, ptr align 8 %14, i64 12, i1 false)
  %33 = getelementptr inbounds { i64, i32 }, ptr %18, i32 0, i32 0
  %34 = load i64, ptr %33, align 8
  %35 = getelementptr inbounds { i64, i32 }, ptr %18, i32 0, i32 1
  %36 = load i32, ptr %35, align 8
  %37 = call noundef i32 @hipLaunchKernel(ptr noundef @_Z17mummergpuRCKernelP10MatchCoordPcPKiS3_ii, i64 %30, i32 %32, i64 %34, i32 %36, ptr noundef %19, i64 noundef %27, ptr noundef %28)
  br label %38

38:                                               ; preds = %6
  ret void
}

; Function Attrs: norecurse uwtable
define dso_local void @_Z26__device_stub__printKernelP9MatchInfoiP9AlignmentPcPKiS5_iiiii(ptr noundef %0, i32 noundef %1, ptr noundef %2, ptr noundef %3, ptr noundef %4, ptr noundef %5, i32 noundef %6, i32 noundef %7, i32 noundef %8, i32 noundef %9, i32 noundef %10) #1 {
  %12 = alloca ptr, align 8
  %13 = alloca i32, align 4
  %14 = alloca ptr, align 8
  %15 = alloca ptr, align 8
  %16 = alloca ptr, align 8
  %17 = alloca ptr, align 8
  %18 = alloca i32, align 4
  %19 = alloca i32, align 4
  %20 = alloca i32, align 4
  %21 = alloca i32, align 4
  %22 = alloca i32, align 4
  %23 = alloca %struct.dim3, align 8
  %24 = alloca %struct.dim3, align 8
  %25 = alloca i64, align 8
  %26 = alloca ptr, align 8
  %27 = alloca { i64, i32 }, align 8
  %28 = alloca { i64, i32 }, align 8
  store ptr %0, ptr %12, align 8, !tbaa !5
  store i32 %1, ptr %13, align 4, !tbaa !9
  store ptr %2, ptr %14, align 8, !tbaa !5
  store ptr %3, ptr %15, align 8, !tbaa !5
  store ptr %4, ptr %16, align 8, !tbaa !5
  store ptr %5, ptr %17, align 8, !tbaa !5
  store i32 %6, ptr %18, align 4, !tbaa !9
  store i32 %7, ptr %19, align 4, !tbaa !9
  store i32 %8, ptr %20, align 4, !tbaa !9
  store i32 %9, ptr %21, align 4, !tbaa !9
  store i32 %10, ptr %22, align 4, !tbaa !9
  %29 = alloca ptr, i64 11, align 16
  %30 = getelementptr ptr, ptr %29, i32 0
  store ptr %12, ptr %30, align 8
  %31 = getelementptr ptr, ptr %29, i32 1
  store ptr %13, ptr %31, align 8
  %32 = getelementptr ptr, ptr %29, i32 2
  store ptr %14, ptr %32, align 8
  %33 = getelementptr ptr, ptr %29, i32 3
  store ptr %15, ptr %33, align 8
  %34 = getelementptr ptr, ptr %29, i32 4
  store ptr %16, ptr %34, align 8
  %35 = getelementptr ptr, ptr %29, i32 5
  store ptr %17, ptr %35, align 8
  %36 = getelementptr ptr, ptr %29, i32 6
  store ptr %18, ptr %36, align 8
  %37 = getelementptr ptr, ptr %29, i32 7
  store ptr %19, ptr %37, align 8
  %38 = getelementptr ptr, ptr %29, i32 8
  store ptr %20, ptr %38, align 8
  %39 = getelementptr ptr, ptr %29, i32 9
  store ptr %21, ptr %39, align 8
  %40 = getelementptr ptr, ptr %29, i32 10
  store ptr %22, ptr %40, align 8
  %41 = call i32 @__hipPopCallConfiguration(ptr %23, ptr %24, ptr %25, ptr %26)
  %42 = load i64, ptr %25, align 8
  %43 = load ptr, ptr %26, align 8
  call void @llvm.memcpy.p0.p0.i64(ptr align 8 %27, ptr align 8 %23, i64 12, i1 false)
  %44 = getelementptr inbounds { i64, i32 }, ptr %27, i32 0, i32 0
  %45 = load i64, ptr %44, align 8
  %46 = getelementptr inbounds { i64, i32 }, ptr %27, i32 0, i32 1
  %47 = load i32, ptr %46, align 8
  call void @llvm.memcpy.p0.p0.i64(ptr align 8 %28, ptr align 8 %24, i64 12, i1 false)
  %48 = getelementptr inbounds { i64, i32 }, ptr %28, i32 0, i32 0
  %49 = load i64, ptr %48, align 8
  %50 = getelementptr inbounds { i64, i32 }, ptr %28, i32 0, i32 1
  %51 = load i32, ptr %50, align 8
  %52 = call noundef i32 @hipLaunchKernel(ptr noundef @_Z11printKernelP9MatchInfoiP9AlignmentPcPKiS5_iiiii, i64 %45, i32 %47, i64 %49, i32 %51, ptr noundef %29, i64 noundef %42, ptr noundef %43)
  br label %53

53:                                               ; preds = %11
  ret void
}

; Function Attrs: argmemonly nocallback nofree nosync nounwind willreturn
declare void @llvm.lifetime.start.p0(i64 immarg, ptr nocapture) #3

; Function Attrs: inlinehint mustprogress uwtable
define internal void @_ZL20hipCreateChannelDescI15HIP_vector_typeIjLj4EEE20hipChannelFormatDescv(ptr noalias sret(%struct.hipChannelFormatDesc) align 4 %0) #4 {
  %2 = alloca i32, align 4
  call void @llvm.lifetime.start.p0(i64 4, ptr %2) #6
  store i32 32, ptr %2, align 4, !tbaa !9
  %3 = load i32, ptr %2, align 4, !tbaa !9
  %4 = load i32, ptr %2, align 4, !tbaa !9
  %5 = load i32, ptr %2, align 4, !tbaa !9
  %6 = load i32, ptr %2, align 4, !tbaa !9
  call void @hipCreateChannelDesc(ptr sret(%struct.hipChannelFormatDesc) align 4 %0, i32 noundef %3, i32 noundef %4, i32 noundef %5, i32 noundef %6, i32 noundef 1)
  call void @llvm.lifetime.end.p0(i64 4, ptr %2) #6
  ret void
}

; Function Attrs: argmemonly nocallback nofree nosync nounwind willreturn
declare void @llvm.lifetime.end.p0(i64 immarg, ptr nocapture) #3

declare void @hipCreateChannelDesc(ptr sret(%struct.hipChannelFormatDesc) align 4, i32 noundef, i32 noundef, i32 noundef, i32 noundef, i32 noundef) #5

; Function Attrs: inlinehint mustprogress uwtable
define internal void @_ZL20hipCreateChannelDescIcE20hipChannelFormatDescv(ptr noalias sret(%struct.hipChannelFormatDesc) align 4 %0) #4 {
  %2 = alloca i32, align 4
  call void @llvm.lifetime.start.p0(i64 4, ptr %2) #6
  store i32 8, ptr %2, align 4, !tbaa !9
  %3 = load i32, ptr %2, align 4, !tbaa !9
  call void @hipCreateChannelDesc(ptr sret(%struct.hipChannelFormatDesc) align 4 %0, i32 noundef %3, i32 noundef 0, i32 noundef 0, i32 noundef 0, i32 noundef 0)
  call void @llvm.lifetime.end.p0(i64 4, ptr %2) #6
  ret void
}

; Function Attrs: uwtable
define internal void @_GLOBAL__sub_I_mummergpu_kernel.cu() #0 section ".text.startup" {
  call void @__cxx_global_var_init()
  call void @__cxx_global_var_init.1()
  call void @__cxx_global_var_init.2()
  call void @__cxx_global_var_init.3()
  ret void
}

define internal void @__hip_register_globals(ptr %0) {
  %2 = call i32 @__hipRegisterFunction(ptr %0, ptr @_Z15mummergpuKernelPvPcS0_PKiS2_ii, ptr @0, ptr @0, i32 -1, ptr null, ptr null, ptr null, ptr null, ptr null)
  %3 = call i32 @__hipRegisterFunction(ptr %0, ptr @_Z17mummergpuRCKernelP10MatchCoordPcPKiS3_ii, ptr @1, ptr @1, i32 -1, ptr null, ptr null, ptr null, ptr null, ptr null)
  %4 = call i32 @__hipRegisterFunction(ptr %0, ptr @_Z11printKernelP9MatchInfoiP9AlignmentPcPKiS5_iiiii, ptr @2, ptr @2, i32 -1, ptr null, ptr null, ptr null, ptr null, ptr null)
  call void @__hipRegisterTexture(ptr %0, ptr @nodetex, ptr @3, ptr @3, i32 2, i32 0, i32 0)
  call void @__hipRegisterTexture(ptr %0, ptr @childrentex, ptr @4, ptr @4, i32 2, i32 0, i32 0)
  call void @__hipRegisterTexture(ptr %0, ptr @reftex, ptr @5, ptr @5, i32 1, i32 0, i32 0)
  call void @__hipRegisterTexture(ptr %0, ptr @qrytex, ptr @6, ptr @6, i32 1, i32 0, i32 0)
  ret void
}

declare i32 @__hipRegisterFunction(ptr, ptr, ptr, ptr, i32, ptr, ptr, ptr, ptr, ptr)

declare void @__hipRegisterVar(ptr, ptr, ptr, ptr, i32, i64, i32, i32)

declare void @__hipRegisterManagedVar(ptr, ptr, ptr, ptr, i64, i32)

declare void @__hipRegisterSurface(ptr, ptr, ptr, ptr, i32, i32)

declare void @__hipRegisterTexture(ptr, ptr, ptr, ptr, i32, i32, i32)

declare ptr @__hipRegisterFatBinary(ptr)

define internal void @__hip_module_ctor() {
  %1 = load ptr, ptr @__hip_gpubin_handle, align 8
  %2 = icmp eq ptr %1, null
  br i1 %2, label %3, label %5

3:                                                ; preds = %0
  %4 = call ptr @__hipRegisterFatBinary(ptr @__hip_fatbin_wrapper)
  store ptr %4, ptr @__hip_gpubin_handle, align 8
  br label %5

5:                                                ; preds = %3, %0
  %6 = load ptr, ptr @__hip_gpubin_handle, align 8
  call void @__hip_register_globals(ptr %6)
  %7 = call i32 @atexit(ptr @__hip_module_dtor)
  ret void
}

declare void @__hipUnregisterFatBinary(ptr)

define internal void @__hip_module_dtor() {
  %1 = load ptr, ptr @__hip_gpubin_handle, align 8
  %2 = icmp ne ptr %1, null
  br i1 %2, label %3, label %4

3:                                                ; preds = %0
  call void @__hipUnregisterFatBinary(ptr %1)
  store ptr null, ptr @__hip_gpubin_handle, align 8
  br label %4

4:                                                ; preds = %3, %0
  ret void
}

declare i32 @atexit(ptr)

attributes #0 = { uwtable "frame-pointer"="none" "min-legal-vector-width"="0" "no-trapping-math"="true" "stack-protector-buffer-size"="8" "target-cpu"="x86-64" "target-features"="+cx8,+fxsr,+mmx,+sse,+sse2,+x87" "tune-cpu"="generic" }
attributes #1 = { norecurse uwtable "frame-pointer"="none" "min-legal-vector-width"="0" "no-trapping-math"="true" "stack-protector-buffer-size"="8" "target-cpu"="x86-64" "target-features"="+cx8,+fxsr,+mmx,+sse,+sse2,+x87" "tune-cpu"="generic" }
attributes #2 = { argmemonly nocallback nofree nounwind willreturn }
attributes #3 = { argmemonly nocallback nofree nosync nounwind willreturn }
attributes #4 = { inlinehint mustprogress uwtable "frame-pointer"="none" "min-legal-vector-width"="0" "no-trapping-math"="true" "stack-protector-buffer-size"="8" "target-cpu"="x86-64" "target-features"="+cx8,+fxsr,+mmx,+sse,+sse2,+x87" "tune-cpu"="generic" }
attributes #5 = { "frame-pointer"="none" "no-trapping-math"="true" "stack-protector-buffer-size"="8" "target-cpu"="x86-64" "target-features"="+cx8,+fxsr,+mmx,+sse,+sse2,+x87" "tune-cpu"="generic" }
attributes #6 = { nounwind }

!llvm.module.flags = !{!0, !1, !2, !3}
!llvm.ident = !{!4}

!0 = !{i32 1, !"wchar_size", i32 4}
!1 = !{i32 7, !"PIC Level", i32 2}
!2 = !{i32 7, !"PIE Level", i32 2}
!3 = !{i32 7, !"uwtable", i32 2}
!4 = !{!"clang version 16.0.0 (https://github.com/llvm/llvm-project 809855b56f06dd7182685f88fbbc64111df9339a)"}
!5 = !{!6, !6, i64 0}
!6 = !{!"any pointer", !7, i64 0}
!7 = !{!"omnipotent char", !8, i64 0}
!8 = !{!"Simple C++ TBAA"}
!9 = !{!10, !10, i64 0}
!10 = !{!"int", !7, i64 0}
!11 = !{!12, !12, i64 0}
!12 = !{!"_ZTS20hipTextureFilterMode", !7, i64 0}
!13 = !{!14, !14, i64 0}
!14 = !{!"_ZTS21hipTextureAddressMode", !7, i64 0}
!15 = !{!16, !10, i64 0}
!16 = !{!"_ZTS16textureReference", !10, i64 0, !17, i64 4, !12, i64 8, !7, i64 12, !18, i64 24, !10, i64 44, !10, i64 48, !12, i64 52, !20, i64 56, !20, i64 60, !20, i64 64, !6, i64 72, !10, i64 80, !21, i64 84}
!17 = !{!"_ZTS18hipTextureReadMode", !7, i64 0}
!18 = !{!"_ZTS20hipChannelFormatDesc", !10, i64 0, !10, i64 4, !10, i64 8, !10, i64 12, !19, i64 16}
!19 = !{!"_ZTS20hipChannelFormatKind", !7, i64 0}
!20 = !{!"float", !7, i64 0}
!21 = !{!"_ZTS15hipArray_Format", !7, i64 0}
!22 = !{!16, !17, i64 4}
!23 = !{!16, !12, i64 8}
!24 = !{i64 0, i64 4, !9, i64 4, i64 4, !9, i64 8, i64 4, !9, i64 12, i64 4, !9, i64 16, i64 4, !25}
!25 = !{!19, !19, i64 0}
!26 = !{!16, !10, i64 44}
!27 = !{!16, !6, i64 72}
!28 = !{!16, !10, i64 48}
!29 = !{!16, !20, i64 56}
!30 = !{!16, !20, i64 60}
!31 = !{!16, !20, i64 64}
