; ModuleID = 'kmeans_cuda-host-x86_64-unknown-linux-gnu.bc.translated_test.bc'
source_filename = "kmeans_cuda.cu"
target datalayout = "e-m:e-p270:32:32-p271:32:32-p272:64:64-i64:64-f80:128-n8:16:32:64-S128"
target triple = "x86_64-unknown-linux-gnu"

%struct.texture = type { %struct.textureReference }
%struct.textureReference = type { i32, i32, [3 x i32], %struct.cudaChannelFormatDesc, i32, i32, i32, float, float, float, i32, [14 x i32] }
%struct.cudaChannelFormatDesc = type { i32, i32, i32, i32, i32 }
%struct.dim3 = type { i32, i32, i32 }

$_ZN7textureIfLi1EL19cudaTextureReadMode0EEC2Ei21cudaTextureFilterMode22cudaTextureAddressMode = comdat any

$_ZN4dim3C2Ejjj = comdat any

$_Z21cudaCreateChannelDescIfE21cudaChannelFormatDescv = comdat any

@t_features = internal global %struct.texture zeroinitializer, align 4
@t_features_flipped = internal global %struct.texture zeroinitializer, align 4
@t_clusters = internal global %struct.texture zeroinitializer, align 4
@c_clusters = internal global [1088 x float] undef, align 16
@num_threads_perdim = global i32 16, align 4
@num_blocks_perdim = global i32 16, align 4
@num_threads = global i32 0, align 4
@num_blocks = global i32 0, align 4
@membership_new = global ptr null, align 8
@feature_d = global ptr null, align 8
@feature_flipped_d = global ptr null, align 8
@membership_d = global ptr null, align 8
@block_new_centers = global ptr null, align 8
@clusters_d = global ptr null, align 8
@block_clusters_d = global ptr null, align 8
@block_deltas_d = global ptr null, align 8
@.str = private unnamed_addr constant [42 x i8] c"Couldn't bind features array to texture!\0A\00", align 1
@.str.5 = private unnamed_addr constant [50 x i8] c"Couldn't bind features_flipped array to texture!\0A\00", align 1
@.str.6 = private unnamed_addr constant [42 x i8] c"Couldn't bind clusters array to texture!\0A\00", align 1
@.str.7 = private unnamed_addr constant [11 x i8] c"c_clusters\00", align 1
@0 = private unnamed_addr constant [25 x i8] c"_Z14invert_mappingPfS_ii\00", align 1
@1 = private unnamed_addr constant [30 x i8] c"_Z11kmeansPointPfiiiPiS_S_S0_\00", align 1
@2 = private unnamed_addr constant [11 x i8] c"t_features\00", align 1
@3 = private unnamed_addr constant [19 x i8] c"t_features_flipped\00", align 1
@4 = private unnamed_addr constant [11 x i8] c"t_clusters\00", align 1
@__cuda_fatbin_wrapper = internal constant { i32, i32, ptr, ptr } { i32 1212764230, i32 1, ptr @_cupbop_amdgpu_fatbin_wrapper, ptr null }, section ".hipFatBinSegment", align 8
@__cuda_gpubin_handle = internal global ptr null, align 8
@llvm.global_ctors = appending global [2 x { i32, ptr, ptr }] [{ i32, ptr, ptr } { i32 65535, ptr @_GLOBAL__sub_I_kmeans_cuda.cu, ptr null }, { i32, ptr, ptr } { i32 65535, ptr @__cuda_module_ctor, ptr null }]
@_cupbop_amdgpu_fatbin_wrapper = internal constant [15689 x i8] c"__CLANG_OFFLOAD_BUNDLE__\02\00\00\00\00\00\00\00\00\10\00\00\00\00\00\00\00\00\00\00\00\00\00\00\19\00\00\00\00\00\00\00host-x86_64-unknown-linux\00\10\00\00\00\00\00\00H-\00\00\00\00\00\00\1F\00\00\00\00\00\00\00hipv4-amdgcn-amd-amdhsa--gfx90a\00\00\00\00\00\00\00\00\00\00\00\00\00\00\00\00\00\00\00\00\00\00\00\00\00\00\00\00\00\00\00\00\00\00\00\00\00\00\00\00\00\00\00\00\00\00\00\00\00\00\00\00\00\00\00\00\00\00\00\00\00\00\00\00\00\00\00\00\00\00\00\00\00\00\00\00\00\00\00\00\00\00\00\00\00\00\00\00\00\00\00\00\00\00\00\00\00\00\00\00\00\00\00\00\00\00\00\00\00\00\00\00\00\00\00\00\00\00\00\00\00\00\00\00\00\00\00\00\00\00\00\00\00\00\00\00\00\00\00\00\00\00\00\00\00\00\00\00\00\00\00\00\00\00\00\00\00\00\00\00\00\00\00\00\00\00\00\00\00\00\00\00\00\00\00\00\00\00\00\00\00\00\00\00\00\00\00\00\00\00\00\00\00\00\00\00\00\00\00\00\00\00\00\00\00\00\00\00\00\00\00\00\00\00\00\00\00\00\00\00\00\00\00\00\00\00\00\00\00\00\00\00\00\00\00\00\00\00\00\00\00\00\00\00\00\00\00\00\00\00\00\00\00\00\00\00\00\00\00\00\00\00\00\00\00\00\00\00\00\00\00\00\00\00\00\00\00\00\00\00\00\00\00\00\00\00\00\00\00\00\00\00\00\00\00\00\00\00\00\00\00\00\00\00\00\00\00\00\00\00\00\00\00\00\00\00\00\00\00\00\00\00\00\00\00\00\00\00\00\00\00\00\00\00\00\00\00\00\00\00\00\00\00\00\00\00\00\00\00\00\00\00\00\00\00\00\00\00\00\00\00\00\00\00\00\00\00\00\00\00\00\00\00\00\00\00\00\00\00\00\00\00\00\00\00\00\00\00\00\00\00\00\00\00\00\00\00\00\00\00\00\00\00\00\00\00\00\00\00\00\00\00\00\00\00\00\00\00\00\00\00\00\00\00\00\00\00\00\00\00\00\00\00\00\00\00\00\00\00\00\00\00\00\00\00\00\00\00\00\00\00\00\00\00\00\00\00\00\00\00\00\00\00\00\00\00\00\00\00\00\00\00\00\00\00\00\00\00\00\00\00\00\00\00\00\00\00\00\00\00\00\00\00\00\00\00\00\00\00\00\00\00\00\00\00\00\00\00\00\00\00\00\00\00\00\00\00\00\00\00\00\00\00\00\00\00\00\00\00\00\00\00\00\00\00\00\00\00\00\00\00\00\00\00\00\00\00\00\00\00\00\00\00\00\00\00\00\00\00\00\00\00\00\00\00\00\00\00\00\00\00\00\00\00\00\00\00\00\00\00\00\00\00\00\00\00\00\00\00\00\00\00\00\00\00\00\00\00\00\00\00\00\00\00\00\00\00\00\00\00\00\00\00\00\00\00\00\00\00\00\00\00\00\00\00\00\00\00\00\00\00\00\00\00\00\00\00\00\00\00\00\00\00\00\00\00\00\00\00\00\00\00\00\00\00\00\00\00\00\00\00\00\00\00\00\00\00\00\00\00\00\00\00\00\00\00\00\00\00\00\00\00\00\00\00\00\00\00\00\00\00\00\00\00\00\00\00\00\00\00\00\00\00\00\00\00\00\00\00\00\00\00\00\00\00\00\00\00\00\00\00\00\00\00\00\00\00\00\00\00\00\00\00\00\00\00\00\00\00\00\00\00\00\00\00\00\00\00\00\00\00\00\00\00\00\00\00\00\00\00\00\00\00\00\00\00\00\00\00\00\00\00\00\00\00\00\00\00\00\00\00\00\00\00\00\00\00\00\00\00\00\00\00\00\00\00\00\00\00\00\00\00\00\00\00\00\00\00\00\00\00\00\00\00\00\00\00\00\00\00\00\00\00\00\00\00\00\00\00\00\00\00\00\00\00\00\00\00\00\00\00\00\00\00\00\00\00\00\00\00\00\00\00\00\00\00\00\00\00\00\00\00\00\00\00\00\00\00\00\00\00\00\00\00\00\00\00\00\00\00\00\00\00\00\00\00\00\00\00\00\00\00\00\00\00\00\00\00\00\00\00\00\00\00\00\00\00\00\00\00\00\00\00\00\00\00\00\00\00\00\00\00\00\00\00\00\00\00\00\00\00\00\00\00\00\00\00\00\00\00\00\00\00\00\00\00\00\00\00\00\00\00\00\00\00\00\00\00\00\00\00\00\00\00\00\00\00\00\00\00\00\00\00\00\00\00\00\00\00\00\00\00\00\00\00\00\00\00\00\00\00\00\00\00\00\00\00\00\00\00\00\00\00\00\00\00\00\00\00\00\00\00\00\00\00\00\00\00\00\00\00\00\00\00\00\00\00\00\00\00\00\00\00\00\00\00\00\00\00\00\00\00\00\00\00\00\00\00\00\00\00\00\00\00\00\00\00\00\00\00\00\00\00\00\00\00\00\00\00\00\00\00\00\00\00\00\00\00\00\00\00\00\00\00\00\00\00\00\00\00\00\00\00\00\00\00\00\00\00\00\00\00\00\00\00\00\00\00\00\00\00\00\00\00\00\00\00\00\00\00\00\00\00\00\00\00\00\00\00\00\00\00\00\00\00\00\00\00\00\00\00\00\00\00\00\00\00\00\00\00\00\00\00\00\00\00\00\00\00\00\00\00\00\00\00\00\00\00\00\00\00\00\00\00\00\00\00\00\00\00\00\00\00\00\00\00\00\00\00\00\00\00\00\00\00\00\00\00\00\00\00\00\00\00\00\00\00\00\00\00\00\00\00\00\00\00\00\00\00\00\00\00\00\00\00\00\00\00\00\00\00\00\00\00\00\00\00\00\00\00\00\00\00\00\00\00\00\00\00\00\00\00\00\00\00\00\00\00\00\00\00\00\00\00\00\00\00\00\00\00\00\00\00\00\00\00\00\00\00\00\00\00\00\00\00\00\00\00\00\00\00\00\00\00\00\00\00\00\00\00\00\00\00\00\00\00\00\00\00\00\00\00\00\00\00\00\00\00\00\00\00\00\00\00\00\00\00\00\00\00\00\00\00\00\00\00\00\00\00\00\00\00\00\00\00\00\00\00\00\00\00\00\00\00\00\00\00\00\00\00\00\00\00\00\00\00\00\00\00\00\00\00\00\00\00\00\00\00\00\00\00\00\00\00\00\00\00\00\00\00\00\00\00\00\00\00\00\00\00\00\00\00\00\00\00\00\00\00\00\00\00\00\00\00\00\00\00\00\00\00\00\00\00\00\00\00\00\00\00\00\00\00\00\00\00\00\00\00\00\00\00\00\00\00\00\00\00\00\00\00\00\00\00\00\00\00\00\00\00\00\00\00\00\00\00\00\00\00\00\00\00\00\00\00\00\00\00\00\00\00\00\00\00\00\00\00\00\00\00\00\00\00\00\00\00\00\00\00\00\00\00\00\00\00\00\00\00\00\00\00\00\00\00\00\00\00\00\00\00\00\00\00\00\00\00\00\00\00\00\00\00\00\00\00\00\00\00\00\00\00\00\00\00\00\00\00\00\00\00\00\00\00\00\00\00\00\00\00\00\00\00\00\00\00\00\00\00\00\00\00\00\00\00\00\00\00\00\00\00\00\00\00\00\00\00\00\00\00\00\00\00\00\00\00\00\00\00\00\00\00\00\00\00\00\00\00\00\00\00\00\00\00\00\00\00\00\00\00\00\00\00\00\00\00\00\00\00\00\00\00\00\00\00\00\00\00\00\00\00\00\00\00\00\00\00\00\00\00\00\00\00\00\00\00\00\00\00\00\00\00\00\00\00\00\00\00\00\00\00\00\00\00\00\00\00\00\00\00\00\00\00\00\00\00\00\00\00\00\00\00\00\00\00\00\00\00\00\00\00\00\00\00\00\00\00\00\00\00\00\00\00\00\00\00\00\00\00\00\00\00\00\00\00\00\00\00\00\00\00\00\00\00\00\00\00\00\00\00\00\00\00\00\00\00\00\00\00\00\00\00\00\00\00\00\00\00\00\00\00\00\00\00\00\00\00\00\00\00\00\00\00\00\00\00\00\00\00\00\00\00\00\00\00\00\00\00\00\00\00\00\00\00\00\00\00\00\00\00\00\00\00\00\00\00\00\00\00\00\00\00\00\00\00\00\00\00\00\00\00\00\00\00\00\00\00\00\00\00\00\00\00\00\00\00\00\00\00\00\00\00\00\00\00\00\00\00\00\00\00\00\00\00\00\00\00\00\00\00\00\00\00\00\00\00\00\00\00\00\00\00\00\00\00\00\00\00\00\00\00\00\00\00\00\00\00\00\00\00\00\00\00\00\00\00\00\00\00\00\00\00\00\00\00\00\00\00\00\00\00\00\00\00\00\00\00\00\00\00\00\00\00\00\00\00\00\00\00\00\00\00\00\00\00\00\00\00\00\00\00\00\00\00\00\00\00\00\00\00\00\00\00\00\00\00\00\00\00\00\00\00\00\00\00\00\00\00\00\00\00\00\00\00\00\00\00\00\00\00\00\00\00\00\00\00\00\00\00\00\00\00\00\00\00\00\00\00\00\00\00\00\00\00\00\00\00\00\00\00\00\00\00\00\00\00\00\00\00\00\00\00\00\00\00\00\00\00\00\00\00\00\00\00\00\00\00\00\00\00\00\00\00\00\00\00\00\00\00\00\00\00\00\00\00\00\00\00\00\00\00\00\00\00\00\00\00\00\00\00\00\00\00\00\00\00\00\00\00\00\00\00\00\00\00\00\00\00\00\00\00\00\00\00\00\00\00\00\00\00\00\00\00\00\00\00\00\00\00\00\00\00\00\00\00\00\00\00\00\00\00\00\00\00\00\00\00\00\00\00\00\00\00\00\00\00\00\00\00\00\00\00\00\00\00\00\00\00\00\00\00\00\00\00\00\00\00\00\00\00\00\00\00\00\00\00\00\00\00\00\00\00\00\00\00\00\00\00\00\00\00\00\00\00\00\00\00\00\00\00\00\00\00\00\00\00\00\00\00\00\00\00\00\00\00\00\00\00\00\00\00\00\00\00\00\00\00\00\00\00\00\00\00\00\00\00\00\00\00\00\00\00\00\00\00\00\00\00\00\00\00\00\00\00\00\00\00\00\00\00\00\00\00\00\00\00\00\00\00\00\00\00\00\00\00\00\00\00\00\00\00\00\00\00\00\00\00\00\00\00\00\00\00\00\00\00\00\00\00\00\00\00\00\00\00\00\00\00\00\00\00\00\00\00\00\00\00\00\00\00\00\00\00\00\00\00\00\00\00\00\00\00\00\00\00\00\00\00\00\00\00\00\00\00\00\00\00\00\00\00\00\00\00\00\00\00\00\00\00\00\00\00\00\00\00\00\00\00\00\00\00\00\00\00\00\00\00\00\00\00\00\00\00\00\00\00\00\00\00\00\00\00\00\00\00\00\00\00\00\00\00\00\00\00\00\00\00\00\00\00\00\00\00\00\00\00\00\00\00\00\00\00\00\00\00\00\00\00\00\00\00\00\00\00\00\00\00\00\00\00\00\00\00\00\00\00\00\00\00\00\00\00\00\00\00\00\00\00\00\00\00\00\00\00\00\00\00\00\00\00\00\00\00\00\00\00\00\00\00\00\00\00\00\00\00\00\00\00\00\00\00\00\00\00\00\00\00\00\00\00\00\00\00\00\00\00\00\00\00\00\00\00\00\00\00\00\00\00\00\00\00\00\00\00\00\00\00\00\00\00\00\00\00\00\00\00\00\00\00\00\00\00\00\00\00\00\00\00\00\00\00\00\00\00\00\00\00\00\00\00\00\00\00\00\00\00\00\00\00\00\00\00\00\00\00\00\00\00\00\00\00\00\00\00\00\00\00\00\00\00\00\00\00\00\00\00\00\00\00\00\00\00\00\00\00\00\00\00\00\00\00\00\00\00\00\00\00\00\00\00\00\00\00\00\00\00\00\00\00\00\00\00\00\00\00\00\00\00\00\00\00\00\00\00\00\00\00\00\00\00\00\00\00\00\00\00\00\00\00\00\00\00\00\00\00\00\00\00\00\00\00\00\00\00\00\00\00\00\00\00\00\00\00\00\00\00\00\00\00\00\00\00\00\00\00\00\00\00\00\00\00\00\00\00\00\00\00\00\00\00\00\00\00\00\00\00\00\00\00\00\00\00\00\00\00\00\00\00\00\00\00\00\00\00\00\00\00\00\00\00\00\00\00\00\00\00\00\00\00\00\00\00\00\00\00\00\00\00\00\00\00\00\00\00\00\00\00\00\00\00\00\00\00\00\00\00\00\00\00\00\00\00\00\00\00\00\00\00\00\00\00\00\00\00\00\00\00\00\00\00\00\00\00\00\00\00\00\00\00\00\00\00\00\00\00\00\00\00\00\00\00\00\00\00\00\00\00\00\00\00\00\00\00\00\00\00\00\00\00\00\00\00\00\00\00\00\00\00\00\00\00\00\00\00\00\00\00\00\00\00\00\00\00\00\00\00\00\00\00\00\00\00\00\00\00\00\00\00\00\00\00\00\00\00\00\00\00\00\00\00\00\00\00\00\00\00\00\00\00\00\00\00\00\00\00\00\00\00\00\00\00\00\00\00\00\00\00\00\00\00\00\00\00\00\00\00\00\00\00\00\00\00\00\00\00\00\00\00\00\00\00\00\00\00\00\00\00\00\00\00\00\00\00\00\00\00\00\00\00\00\00\00\00\00\00\00\00\00\00\00\00\00\00\00\00\00\00\00\00\00\00\00\00\00\00\00\00\00\00\00\00\00\00\00\00\00\00\00\00\00\00\00\00\00\00\00\00\00\00\00\00\00\00\00\00\00\00\00\00\00\00\00\00\00\00\00\00\00\00\00\00\00\00\00\00\00\00\00\00\00\00\00\00\00\00\00\00\00\00\00\00\00\00\00\00\00\00\00\00\00\00\00\00\00\00\00\00\00\00\00\00\00\00\00\00\00\00\00\00\00\00\00\00\00\00\00\00\00\00\00\00\00\00\00\00\00\00\00\00\00\00\00\00\00\00\00\00\00\00\00\00\00\00\00\00\00\00\00\00\00\00\00\00\00\00\00\00\00\00\00\00\00\00\00\00\00\00\00\00\00\00\00\00\00\00\00\00\00\00\00\00\00\00\00\00\00\00\00\00\00\00\00\00\00\00\00\00\00\00\00\00\00\00\00\00\00\00\00\00\00\00\00\00\00\00\00\00\00\00\00\00\00\00\00\00\00\00\00\00\00\00\00\00\00\00\00\00\00\00\00\00\00\00\00\00\00\00\00\00\00\00\00\00\00\00\00\00\00\00\00\00\00\00\00\00\00\00\00\00\00\00\00\00\00\00\00\00\00\00\00\00\00\00\00\00\00\00\00\00\00\00\00\00\00\00\00\00\00\00\00\00\00\00\00\00\00\00\00\00\00\00\00\00\00\00\00\00\00\00\00\00\00\00\00\00\00\00\00\00\00\00\00\00\00\00\00\00\00\00\00\00\00\00\00\00\00\00\00\00\00\00\00\00\00\00\00\00\00\00\00\00\00\00\00\00\00\00\00\00\00\00\00\00\00\00\00\00\00\00\00\00\00\00\00\00\00\00\00\00\00\00\00\00\00\00\00\00\00\00\00\00\00\00\00\00\00\00\00\00\00\00\00\00\00\00\00\00\00\00\00\00\00\00\00\00\00\00\00\00\00\00\00\00\00\00\00\00\00\00\00\00\00\00\00\00\00\00\00\00\00\00\00\00\00\00\00\00\00\00\00\00\00\00\00\00\00\00\00\00\00\00\00\00\00\00\00\00\00\00\00\00\00\00\00\00\00\00\00\00\00\00\00\00\00\00\00\00\00\00\00\00\00\00\00\00\00\00\00\00\00\00\00\00\00\00\00\00\00\00\00\00\00\00\00\00\00\00\00\00\00\00\00\00\00\00\00\00\00\00\00\00\00\00\00\00\00\00\00\00\00\00\00\00\00\00\00\00\00\00\00\00\00\00\00\00\00\00\00\00\00\00\00\00\00\00\00\00\00\00\00\00\00\00\00\00\00\00\00\00\00\00\00\00\00\00\00\00\00\00\00\00\00\00\00\00\00\00\00\00\00\00\00\00\00\00\00\00\00\00\00\00\00\00\00\00\00\00\00\00\00\00\00\00\00\00\00\00\00\00\00\00\00\00\00\00\00\00\00\00\00\00\00\00\00\00\00\00\00\00\00\00\00\00\00\00\00\00\00\00\00\00\00\00\00\00\00\00\00\00\00\00\00\00\00\00\00\00\00\00\00\00\00\00\00\00\00\00\00\00\00\00\00\00\00\00\00\00\00\00\00\00\00\00\00\00\00\00\00\00\00\00\00\00\00\00\00\00\00\00\00\00\00\00\00\00\00\00\00\00\00\00\00\00\00\00\00\00\00\00\00\00\00\00\00\00\00\00\00\00\00\00\00\00\00\00\00\00\00\00\00\00\00\00\00\00\00\00\00\00\00\00\00\00\00\00\00\00\00\00\00\00\00\00\00\00\00\00\00\00\00\00\00\00\00\00\00\00\00\00\00\00\00\00\00\00\00\00\00\00\00\00\00\00\00\00\00\00\00\00\00\00\00\00\00\00\00\00\00\00\00\00\00\00\00\00\00\00\00\00\00\00\00\00\00\00\00\00\00\00\00\00\00\00\00\00\00\00\00\00\00\00\00\00\00\00\00\00\00\00\00\00\00\00\00\00\00\00\00\00\00\00\00\00\00\00\00\00\00\00\00\00\00\00\00\00\00\00\00\00\00\00\00\00\00\00\00\00\00\00\00\00\00\00\00\00\00\00\00\00\00\00\00\00\00\00\00\00\00\00\00\00\00\00\00\00\00\00\00\00\00\00\00\00\00\00\00\00\00\00\00\00\00\00\00\00\00\00\00\00\00\00\00\00\00\00\00\00\00\00\00\00\00\00\00\00\00\00\00\00\00\00\00\00\00\00\00\00\00\00\00\00\00\7FELF\02\01\01@\02\00\00\00\00\00\00\00\03\00\E0\00\01\00\00\00\00\00\00\00\00\00\00\00@\00\00\00\00\00\00\00\08)\00\00\00\00\00\00?\05\00\00@\008\00\09\00@\00\11\00\0F\00\06\00\00\00\04\00\00\00@\00\00\00\00\00\00\00@\00\00\00\00\00\00\00@\00\00\00\00\00\00\00\F8\01\00\00\00\00\00\00\F8\01\00\00\00\00\00\00\08\00\00\00\00\00\00\00\01\00\00\00\04\00\00\00\00\00\00\00\00\00\00\00\00\00\00\00\00\00\00\00\00\00\00\00\00\00\00\00\80\0D\00\00\00\00\00\00\80\0D\00\00\00\00\00\00\00\10\00\00\00\00\00\00\01\00\00\00\05\00\00\00\00\0E\00\00\00\00\00\00\00\1E\00\00\00\00\00\00\00\1E\00\00\00\00\00\00\80\17\00\00\00\00\00\00\80\17\00\00\00\00\00\00\00\10\00\00\00\00\00\00\01\00\00\00\06\00\00\00\80%\00\00\00\00\00\00\80E\00\00\00\00\00\00\80E\00\00\00\00\00\00\B0\00\00\00\00\00\00\00\B0\00\00\00\00\00\00\00\00\10\00\00\00\00\00\00\01\00\00\00\06\00\00\000&\00\00\00\00\00\000V\00\00\00\00\00\000V\00\00\00\00\00\00\00\00\00\00\00\00\00\00\18\12\00\00\00\00\00\00\00\10\00\00\00\00\00\00\02\00\00\00\06\00\00\00\80%\00\00\00\00\00\00\80E\00\00\00\00\00\00\80E\00\00\00\00\00\00\A0\00\00\00\00\00\00\00\A0\00\00\00\00\00\00\00\08\00\00\00\00\00\00\00R\E5td\04\00\00\00\80%\00\00\00\00\00\00\80E\00\00\00\00\00\00\80E\00\00\00\00\00\00\B0\00\00\00\00\00\00\00\80\0A\00\00\00\00\00\00\01\00\00\00\00\00\00\00Q\E5td\06\00\00\00\00\00\00\00\00\00\00\00\00\00\00\00\00\00\00\00\00\00\00\00\00\00\00\00\00\00\00\00\00\00\00\00\00\00\00\00\00\00\00\00\00\00\00\00\00\00\00\00\04\00\00\00\04\00\00\008\02\00\00\00\00\00\008\02\00\00\00\00\00\008\02\00\00\00\00\00\00x\08\00\00\00\00\00\00x\08\00\00\00\00\00\00\04\00\00\00\00\00\00\00\07\00\00\00d\08\00\00 \00\00\00AMDGPU\00\00\83\AEamdhsa.kernels\92\DE\00\11\AB.agpr_count\00\A5.args\9B\84\AE.address_space\A6global\A7.offset\00\A5.size\08\AB.value_kind\ADglobal_buffer\84\AE.address_space\A6global\A7.offset\08\A5.size\08\AB.value_kind\ADglobal_buffer\83\A7.offset\10\A5.size\04\AB.value_kind\A8by_value\83\A7.offset\14\A5.size\04\AB.value_kind\A8by_value\83\A7.offset\18\A5.size\08\AB.value_kind\B6hidden_global_offset_x\83\A7.offset \A5.size\08\AB.value_kind\B6hidden_global_offset_y\83\A7.offset(\A5.size\08\AB.value_kind\B6hidden_global_offset_z\83\A7.offset0\A5.size\08\AB.value_kind\B6hidden_hostcall_buffer\83\A7.offset8\A5.size\08\AB.value_kind\ABhidden_none\83\A7.offset@\A5.size\08\AB.value_kind\ABhidden_none\83\A7.offsetH\A5.size\08\AB.value_kind\B9hidden_multigrid_sync_arg\B9.group_segment_fixed_size\00\B6.kernarg_segment_align\08\B5.kernarg_segment_sizeP\A9.language\A8OpenCL C\B1.language_version\92\02\00\B8.max_flat_workgroup_size\CD\04\00\A5.name\B8_Z14invert_mappingPfS_ii\BB.private_segment_fixed_size(\AB.sgpr_count(\B1.sgpr_spill_count\00\A7.symbol\BB_Z14invert_mappingPfS_ii.kd\B3.uses_dynamic_stack\C2\AB.vgpr_count\14\B1.vgpr_spill_count\00\AF.wavefront_size@\DE\00\11\AB.agpr_count\00\A5.args\9F\84\AE.address_space\A6global\A7.offset\00\A5.size\08\AB.value_kind\ADglobal_buffer\83\A7.offset\08\A5.size\04\AB.value_kind\A8by_value\83\A7.offset\0C\A5.size\04\AB.value_kind\A8by_value\83\A7.offset\10\A5.size\04\AB.value_kind\A8by_value\84\AE.address_space\A6global\A7.offset\18\A5.size\08\AB.value_kind\ADglobal_buffer\84\AE.address_space\A6global\A7.offset \A5.size\08\AB.value_kind\ADglobal_buffer\84\AE.address_space\A6global\A7.offset(\A5.size\08\AB.value_kind\ADglobal_buffer\84\AE.address_space\A6global\A7.offset0\A5.size\08\AB.value_kind\ADglobal_buffer\83\A7.offset8\A5.size\08\AB.value_kind\B6hidden_global_offset_x\83\A7.offset@\A5.size\08\AB.value_kind\B6hidden_global_offset_y\83\A7.offsetH\A5.size\08\AB.value_kind\B6hidden_global_offset_z\83\A7.offsetP\A5.size\08\AB.value_kind\B6hidden_hostcall_buffer\83\A7.offsetX\A5.size\08\AB.value_kind\ABhidden_none\83\A7.offset`\A5.size\08\AB.value_kind\ABhidden_none\83\A7.offseth\A5.size\08\AB.value_kind\B9hidden_multigrid_sync_arg\B9.group_segment_fixed_size\00\B6.kernarg_segment_align\08\B5.kernarg_segment_sizep\A9.language\A8OpenCL C\B1.language_version\92\02\00\B8.max_flat_workgroup_size\CD\04\00\A5.name\BD_Z11kmeansPointPfiiiPiS_S_S0_\BB.private_segment_fixed_size\CC\D0\AB.sgpr_count(\B1.sgpr_spill_count\00\A7.symbol\D9 _Z11kmeansPointPfiiiPiS_S_S0_.kd\B3.uses_dynamic_stack\C2\AB.vgpr_count$\B1.vgpr_spill_count\00\AF.wavefront_size@\ADamdhsa.target\B9amdgcn-amd-amdhsa--gfx90a\AEamdhsa.version\92\01\01\00\00\00\00\00\00\00\00\00\00\00\00\00\00\00\00\00\00\00\00\00\00\00\00\01\00\00\00\12\03\08\00\00\1E\00\00\00\00\00\00X\02\00\00\00\00\00\00_\00\00\00\11\00\0B\000V\00\00\00\00\00\00\00\11\00\00\00\00\00\00j\00\00\00\11\00\07\00@\0D\00\00\00\00\00\00@\00\00\00\00\00\00\00\8B\00\00\00\11\00\0B\00\90g\00\00\00\00\00\00X\00\00\00\00\00\00\00\1A\00\00\00\11\00\07\00\00\0D\00\00\00\00\00\00@\00\00\00\00\00\00\006\00\00\00\12\03\08\00\00!\00\00\00\00\00\00l\10\00\00\00\00\00\00T\00\00\00\11\00\0B\000g\00\00\00\00\00\00X\00\00\00\00\00\00\00\9E\00\00\00\11\00\0B\00\F0g\00\00\00\00\00\00X\00\00\00\00\00\00\00\02\00\00\00\01\00\00\00\02\00\00\00\1A\00\00\00\10\80\80\94\01\10@\10\00 \00\02\00\02\00\22\01\00\00\00\05\00\00\00\A0\BB4<\1C\CFF\F0\B6I\B1\11\1BV\9A||i\97\A6x\DE\F2d\96\F5S\B0Mr\FA4\09\00\00\00\09\00\00\00\02\00\00\00\05\00\00\00\04\00\00\00\06\00\00\00\08\00\00\00\03\00\00\00\00\00\00\00\00\00\00\00\07\00\00\00\00\00\00\00\00\00\00\00\00\00\00\00\00\00\00\00\01\00\00\00\00\00\00\00\00\00\00\00\00\00\00\00\00\00\00\00\00_Z14invert_mappingPfS_ii\00_Z14invert_mappingPfS_ii.kd\00_Z11kmeansPointPfiiiPiS_S_S0_\00t_features\00c_clusters\00_Z11kmeansPointPfiiiPiS_S_S0_.kd\00t_features_flipped\00t_clusters\00\00\00\00\00\00\00\00(F\00\00\00\00\00\00\03\00\00\00\02\00\00\00\00\00\00\00\00\00\00\00 F\00\00\00\00\00\00\03\00\00\00\07\00\00\00\00\00\00\00\00\00\00\00\00\00\00\00(\00\00\00P\00\00\00\00\00\00\00\00\11\00\00\00\00\00\00\00\00\00\00\00\00\00\00\00\00\00\00\00\00\00\00\00\00\00\00\04\00\00\00\02\01\AF\00\9D\13\00\00?\00\00\00\00\00\00\00\00\00\00\00\D0\00\00\00p\00\00\00\00\00\00\00\C0\13\00\00\00\00\00\00\00\00\00\00\00\00\00\00\00\00\00\00\00\00\00\00\00\00\00\00\08\00\00\00\04\01\AF\00\9D\13\00\00?\00\00\00\00\00\00\00\00\00\00\00\00\00\00\00\00\00\00\00\00\00\00\00\00\00\00\00\00\00\00\00\00\00\00\00\00\00\00\00\00\00\00\00\00\00\00\00\00\00\00\00\00\00\00\00\00\00\00\00\00\00\00\00\00\00\00\00\00\00\00\00\00\00\00\00\00\00\00\00\00\00\00\00\00\00\00\00\00\00\00\00\00\00\00\00\00\00\00\00\00\00\00\00\00\00\00\00\00\00\00\00\00\00\00\00\00\00\00\00\00\00\00\00\00\00\00\00\00\00\00\00\00\00\00\00\80\00\A1\BE\0C\11f\80\0D\80g\82\00\11\00\80\01\80\01\82\84\01\06\C0\00\00\00\00\84\02\06\C0\08\00\00\00\04\03\02\C0\10\00\00\00\00\00\80\BF\04\02\02\C0\14\00\00\00\0Fx\89\B8\09\90\09\8E\88\02\04~\09\02\06~\90\02\08~\09\02\0A~\98\02\0C~\09\02\0E~\9C\02\10~\09\02\12~\A0\02\14~\09\02\16~\7F\C0\8C\BF\0CP\B3\D3\06\0C\00\18\00\00t\DC\02\0C\00\00\0CP\B3\D3\0A\14\00\18\00\00t\DC\04\0C\00\00\0C\02\02~\00\00p\DC\06\01\00\00\08\02\02~\00\00p\DC\08\01\00\00\80\02\02~\04\80I\DC\01\00\04\01p\0F\8C\BF\01\00\85\D2\01\1D\00\00\FF\00\84\BE\FF\03\00\00\00\00\13\D1\00\09\00\00\00\004\D1\00\03\02\00\00\00p\DC\0A\00\00\00\00\00P\DC\0A\00\00\00\00\00\80\BF\00\00P\DC\06\00\00\01p\00\8C\BF\06\00\C1\D0\00\03\02\00~\01\84\BE\04\06\86\86\06\01\FE\BE\09\00\88\BF\0Fx\86\B8\06\90\06\8E\A4\02\00~\06\02\02~\80\02\18~\00\00p\DC\00\0C\00\00\80\01\86\BE\02\00\82\BF~\04\FE\87G\00\82\BF\00\00P\DC\00\00\00\0C\00\00P\DC\08\00\00\0Dp\00\8C\BF\0C\00\C1\D0\0C\1B\02\00\C1\01\8A\BE\08~\88\87~\01\8A\BE\0A\0C\8C\86\0C\01\FE\BE)\00\88\BF\00\00T\DC\02\00\00\0C\00\00P\DC\0A\00\00\0E\00\00P\DC\08\00\00\0F\00\00P\DC\00\00\00\10p\00\8C\BF\12\0C\E8\D1\0E\1FB\04\13\00\11\D1\9F$\02\00\82\00\8E\BE\12\00\8F\D2\0E$\02\00\0C\0C\19\D1\0C%\02\00\0D\0C\1C\D1\0D'2\00\00\00P\DC\0C\00\00\11\00\00\80\BF\00\00T\DC\04\00\00\0C\00\00P\DC\06\00\00\0Fp\00\8C\BF\0E\0C\E8\D1\0F!:\04\0F\00\11\D1\9F\1C\02\00\0E\00\8F\D2\0E\1C\02\00\0C\0C\19\D1\0C\1D\02\00\0D\0C\1C\D1\0D\1F2\00\00\00p\DC\0C\11\00\00\06\00\82\BF~\0A\FE\87~\08\8A\86\0A\06\86\87~\06\FE\89\C5\FF\89\BF\C2\FF\82\BF\00\00P\DC\00\00\00\0C\81\00\8C\BEp\00\8C\BF\0C\004\D1\0C\19\00\00\00\00p\DC\00\0C\00\00\80\01\8C\BE\08~\88\89\EF\FF\82\BF\00\00\81\BF\00\00\80\BF\00\00\80\BF\00\00\80\BF\00\00\80\BF\00\00\80\BF\00\00\80\BF\00\00\80\BF\00\00\80\BF\00\00\80\BF\00\00\80\BF\00\00\80\BF\00\00\80\BF\00\00\80\BF\00\00\80\BF\00\00\80\BF\00\00\80\BF\00\00\80\BF\00\00\80\BF\00\00\80\BF\00\00\80\BF\00\00\80\BF\00\00\80\BF\00\00\80\BF\00\00\80\BF\00\00\80\BF\00\00\80\BF\00\00\80\BF\00\00\80\BF\00\00\80\BF\00\00\80\BF\00\00\80\BF\00\00\80\BF\00\00\80\BF\00\00\80\BF\00\00\80\BF\00\00\80\BF\00\00\80\BF\00\00\80\BF\00\00\80\BF\00\00\80\BF\00\00\80\BF\00\00\80\BF\80\00\A1\BE\0C\11f\80\0D\80g\82\00\11\00\80\01\80\01\82\84\01\06\C0\00\00\00\00\84\04\02\C0\08\00\00\00\C4\04\02\C0\0C\00\00\00\04\05\02\C0\10\00\00\00\84\02\06\C0\18\00\00\00\04\03\06\C0 \00\00\00\04\04\06\C0(\00\00\00\00\00\80\BF\04\02\06\C00\00\00\00\0Fx\95\B8\15\90\15\8E\FF\02\04~`\00\00\00\15\02\06~\FF\02\10~h\00\00\00\15\02\12~\FF\02\0C~l\00\00\00\15\02\0E~\FF\02\14~p\00\00\00\15\02\16~\FF\02\08~x\00\00\00\15\02\0A~\FF\02 ~\80\00\00\00\15\02\22~\FF\02$~\88\00\00\00\15\02&~\FF\02(~\90\00\00\00\15\02*~\FF\02,~\98\00\00\00\15\02.~\FF\02\18~\9C\00\00\00\15\02\1A~\FF\02\1C~\A0\00\00\00\15\02\1E~\7F\C0\8C\BF\18P\B3\D3\06\0C\00\18\00\00t\DC\02\18\00\00\12\02\02~\00\00p\DC\08\01\00\00\13\02\02~\00\00p\DC\06\01\00\00\14\02\02~\00\00p\DC\0A\01\00\00\02P\B3\D3\0A\14\00\18\00\00t\DC\04\02\00\00\02P\B3\D3\0C\18\00\18\00\00t\DC\10\02\00\00\02P\B3\D3\10 \00\18\00\00t\DC\12\02\00\00\02P\B3\D3\08\10\00\18\00\00t\DC\14\02\00\00\80\02\02~\82\01\02\C0\0C\00\00\00\04\80H\DC\01\00\04\02\80\00\87\BEp\0F\8C\BF\03\005\D1\07\04\02\00\02\0D ~\10G ~\FF  \0A\FE\FF\7FO\10\0F ~\03\00\85\D2\03!\02\00\03\00\86\D2\10\07\02\00\03\004\D1\10\07\02\00\7F\C0\8C\BF\03\00\86\D2\06\06\02\00\81\00\88\BE\10\004\D1\03\11\00\00\11\00\85\D2\03\05\02\00\11\005\D1\06\22\02\00\12\005\D1\11\05\02\00\06\00\CE\D0\11\05\02\00\11\00\00\D1\11%\1A\00\03\00\00\D1\03!\1A\00\10\004\D1\03\11\00\00\06\00\CE\D0\11\05\02\00\02\00\00\D1\03!\1A\00\02\00\85\D2\02\1F\00\00\02\004\D1\02\1D\00\00\00\00p\DC\16\02\00\00\00\00P\DC\16\00\00\02\00\00\80\BF\04\80I\DC\01\00\04\03p\00\8C\BF\02\00\85\D2\02\07\02\00\06\80H\DC\01\00\04\01\FF\00\84\BE\FF\03\00\00\00\00\13\D1\00\09\00\00p\0F\8C\BF\00\04\E8\D1\02\03\02\04\00\00p\DC\0C\00\00\00\C1\02\00~\00\00p\DC\0E\00\00\00\00\00P\DC\0C\00\00\00\00\00\80\BF\00\00P\DC\06\00\00\01p\00\8C\BF\04\00\C9\D0\00\03\02\00~\01\88\BE\08\04\84\86\04\01\FE\BE%\00\88\BF\0Fx\84\B8\04\90\04\8E\88\02 ~\04\02\22~\FF\02$~\A4\00\00\00\04\02&~\FF\02(~\A8\00\00\00\04\02*~\FF\02,~\AC\00\00\00\04\02.~\FF\020~\B0\00\00\00\04\022~\FF\024~\B4\00\00\00\04\026~\FF\028~\B8\00\00\00\04\02:~\FF\02<~\BC\00\00\00\04\02>~\FF\02@~\C0\00\00\00\04\02B~\FF\02\00~\FF\FF\7F\7F\00\00p\DC\16\00\00\00\80\02\00~\00\00p\DC\12\00\00\00\80\01\8A\BE\02\00\82\BF~\08\FE\87*\03\82\BF\00\00P\DC\12\00\00\00\00\00P\DC\0A\00\00\01p\00\8C\BF\04\00\C1\D0\00\03\02\00\C1\01\86\BE\0C~\8C\87~\01\8E\BE\0E\04\84\86\04\01\FE\BE\10\00\88\BF\00\00P\DC\12\00\00\00\00\00P\DC\08\00\00\01p\00\8C\BF\00\00\85\D2\00\03\02\00\00\00p\DC\1A\00\00\00\80\02\00~\00\00p\DC\1C\00\00\00\00\00p\DC\14\00\00\00\80\01\90\BE\06\00\82\BF~\0E\FE\87~\0C\84\86\04\0A\8A\87~\0A\FE\89\DE\FF\89\BF\DB\FF\82\BF\00\00P\DC\14\00\00\00\00\00P\DC\08\00\00\01p\00\8C\BF\04\00\C1\D0\00\03\02\00\C1\01\86\BE\12~\92\87~\01\94\BE\14\04\84\86\04\01\FE\BE\C1\02\88\BF\00\00P\DC\0C\00\00\00\00\00P\DC\14\00\00\01\00\00P\DC\06\00\00\02p\00\8C\BF\00\04\E8\D1\01\05\02\04\00\00p\DC\1E\00\00\00\00\1C\84\BE\04\FF\04\80\E8 \00\00\05\FF\05\82\00\00\00\00\02\01\06\C0\00\00\00\00\7F\C0\8C\BF\00P\B3\D3\04\08\00\18W\00@\DC\00\00\00\00p\00\8C\BFW\00`\DC\10\00\00\00\00P\B3\D3\04\08\00\18V\00@\DC\00\00\00\00p\00\8C\BFV\00`\DC\10\00\00\00\00P\B3\D3\04\08\00\18U\00@\DC\00\00\00\00p\00\8C\BFU\00`\DC\10\00\00\00\00P\B3\D3\04\08\00\18T\00@\DC\00\00\00\00p\00\8C\BFT\00`\DC\10\00\00\00\00P\B3\D3\04\08\00\18S\00@\DC\00\00\00\00p\00\8C\BFS\00`\DC\10\00\00\00\00P\B3\D3\04\08\00\18R\00@\DC\00\00\00\00p\00\8C\BFR\00`\DC\10\00\00\00\00P\B3\D3\04\08\00\18Q\00@\DC\00\00\00\00p\00\8C\BFQ\00`\DC\10\00\00\00\00P\B3\D3\04\08\00\18P\00@\DC\00\00\00\00p\00\8C\BFP\00`\DC\10\00\00\00\00P\B3\D3\04\08\00\18O\00@\DC\00\00\00\00p\00\8C\BFO\00`\DC\10\00\00\00\00P\B3\D3\04\08\00\18N\00@\DC\00\00\00\00p\00\8C\BFN\00`\DC\10\00\00\00\00P\B3\D3\04\08\00\18M\00@\DC\00\00\00\00p\00\8C\BFM\00`\DC\10\00\00\00\00P\B3\D3\04\08\00\18L\00@\DC\00\00\00\00p\00\8C\BFL\00`\DC\10\00\00\00\00P\B3\D3\04\08\00\18K\00@\DC\00\00\00\00p\00\8C\BFK\00`\DC\10\00\00\00\00P\B3\D3\04\08\00\18J\00@\DC\00\00\00\00p\00\8C\BFJ\00`\DC\10\00\00\00\00P\B3\D3\04\08\00\18I\00@\DC\00\00\00\00p\00\8C\BFI\00`\DC\10\00\00\00\00P\B3\D3\04\08\00\18H\00@\DC\00\00\00\00p\00\8C\BFH\00`\DC\10\00\00\00\00P\B3\D3\04\08\00\18G\00@\DC\00\00\00\00p\00\8C\BFG\00`\DC\10\00\00\00\00P\B3\D3\04\08\00\18F\00@\DC\00\00\00\00p\00\8C\BFF\00`\DC\10\00\00\00\00P\B3\D3\04\08\00\18E\00@\DC\00\00\00\00p\00\8C\BFE\00`\DC\10\00\00\00\00P\B3\D3\04\08\00\18D\00@\DC\00\00\00\00p\00\8C\BFD\00`\DC\10\00\00\00\00P\B3\D3\04\08\00\18C\00@\DC\00\00\00\00p\00\8C\BFC\00`\DC\10\00\00\00\00P\B3\D3\04\08\00\18B\00@\DC\00\00\00\00p\00\8C\BFB\00`\DC\10\00\00\00\00P\B3\D3\04\08\00\18A\00@\DC\00\00\00\00p\00\8C\BFA\00`\DC\10\00\00\00\00P\B3\D3\04\08\00\18@\00@\DC\00\00\00\00p\00\8C\BF@\00`\DC\10\00\00\00\00P\B3\D3\04\08\00\18?\00@\DC\00\00\00\00p\00\8C\BF?\00`\DC\10\00\00\00\00P\B3\D3\04\08\00\18>\00@\DC\00\00\00\00p\00\8C\BF>\00`\DC\10\00\00\00\00P\B3\D3\04\08\00\18=\00@\DC\00\00\00\00p\00\8C\BF=\00`\DC\10\00\00\00\00P\B3\D3\04\08\00\18<\00@\DC\00\00\00\00p\00\8C\BF<\00`\DC\10\00\00\00\00P\B3\D3\04\08\00\18;\00@\DC\00\00\00\00p\00\8C\BF;\00`\DC\10\00\00\00\00P\B3\D3\04\08\00\18:\00@\DC\00\00\00\00p\00\8C\BF:\00`\DC\10\00\00\00\00P\B3\D3\04\08\00\189\00@\DC\00\00\00\00p\00\8C\BF9\00`\DC\10\00\00\00\00P\B3\D3\04\08\00\188\00@\DC\00\00\00\00p\00\8C\BF8\00`\DC\10\00\00\00\00P\B3\D3\04\08\00\187\00@\DC\00\00\00\00p\00\8C\BF7\00`\DC\10\00\00\00\00P\B3\D3\04\08\00\186\00@\DC\00\00\00\00p\00\8C\BF6\00`\DC\10\00\00\00\00P\B3\D3\04\08\00\185\00@\DC\00\00\00\00p\00\8C\BF5\00`\DC\10\00\00\00\00P\B3\D3\04\08\00\184\00@\DC\00\00\00\00p\00\8C\BF4\00`\DC\10\00\00\00\00P\B3\D3\04\08\00\183\00@\DC\00\00\00\00p\00\8C\BF3\00`\DC\10\00\00\00\00P\B3\D3\04\08\00\182\00@\DC\00\00\00\00p\00\8C\BF2\00`\DC\10\00\00\00\00P\B3\D3\04\08\00\181\00@\DC\00\00\00\00p\00\8C\BF1\00`\DC\10\00\00\00\00P\B3\D3\04\08\00\180\00@\DC\00\00\00\00p\00\8C\BF0\00`\DC\10\00\00\00\00P\B3\D3\04\08\00\18/\00@\DC\00\00\00\00p\00\8C\BF/\00`\DC\10\00\00\00\00P\B3\D3\04\08\00\18.\00@\DC\00\00\00\00p\00\8C\BF.\00`\DC\10\00\00\00\00P\B3\D3\04\08\00\18-\00@\DC\00\00\00\00p\00\8C\BF-\00`\DC\10\00\00\00\00P\B3\D3\04\08\00\18,\00@\DC\00\00\00\00p\00\8C\BF,\00`\DC\10\00\00\00\00P\B3\D3\04\08\00\18+\00@\DC\00\00\00\00p\00\8C\BF+\00`\DC\10\00\00\00\00P\B3\D3\04\08\00\18*\00@\DC\00\00\00\00p\00\8C\BF*\00`\DC\10\00\00\00\00P\B3\D3\04\08\00\18)\00@\DC\00\00\00\00p\00\8C\BF)\00`\DC\10\00\00\00\00P\B3\D3\04\08\00\18(\00@\DC\00\00\00\00p\00\8C\BF(\00`\DC\10\00\00\00\00P\B3\D3\04\08\00\18'\00@\DC\00\00\00\00p\00\8C\BF'\00`\DC\10\00\00\00\00P\B3\D3\04\08\00\18&\00@\DC\00\00\00\00p\00\8C\BF&\00`\DC\10\00\00\00\00P\B3\D3\04\08\00\18%\00@\DC\00\00\00\00p\00\8C\BF%\00`\DC\10\00\00\00\00P\B3\D3\04\08\00\18$\00@\DC\00\00\00\00p\00\8C\BF$\00`\DC\10\00\00\00\00P\B3\D3\04\08\00\18#\00@\DC\00\00\00\00p\00\8C\BF#\00`\DC\10\00\00\00\00P\B3\D3\04\08\00\18\22\00@\DC\00\00\00\00p\00\8C\BF\22\00`\DC\10\00\00\00\00P\B3\D3\04\08\00\18!\00@\DC\00\00\00\00p\00\8C\BF!\00`\DC\10\00\00\00\00P\B3\D3\04\08\00\18 \00@\DC\00\00\00\00p\00\8C\BF \00`\DC\10\00\00\00\00P\B3\D3\04\08\00\18\1F\00@\DC\00\00\00\00p\00\8C\BF\1F\00`\DC\10\00\00\00\00P\B3\D3\04\08\00\18\1E\00@\DC\00\00\00\00p\00\8C\BF\1E\00`\DC\10\00\00\00\00P\B3\D3\04\08\00\18\1D\00@\DC\00\00\00\00p\00\8C\BF\1D\00`\DC\10\00\00\00\00P\B3\D3\04\08\00\18\1C\00@\DC\00\00\00\00p\00\8C\BF\1C\00`\DC\10\00\00\00\00P\B3\D3\04\08\00\18\1B\00@\DC\00\00\00\00p\00\8C\BF\1B\00`\DC\10\00\00\00\00P\B3\D3\04\08\00\18\1A\00@\DC\00\00\00\00p\00\8C\BF\1A\00`\DC\10\00\00\00\00P\B3\D3\04\08\00\18\19\00@\DC\00\00\00\00p\00\8C\BF\19\00`\DC\10\00\00\00\00P\B3\D3\04\08\00\18\18\00@\DC\00\00\00\00p\00\8C\BF\18\00`\DC\10\00\00\00\00P\B3\D3\04\08\00\18\17\00@\DC\00\00\00\00p\00\8C\BF\17\00`\DC\10\00\00\00\00P\B3\D3\04\08\00\18\16\00@\DC\00\00\00\00p\00\8C\BF\16\00`\DC\10\00\00\00\00P\B3\D3\04\08\00\18\15\00@\DC\00\00\00\00p\00\8C\BF\15\00`\DC\10\00\00\00\00P\B3\D3\04\08\00\18\14\00@\DC\00\00\00\00p\00\8C\BF\14\00`\DC\10\00\00\00\00P\B3\D3\04\08\00\18\13\00@\DC\00\00\00\00p\00\8C\BF\13\00`\DC\10\00\00\00\00P\B3\D3\04\08\00\18\12\00@\DC\00\00\00\00p\00\8C\BF\12\00`\DC\10\00\00\00\00P\B3\D3\04\08\00\18\11\00@\DC\00\00\00\00p\00\8C\BF\11\00`\DC\10\00\00\00\00P\B3\D3\04\08\00\18\10\00@\DC\00\00\00\00p\00\8C\BF\10\00`\DC\10\00\00\00\00P\B3\D3\04\08\00\18\0F\00@\DC\00\00\00\00p\00\8C\BF\0F\00`\DC\10\00\00\00\00P\B3\D3\04\08\00\18\0E\00@\DC\00\00\00\00p\00\8C\BF\0E\00`\DC\10\00\00\00\00P\B3\D3\04\08\00\18\0D\00@\DC\00\00\00\00p\00\8C\BF\0D\00`\DC\10\00\00\00\00P\B3\D3\04\08\00\18\0C\00@\DC\00\00\00\00p\00\8C\BF\0C\00`\DC\10\00\00\00\00P\B3\D3\04\08\00\18\0B\00@\DC\00\00\00\00p\00\8C\BF\0B\00`\DC\10\00\00\00\00P\B3\D3\04\08\00\18\0A\00@\DC\00\00\00\00p\00\8C\BF\0A\00`\DC\10\00\00\00\00P\B3\D3\04\08\00\18\09\00@\DC\00\00\00\00p\00\8C\BF\09\00`\DC\10\00\00\00\00P\B3\D3\04\08\00\18\08\00@\DC\00\00\00\00p\00\8C\BF\08\00`\DC\10\00\00\00\00P\B3\D3\04\08\00\18\07\00@\DC\00\00\00\00p\00\8C\BF\07\00`\DC\10\00\00\00\00P\B3\D3\04\08\00\18\06\00@\DC\00\00\00\00p\00\8C\BF\06\00`\DC\10\00\00\00\00P\B3\D3\04\08\00\18\05\00@\DC\00\00\00\00p\00\8C\BF\05\00`\DC\10\00\00\00\00P\B3\D3\04\08\00\18\04\00@\DC\00\00\00\00p\00\8C\BF\04\00`\DC\10\00\00\00\00P\B3\D3\04\08\00\18\03\00@\DC\00\00\00\00p\00\8C\BF\03\00`\DC\10\00\00\00\00P\B3\D3\04\08\00\18\02\00@\DC\00\00\00\00p\00\8C\BF\02\00`\DC\10\00\00\00\00P\B3\D3\04\08\00\18\01\00@\DC\00\00\00\00p\00\8C\BF\01\00`\DC\10\00\00\00\00P\B3\D3\04\08\00\18\00\00@\DC\00\00\00\00p\00\8C\BF\00\00`\DC\10\00\00\00\00\00P\DC\1E\00\00#\00\00\80\BFH\00T\DC\10\00\00\00p\00\8C\BF\00\80\\\DC\00\00\7F\00\80\00\9A\BE~\01\96\BEp\0F\8C\BF\00\05\08~\01\05\0A~\18\00\EA\D0\04\00\02\00\02\05\0C~\03\05\0E~\1C\00\EA\D0\06\04\02\00\18\1C\98\86\18 \98\BE\01\00\80\BF\00 \00\E0#\22\01\1A~\18\FE\88\F1\FF\89\BF\16\01\FE\BE\00\00P\DC\1A\00\00\00\00\00P\DC\14\00\00\01p\00\8C\BF\00\004\D1\00\03\02\00\01\00\11\D1\9F\00\02\00\82\00\84\BE\00\00\8F\D2\04\00\02\00\00\1C\84\BE\04\FF\04\80\94\16\00\00\05\FF\05\82\00\00\00\00\02\01\06\C0\00\00\00\00\7F\C0\8C\BF\00\06\19\D1\04\00\02\00\05\02\04~\01\04\1C\D1\02\03\1A\00\00\00P\DC\00\00\00\00p\00\8C\BF\00\00\02\D1\22\01\02\00\00\00p\DC \00\00\00\00\00P\DC \00\00\00\00\00\80\BF\00\00P\DC\1C\00\00\01p\00\8C\BF\01\00;\D1\00\01\02\00\00\00p\DC\1C\01\00\00\06\00\82\BF~\14\FE\87~\12\84\86\04\10\90\87~\10\FE\89-\FD\89\BF\0B\00\82\BF\00\00P\DC\14\00\00\00\81\00\84\BEp\00\8C\BF\00\004\D1\00\09\00\00\00\00p\DC\14\00\00\00\80\01\84\BE\12~\92\89\EF\FF\82\BF~\10\FE\87\00\00P\DC\1C\00\00\00p\00\8C\BF\00\00p\DC\18\00\00\00\00\00P\DC\18\00\00\00\00\00\80\BF\00\00P\DC\16\00\00\01p\00\8C\BF\06\00A\D0\00\03\02\00~\01\84\BE\04\06\86\86\06\01\FE\BE\0A\00\88\BF\00\00P\DC\18\00\00\00p\00\8C\BF\00\00p\DC\16\00\00\00\00\00P\DC\12\00\00\00p\00\8C\BF\00\00p\DC\0E\00\00\00~\04\FE\87\00\00P\DC\12\00\00\00\81\00\84\BEp\00\8C\BF\00\004\D1\00\09\00\00\00\00p\DC\12\00\00\00\80\01\84\BE\0C~\8C\89\F3\FC\82\BF\00\00P\DC\0C\00\00\00\00\00P\DC\06\00\00\01p\00\8C\BF\06\00\C9\D0\00\03\02\00~\01\84\BE\04\06\86\86\06\01\FE\BE\12\00\88\BF\00\00P\DC\0E\00\00\06\00\00T\DC\04\00\00\00\00\00P\DC\0C\00\00\02\80\00\86\BE\80\02\06~\82\00\86\BEp\00\8C\BF\02\00\8F\D2\06\04\02\00\00\06\19\D1\00\05\02\00\01\06\1C\D1\01\07\1A\00\00\00p\DC\00\06\00\00~\04\FE\87\00\00\81\BF\00\00\80\BF\00\00\80\BF\00\00\80\BF\00\00\80\BF\00\00\80\BF\00\00\80\BF\00\00\80\BF\00\00\80\BF\00\00\80\BF\00\00\80\BF\00\00\80\BF\00\00\80\BF\00\00\80\BF\00\00\80\BF\00\00\80\BF\00\00\80\BF\00\00\80\BF\00\00\80\BF\00\00\80\BF\00\00\80\BF\00\00\80\BF\00\00\80\BF\00\00\80\BF\00\00\80\BF\00\00\80\BF\00\00\80\BF\00\00\80\BF\00\00\80\BF\00\00\80\BF\00\00\80\BF\00\00\80\BF\00\00\80\BF\00\00\80\BF\00\00\80\BF\00\00\80\BF\00\00\80\BF\00\00\80\BF\00\00\80\BF\00\00\80\BF\00\00\80\BF\00\00\80\BF\00\00\80\BF\00\00\80\BF\00\00\80\BF\00\00\80\BF\00\00\80\BF\00\00\80\BF\00\00\80\BF\00\00\80\BF\00\00\80\BF\00\00\80\BF\00\00\80\BF\00\00\80\BF\00\00\80\BF\00\00\80\BF\00\00\80\BF\00\00\80\BF\00\00\80\BF\00\00\80\BF\00\00\80\BF\00\00\80\BF\00\00\80\BF\00\00\80\BF\00\00\80\BF\00\00\80\BF\00\00\80\BF\00\00\80\BF\00\00\80\BF\00\00\80\BF\00\00\80\BF\00\00\80\BF\00\00\80\BF\00\00\80\BF\00\00\80\BF\00\00\80\BF\00\00\80\BF\00\00\80\BF\00\00\80\BF\00\00\80\BF\00\00\80\BF\00\00\80\BF\00\00\80\BF\00\00\80\BF\00\00\80\BF\00\00\80\BF\00\00\80\BF\00\00\80\BF\00\00\80\BF\00\00\80\BF\00\00\80\BF\00\00\80\BF\00\00\80\BF\00\00\80\BF\00\00\80\BF\00\00\80\BF\00\00\80\BF\00\00\80\BF\00\00\80\BF\00\00\80\BF\00\00\80\BF\00\00\80\BF\00\00\80\BF\00\00\80\BF\00\00\80\BF\00\00\80\BF\00\00\80\BF\00\00\80\BF\00\00\80\BF\00\00\80\BF\00\00\80\BF\00\00\80\BF\00\00\80\BF\00\00\80\BF\00\00\80\BF\00\00\80\BF\00\00\80\BF\00\00\80\BF\00\00\80\BF\00\00\80\BF\00\00\80\BF\00\00\80\BF\00\00\80\BF\00\00\80\BF\00\00\80\BF\00\00\80\BF\00\00\80\BF\00\00\80\BF\00\00\80\BF\00\00\80\BF\00\00\80\BF\00\00\80\BF\00\00\80\BF\00\00\80\BF\00\00\80\BF\00\00\80\BF\00\00\80\BF\00\00\80\BF\00\00\80\BF\00\00\80\BF\00\00\80\BF\00\00\80\BF\00\00\80\BF\00\00\80\BF\00\00\80\BF\00\00\80\BF\00\00\80\BF\00\00\80\BF\00\00\80\BF\00\00\80\BF\00\00\80\BF\00\00\80\BF\00\00\80\BF\00\00\80\BF\00\00\80\BF\00\00\80\BF\00\00\80\BF\00\00\80\BF\00\00\80\BF\00\00\80\BF\00\00\80\BF\00\00\80\BF\00\00\80\BF\00\00\80\BF\00\00\80\BF\00\00\80\BF\00\00\80\BF\00\00\80\BF\00\00\80\BF\00\00\80\BF\00\00\80\BF\00\00\80\BF\00\00\80\BF\00\00\80\BF\00\00\80\BF\00\00\80\BF\00\00\80\BF\00\00\80\BF\00\00\80\BF\00\00\80\BF\00\00\80\BF\00\00\80\BF\00\00\80\BF\00\00\80\BF\00\00\80\BF\00\00\80\BF\00\00\80\BF\00\00\80\BF\00\00\80\BF\00\00\80\BF\00\00\80\BF\00\00\80\BF\00\00\80\BF\00\00\80\BF\00\00\80\BF\00\00\80\BF\00\00\80\BF\00\00\80\BF\00\00\80\BF\00\00\80\BF\00\00\80\BF\00\00\80\BF\00\00\80\BF\00\00\80\BF\00\00\80\BF\00\00\80\BF\00\00\80\BF\00\00\80\BF\00\00\80\BF\00\00\80\BF\00\00\80\BF\00\00\80\BF\00\00\80\BF\00\00\80\BF\00\00\80\BF\00\00\80\BF\00\00\80\BF\00\00\80\BF\00\00\80\BF\00\00\80\BF\00\00\80\BF\00\00\80\BF\00\00\80\BF\00\00\80\BF\00\00\80\BF\00\00\80\BF\00\00\80\BF\00\00\80\BF\00\00\80\BF\00\00\80\BF\00\00\80\BF\00\00\80\BF\00\00\80\BF\00\00\80\BF\00\00\80\BF\00\00\80\BF\00\00\80\BF\00\00\80\BF\00\00\80\BF\00\00\80\BF\00\00\80\BF\00\00\80\BF\00\00\80\BF\00\00\80\BF\00\00\80\BF\00\00\80\BF\00\00\80\BF\00\00\80\BF\00\00\80\BF\00\00\80\BF\00\00\80\BF\00\00\80\BF\00\00\80\BF\00\00\80\BF\00\00\80\BF\00\00\80\BF\00\00\80\BF\00\00\80\BF\00\00\80\BF\00\00\80\BF\00\00\80\BF\00\00\80\BF\07\00\00\00\00\00\00\00\D0\0C\00\00\00\00\00\00\08\00\00\00\00\00\00\000\00\00\00\00\00\00\00\09\00\00\00\00\00\00\00\18\00\00\00\00\00\00\00\06\00\00\00\00\00\00\00\B0\0A\00\00\00\00\00\00\0B\00\00\00\00\00\00\00\18\00\00\00\00\00\00\00\05\00\00\00\00\00\00\00 \0C\00\00\00\00\00\00\0A\00\00\00\00\00\00\00\A9\00\00\00\00\00\00\00\F5\FE\FFo\00\00\00\00\88\0B\00\00\00\00\00\00\04\00\00\00\00\00\00\00\D0\0B\00\00\00\00\00\00\00\00\00\00\00\00\00\00\00\00\00\00\00\00\00\00\00\00\00\00\00\00\00\00\00\00\00\00\00\00\00\00clang version 16.0.0 (https://github.com/llvm/llvm-project.git 159fb378f779ac79f7d456ea233892ad526b56d8)\00\00clang version 3.8.0 (tags/RELEASE_380/final)\00Linker: LLD 16.0.0\00\00\00\00\00\00\00\00\00\00\00\00\00\00\00\00\00\00\00\00\00\00\00\00\00\00\00\00\00\00\00\A9\00\00\00\00\02\09\00\80E\00\00\00\00\00\00\00\00\00\00\00\00\00\00\01\00\00\00\12\03\08\00\00\1E\00\00\00\00\00\00X\02\00\00\00\00\00\00\1A\00\00\00\11\00\07\00\00\0D\00\00\00\00\00\00@\00\00\00\00\00\00\006\00\00\00\12\03\08\00\00!\00\00\00\00\00\00l\10\00\00\00\00\00\00T\00\00\00\11\00\0B\000g\00\00\00\00\00\00X\00\00\00\00\00\00\00_\00\00\00\11\00\0B\000V\00\00\00\00\00\00\00\11\00\00\00\00\00\00j\00\00\00\11\00\07\00@\0D\00\00\00\00\00\00@\00\00\00\00\00\00\00\8B\00\00\00\11\00\0B\00\90g\00\00\00\00\00\00X\00\00\00\00\00\00\00\9E\00\00\00\11\00\0B\00\F0g\00\00\00\00\00\00X\00\00\00\00\00\00\00\00.note\00.dynsym\00.gnu.hash\00.hash\00.dynstr\00.rela.dyn\00.rodata\00.text\00.dynamic\00.got\00.bss\00.AMDGPU.csdata\00.comment\00.symtab\00.shstrtab\00.strtab\00\00_Z14invert_mappingPfS_ii\00_Z14invert_mappingPfS_ii.kd\00_Z11kmeansPointPfiiiPiS_S_S0_\00t_features\00c_clusters\00_Z11kmeansPointPfiiiPiS_S_S0_.kd\00t_features_flipped\00t_clusters\00_DYNAMIC\00\00\00\00\00\00\00\00\00\00\00\00\00\00\00\00\00\00\00\00\00\00\00\00\00\00\00\00\00\00\00\00\00\00\00\00\00\00\00\00\00\00\00\00\00\00\00\00\00\00\00\00\00\00\00\00\00\00\00\00\00\00\00\00\00\00\00\01\00\00\00\07\00\00\00\02\00\00\00\00\00\00\008\02\00\00\00\00\00\008\02\00\00\00\00\00\00x\08\00\00\00\00\00\00\00\00\00\00\00\00\00\00\04\00\00\00\00\00\00\00\00\00\00\00\00\00\00\00\07\00\00\00\0B\00\00\00\02\00\00\00\00\00\00\00\B0\0A\00\00\00\00\00\00\B0\0A\00\00\00\00\00\00\D8\00\00\00\00\00\00\00\05\00\00\00\01\00\00\00\08\00\00\00\00\00\00\00\18\00\00\00\00\00\00\00\0F\00\00\00\F6\FF\FFo\02\00\00\00\00\00\00\00\88\0B\00\00\00\00\00\00\88\0B\00\00\00\00\00\00H\00\00\00\00\00\00\00\02\00\00\00\00\00\00\00\08\00\00\00\00\00\00\00\00\00\00\00\00\00\00\00\19\00\00\00\05\00\00\00\02\00\00\00\00\00\00\00\D0\0B\00\00\00\00\00\00\D0\0B\00\00\00\00\00\00P\00\00\00\00\00\00\00\02\00\00\00\00\00\00\00\04\00\00\00\00\00\00\00\04\00\00\00\00\00\00\00\1F\00\00\00\03\00\00\00\02\00\00\00\00\00\00\00 \0C\00\00\00\00\00\00 \0C\00\00\00\00\00\00\A9\00\00\00\00\00\00\00\00\00\00\00\00\00\00\00\01\00\00\00\00\00\00\00\00\00\00\00\00\00\00\00'\00\00\00\04\00\00\00\02\00\00\00\00\00\00\00\D0\0C\00\00\00\00\00\00\D0\0C\00\00\00\00\00\000\00\00\00\00\00\00\00\02\00\00\00\00\00\00\00\08\00\00\00\00\00\00\00\18\00\00\00\00\00\00\001\00\00\00\01\00\00\00\02\00\00\00\00\00\00\00\00\0D\00\00\00\00\00\00\00\0D\00\00\00\00\00\00\80\00\00\00\00\00\00\00\00\00\00\00\00\00\00\00@\00\00\00\00\00\00\00\00\00\00\00\00\00\00\009\00\00\00\01\00\00\00\06\00\00\00\00\00\00\00\00\1E\00\00\00\00\00\00\00\0E\00\00\00\00\00\00\80\17\00\00\00\00\00\00\00\00\00\00\00\00\00\00\00\01\00\00\00\00\00\00\00\00\00\00\00\00\00\00?\00\00\00\06\00\00\00\03\00\00\00\00\00\00\00\80E\00\00\00\00\00\00\80%\00\00\00\00\00\00\A0\00\00\00\00\00\00\00\05\00\00\00\00\00\00\00\08\00\00\00\00\00\00\00\10\00\00\00\00\00\00\00H\00\00\00\01\00\00\00\03\00\00\00\00\00\00\00 F\00\00\00\00\00\00 &\00\00\00\00\00\00\10\00\00\00\00\00\00\00\00\00\00\00\00\00\00\00\08\00\00\00\00\00\00\00\00\00\00\00\00\00\00\00M\00\00\00\08\00\00\00\03\00\00\00\00\00\00\000V\00\00\00\00\00\000&\00\00\00\00\00\00\18\12\00\00\00\00\00\00\00\00\00\00\00\00\00\00\10\00\00\00\00\00\00\00\00\00\00\00\00\00\00\00R\00\00\00\01\00\00\00\00\00\00\00\00\00\00\00\00\00\00\00\00\00\00\000&\00\00\00\00\00\00\00\00\00\00\00\00\00\00\00\00\00\00\00\00\00\00\01\00\00\00\00\00\00\00\00\00\00\00\00\00\00\00a\00\00\00\01\00\00\000\00\00\00\00\00\00\00\00\00\00\00\00\00\00\000&\00\00\00\00\00\00\AA\00\00\00\00\00\00\00\00\00\00\00\00\00\00\00\01\00\00\00\00\00\00\00\01\00\00\00\00\00\00\00j\00\00\00\02\00\00\00\00\00\00\00\00\00\00\00\00\00\00\00\00\00\00\00\E0&\00\00\00\00\00\00\F0\00\00\00\00\00\00\00\10\00\00\00\02\00\00\00\08\00\00\00\00\00\00\00\18\00\00\00\00\00\00\00r\00\00\00\03\00\00\00\00\00\00\00\00\00\00\00\00\00\00\00\00\00\00\00\D0'\00\00\00\00\00\00\84\00\00\00\00\00\00\00\00\00\00\00\00\00\00\00\01\00\00\00\00\00\00\00\00\00\00\00\00\00\00\00|\00\00\00\03\00\00\00\00\00\00\00\00\00\00\00\00\00\00\00\00\00\00\00T(\00\00\00\00\00\00\B2\00\00\00\00\00\00\00\00\00\00\00\00\00\00\00\01\00\00\00\00\00\00\00\00\00\00\00\00\00\00\00\00", section ".hipFatBinSegment", align 4096

; Function Attrs: noinline uwtable
define internal void @__cxx_global_var_init() #0 section ".text.startup" {
  call void @_ZN7textureIfLi1EL19cudaTextureReadMode0EEC2Ei21cudaTextureFilterMode22cudaTextureAddressMode(ptr noundef nonnull align 4 dereferenceable(124) @t_features, i32 noundef 0, i32 noundef 0, i32 noundef 1)
  ret void
}

; Function Attrs: noinline optnone uwtable
define linkonce_odr void @_ZN7textureIfLi1EL19cudaTextureReadMode0EEC2Ei21cudaTextureFilterMode22cudaTextureAddressMode(ptr noundef nonnull align 4 dereferenceable(124) %0, i32 noundef %1, i32 noundef %2, i32 noundef %3) unnamed_addr #1 comdat align 2 {
  %5 = alloca ptr, align 8
  %6 = alloca i32, align 4
  %7 = alloca i32, align 4
  %8 = alloca i32, align 4
  %9 = alloca %struct.cudaChannelFormatDesc, align 4
  store ptr %0, ptr %5, align 8
  store i32 %1, ptr %6, align 4
  store i32 %2, ptr %7, align 4
  store i32 %3, ptr %8, align 4
  %10 = load ptr, ptr %5, align 8
  %11 = load i32, ptr %6, align 4
  %12 = getelementptr inbounds %struct.textureReference, ptr %10, i32 0, i32 0
  store i32 %11, ptr %12, align 4
  %13 = load i32, ptr %7, align 4
  %14 = getelementptr inbounds %struct.textureReference, ptr %10, i32 0, i32 1
  store i32 %13, ptr %14, align 4
  %15 = load i32, ptr %8, align 4
  %16 = getelementptr inbounds %struct.textureReference, ptr %10, i32 0, i32 2
  %17 = getelementptr inbounds [3 x i32], ptr %16, i64 0, i64 0
  store i32 %15, ptr %17, align 4
  %18 = load i32, ptr %8, align 4
  %19 = getelementptr inbounds %struct.textureReference, ptr %10, i32 0, i32 2
  %20 = getelementptr inbounds [3 x i32], ptr %19, i64 0, i64 1
  store i32 %18, ptr %20, align 4
  %21 = load i32, ptr %8, align 4
  %22 = getelementptr inbounds %struct.textureReference, ptr %10, i32 0, i32 2
  %23 = getelementptr inbounds [3 x i32], ptr %22, i64 0, i64 2
  store i32 %21, ptr %23, align 4
  call void @_Z21cudaCreateChannelDescIfE21cudaChannelFormatDescv(ptr sret(%struct.cudaChannelFormatDesc) align 4 %9)
  %24 = getelementptr inbounds %struct.textureReference, ptr %10, i32 0, i32 3
  call void @llvm.memcpy.p0.p0.i64(ptr align 4 %24, ptr align 4 %9, i64 20, i1 false)
  %25 = getelementptr inbounds %struct.textureReference, ptr %10, i32 0, i32 4
  store i32 0, ptr %25, align 4
  ret void
}

; Function Attrs: noinline uwtable
define internal void @__cxx_global_var_init.1() #0 section ".text.startup" {
  call void @_ZN7textureIfLi1EL19cudaTextureReadMode0EEC2Ei21cudaTextureFilterMode22cudaTextureAddressMode(ptr noundef nonnull align 4 dereferenceable(124) @t_features_flipped, i32 noundef 0, i32 noundef 0, i32 noundef 1)
  ret void
}

; Function Attrs: noinline uwtable
define internal void @__cxx_global_var_init.2() #0 section ".text.startup" {
  call void @_ZN7textureIfLi1EL19cudaTextureReadMode0EEC2Ei21cudaTextureFilterMode22cudaTextureAddressMode(ptr noundef nonnull align 4 dereferenceable(124) @t_clusters, i32 noundef 0, i32 noundef 0, i32 noundef 1)
  ret void
}

; Function Attrs: noinline norecurse optnone uwtable
define void @_Z29__device_stub__invert_mappingPfS_ii(ptr noundef %0, ptr noundef %1, i32 noundef %2, i32 noundef %3) #2 {
  %5 = alloca ptr, align 8
  %6 = alloca ptr, align 8
  %7 = alloca i32, align 4
  %8 = alloca i32, align 4
  %9 = alloca %struct.dim3, align 8
  %10 = alloca %struct.dim3, align 8
  %11 = alloca i64, align 8
  %12 = alloca ptr, align 8
  %13 = alloca { i64, i32 }, align 8
  %14 = alloca { i64, i32 }, align 8
  store ptr %0, ptr %5, align 8
  store ptr %1, ptr %6, align 8
  store i32 %2, ptr %7, align 4
  store i32 %3, ptr %8, align 4
  %15 = alloca ptr, i64 4, align 16
  %16 = getelementptr ptr, ptr %15, i32 0
  store ptr %5, ptr %16, align 8
  %17 = getelementptr ptr, ptr %15, i32 1
  store ptr %6, ptr %17, align 8
  %18 = getelementptr ptr, ptr %15, i32 2
  store ptr %7, ptr %18, align 8
  %19 = getelementptr ptr, ptr %15, i32 3
  store ptr %8, ptr %19, align 8
  %20 = call i32 @__cudaPopCallConfiguration(ptr %9, ptr %10, ptr %11, ptr %12)
  %21 = load i64, ptr %11, align 8
  %22 = load ptr, ptr %12, align 8
  call void @llvm.memcpy.p0.p0.i64(ptr align 8 %13, ptr align 8 %9, i64 12, i1 false)
  %23 = getelementptr inbounds { i64, i32 }, ptr %13, i32 0, i32 0
  %24 = load i64, ptr %23, align 8
  %25 = getelementptr inbounds { i64, i32 }, ptr %13, i32 0, i32 1
  %26 = load i32, ptr %25, align 8
  call void @llvm.memcpy.p0.p0.i64(ptr align 8 %14, ptr align 8 %10, i64 12, i1 false)
  %27 = getelementptr inbounds { i64, i32 }, ptr %14, i32 0, i32 0
  %28 = load i64, ptr %27, align 8
  %29 = getelementptr inbounds { i64, i32 }, ptr %14, i32 0, i32 1
  %30 = load i32, ptr %29, align 8
  %31 = call noundef i32 @cudaLaunchKernel(ptr noundef @_Z29__device_stub__invert_mappingPfS_ii, i64 %24, i32 %26, i64 %28, i32 %30, ptr noundef %15, i64 noundef %21, ptr noundef %22)
  br label %32

32:                                               ; preds = %4
  ret void
}

declare i32 @__cudaPopCallConfiguration(ptr, ptr, ptr, ptr)

declare i32 @cudaLaunchKernel(ptr, i64, i32, i64, i32, ptr, i64, ptr)

; Function Attrs: argmemonly nocallback nofree nounwind willreturn
declare void @llvm.memcpy.p0.p0.i64(ptr noalias nocapture writeonly, ptr noalias nocapture readonly, i64, i1 immarg) #3

; Function Attrs: noinline norecurse optnone uwtable
define void @_Z26__device_stub__kmeansPointPfiiiPiS_S_S0_(ptr noundef %0, i32 noundef %1, i32 noundef %2, i32 noundef %3, ptr noundef %4, ptr noundef %5, ptr noundef %6, ptr noundef %7) #2 {
  %9 = alloca ptr, align 8
  %10 = alloca i32, align 4
  %11 = alloca i32, align 4
  %12 = alloca i32, align 4
  %13 = alloca ptr, align 8
  %14 = alloca ptr, align 8
  %15 = alloca ptr, align 8
  %16 = alloca ptr, align 8
  %17 = alloca %struct.dim3, align 8
  %18 = alloca %struct.dim3, align 8
  %19 = alloca i64, align 8
  %20 = alloca ptr, align 8
  %21 = alloca { i64, i32 }, align 8
  %22 = alloca { i64, i32 }, align 8
  store ptr %0, ptr %9, align 8
  store i32 %1, ptr %10, align 4
  store i32 %2, ptr %11, align 4
  store i32 %3, ptr %12, align 4
  store ptr %4, ptr %13, align 8
  store ptr %5, ptr %14, align 8
  store ptr %6, ptr %15, align 8
  store ptr %7, ptr %16, align 8
  %23 = alloca ptr, i64 8, align 16
  %24 = getelementptr ptr, ptr %23, i32 0
  store ptr %9, ptr %24, align 8
  %25 = getelementptr ptr, ptr %23, i32 1
  store ptr %10, ptr %25, align 8
  %26 = getelementptr ptr, ptr %23, i32 2
  store ptr %11, ptr %26, align 8
  %27 = getelementptr ptr, ptr %23, i32 3
  store ptr %12, ptr %27, align 8
  %28 = getelementptr ptr, ptr %23, i32 4
  store ptr %13, ptr %28, align 8
  %29 = getelementptr ptr, ptr %23, i32 5
  store ptr %14, ptr %29, align 8
  %30 = getelementptr ptr, ptr %23, i32 6
  store ptr %15, ptr %30, align 8
  %31 = getelementptr ptr, ptr %23, i32 7
  store ptr %16, ptr %31, align 8
  %32 = call i32 @__cudaPopCallConfiguration(ptr %17, ptr %18, ptr %19, ptr %20)
  %33 = load i64, ptr %19, align 8
  %34 = load ptr, ptr %20, align 8
  call void @llvm.memcpy.p0.p0.i64(ptr align 8 %21, ptr align 8 %17, i64 12, i1 false)
  %35 = getelementptr inbounds { i64, i32 }, ptr %21, i32 0, i32 0
  %36 = load i64, ptr %35, align 8
  %37 = getelementptr inbounds { i64, i32 }, ptr %21, i32 0, i32 1
  %38 = load i32, ptr %37, align 8
  call void @llvm.memcpy.p0.p0.i64(ptr align 8 %22, ptr align 8 %18, i64 12, i1 false)
  %39 = getelementptr inbounds { i64, i32 }, ptr %22, i32 0, i32 0
  %40 = load i64, ptr %39, align 8
  %41 = getelementptr inbounds { i64, i32 }, ptr %22, i32 0, i32 1
  %42 = load i32, ptr %41, align 8
  %43 = call noundef i32 @cudaLaunchKernel(ptr noundef @_Z26__device_stub__kmeansPointPfiiiPiS_S_S0_, i64 %36, i32 %38, i64 %40, i32 %42, ptr noundef %23, i64 noundef %33, ptr noundef %34)
  br label %44

44:                                               ; preds = %8
  ret void
}

; Function Attrs: noinline uwtable
define internal void @__cxx_global_var_init.3() #0 section ".text.startup" {
  %1 = load i32, ptr @num_threads_perdim, align 4
  %2 = load i32, ptr @num_threads_perdim, align 4
  %3 = mul i32 %1, %2
  store i32 %3, ptr @num_threads, align 4
  ret void
}

; Function Attrs: noinline uwtable
define internal void @__cxx_global_var_init.4() #0 section ".text.startup" {
  %1 = load i32, ptr @num_blocks_perdim, align 4
  %2 = load i32, ptr @num_blocks_perdim, align 4
  %3 = mul i32 %1, %2
  store i32 %3, ptr @num_blocks, align 4
  ret void
}

; Function Attrs: mustprogress noinline optnone uwtable
define void @allocateMemory(i32 noundef %0, i32 noundef %1, i32 noundef %2, ptr noundef %3) #4 {
  %5 = alloca i32, align 4
  %6 = alloca i32, align 4
  %7 = alloca i32, align 4
  %8 = alloca ptr, align 8
  %9 = alloca i32, align 4
  %10 = alloca %struct.dim3, align 4
  %11 = alloca %struct.dim3, align 4
  %12 = alloca { i64, i32 }, align 4
  %13 = alloca { i64, i32 }, align 4
  store i32 %0, ptr %5, align 4
  store i32 %1, ptr %6, align 4
  store i32 %2, ptr %7, align 4
  store ptr %3, ptr %8, align 8
  %14 = load i32, ptr %5, align 4
  %15 = load i32, ptr @num_threads, align 4
  %16 = udiv i32 %14, %15
  store i32 %16, ptr @num_blocks, align 4
  %17 = load i32, ptr %5, align 4
  %18 = load i32, ptr @num_threads, align 4
  %19 = urem i32 %17, %18
  %20 = icmp ugt i32 %19, 0
  br i1 %20, label %21, label %24

21:                                               ; preds = %4
  %22 = load i32, ptr @num_blocks, align 4
  %23 = add i32 %22, 1
  store i32 %23, ptr @num_blocks, align 4
  br label %24

24:                                               ; preds = %21, %4
  %25 = load i32, ptr @num_blocks, align 4
  %26 = uitofp i32 %25 to double
  %27 = call double @sqrt(double noundef %26) #10
  %28 = fptoui double %27 to i32
  store i32 %28, ptr @num_blocks_perdim, align 4
  br label %29

29:                                               ; preds = %35, %24
  %30 = load i32, ptr @num_blocks_perdim, align 4
  %31 = load i32, ptr @num_blocks_perdim, align 4
  %32 = mul i32 %30, %31
  %33 = load i32, ptr @num_blocks, align 4
  %34 = icmp ult i32 %32, %33
  br i1 %34, label %35, label %38

35:                                               ; preds = %29
  %36 = load i32, ptr @num_blocks_perdim, align 4
  %37 = add i32 %36, 1
  store i32 %37, ptr @num_blocks_perdim, align 4
  br label %29, !llvm.loop !6

38:                                               ; preds = %29
  %39 = load i32, ptr @num_blocks_perdim, align 4
  %40 = load i32, ptr @num_blocks_perdim, align 4
  %41 = mul i32 %39, %40
  store i32 %41, ptr @num_blocks, align 4
  %42 = load i32, ptr %5, align 4
  %43 = sext i32 %42 to i64
  %44 = mul i64 %43, 4
  %45 = call noalias ptr @malloc(i64 noundef %44) #11
  store ptr %45, ptr @membership_new, align 8
  store i32 0, ptr %9, align 4
  br label %46

46:                                               ; preds = %55, %38
  %47 = load i32, ptr %9, align 4
  %48 = load i32, ptr %5, align 4
  %49 = icmp slt i32 %47, %48
  br i1 %49, label %50, label %58

50:                                               ; preds = %46
  %51 = load ptr, ptr @membership_new, align 8
  %52 = load i32, ptr %9, align 4
  %53 = sext i32 %52 to i64
  %54 = getelementptr inbounds i32, ptr %51, i64 %53
  store i32 -1, ptr %54, align 4
  br label %55

55:                                               ; preds = %50
  %56 = load i32, ptr %9, align 4
  %57 = add nsw i32 %56, 1
  store i32 %57, ptr %9, align 4
  br label %46, !llvm.loop !8

58:                                               ; preds = %46
  %59 = load i32, ptr %7, align 4
  %60 = load i32, ptr %6, align 4
  %61 = mul nsw i32 %59, %60
  %62 = sext i32 %61 to i64
  %63 = mul i64 %62, 4
  %64 = call noalias ptr @malloc(i64 noundef %63) #11
  store ptr %64, ptr @block_new_centers, align 8
  %65 = load i32, ptr %5, align 4
  %66 = load i32, ptr %6, align 4
  %67 = mul nsw i32 %65, %66
  %68 = sext i32 %67 to i64
  %69 = mul i64 %68, 4
  %70 = call i32 @cudaMalloc(ptr noundef @feature_flipped_d, i64 noundef %69)
  %71 = load ptr, ptr @feature_flipped_d, align 8
  %72 = load ptr, ptr %8, align 8
  %73 = getelementptr inbounds ptr, ptr %72, i64 0
  %74 = load ptr, ptr %73, align 8
  %75 = load i32, ptr %5, align 4
  %76 = load i32, ptr %6, align 4
  %77 = mul nsw i32 %75, %76
  %78 = sext i32 %77 to i64
  %79 = mul i64 %78, 4
  %80 = call i32 @cudaMemcpy(ptr noundef %71, ptr noundef %74, i64 noundef %79, i32 noundef 1)
  %81 = load i32, ptr %5, align 4
  %82 = load i32, ptr %6, align 4
  %83 = mul nsw i32 %81, %82
  %84 = sext i32 %83 to i64
  %85 = mul i64 %84, 4
  %86 = call i32 @cudaMalloc(ptr noundef @feature_d, i64 noundef %85)
  %87 = load i32, ptr @num_blocks, align 4
  call void @_ZN4dim3C2Ejjj(ptr noundef nonnull align 4 dereferenceable(12) %10, i32 noundef %87, i32 noundef 1, i32 noundef 1)
  %88 = load i32, ptr @num_threads, align 4
  call void @_ZN4dim3C2Ejjj(ptr noundef nonnull align 4 dereferenceable(12) %11, i32 noundef %88, i32 noundef 1, i32 noundef 1)
  call void @llvm.memcpy.p0.p0.i64(ptr align 4 %12, ptr align 4 %10, i64 12, i1 false)
  %89 = getelementptr inbounds { i64, i32 }, ptr %12, i32 0, i32 0
  %90 = load i64, ptr %89, align 4
  %91 = getelementptr inbounds { i64, i32 }, ptr %12, i32 0, i32 1
  %92 = load i32, ptr %91, align 4
  call void @llvm.memcpy.p0.p0.i64(ptr align 4 %13, ptr align 4 %11, i64 12, i1 false)
  %93 = getelementptr inbounds { i64, i32 }, ptr %13, i32 0, i32 0
  %94 = load i64, ptr %93, align 4
  %95 = getelementptr inbounds { i64, i32 }, ptr %13, i32 0, i32 1
  %96 = load i32, ptr %95, align 4
  %97 = call i32 @__cudaPushCallConfiguration(i64 %90, i32 %92, i64 %94, i32 %96, i64 noundef 0, ptr noundef null)
  %98 = icmp ne i32 %97, 0
  br i1 %98, label %104, label %99

99:                                               ; preds = %58
  %100 = load ptr, ptr @feature_flipped_d, align 8
  %101 = load ptr, ptr @feature_d, align 8
  %102 = load i32, ptr %5, align 4
  %103 = load i32, ptr %6, align 4
  call void @_Z29__device_stub__invert_mappingPfS_ii(ptr noundef %100, ptr noundef %101, i32 noundef %102, i32 noundef %103)
  br label %104

104:                                              ; preds = %99, %58
  %105 = load i32, ptr %5, align 4
  %106 = sext i32 %105 to i64
  %107 = mul i64 %106, 4
  %108 = call i32 @cudaMalloc(ptr noundef @membership_d, i64 noundef %107)
  %109 = load i32, ptr %7, align 4
  %110 = load i32, ptr %6, align 4
  %111 = mul nsw i32 %109, %110
  %112 = sext i32 %111 to i64
  %113 = mul i64 %112, 4
  %114 = call i32 @cudaMalloc(ptr noundef @clusters_d, i64 noundef %113)
  ret void
}

; Function Attrs: nounwind
declare double @sqrt(double noundef) #5

; Function Attrs: nounwind allocsize(0)
declare noalias ptr @malloc(i64 noundef) #6

declare i32 @cudaMalloc(ptr noundef, i64 noundef) #7

declare i32 @cudaMemcpy(ptr noundef, ptr noundef, i64 noundef, i32 noundef) #7

declare i32 @__cudaPushCallConfiguration(i64, i32, i64, i32, i64 noundef, ptr noundef) #7

; Function Attrs: noinline nounwind optnone uwtable
define linkonce_odr void @_ZN4dim3C2Ejjj(ptr noundef nonnull align 4 dereferenceable(12) %0, i32 noundef %1, i32 noundef %2, i32 noundef %3) unnamed_addr #8 comdat align 2 {
  %5 = alloca ptr, align 8
  %6 = alloca i32, align 4
  %7 = alloca i32, align 4
  %8 = alloca i32, align 4
  store ptr %0, ptr %5, align 8
  store i32 %1, ptr %6, align 4
  store i32 %2, ptr %7, align 4
  store i32 %3, ptr %8, align 4
  %9 = load ptr, ptr %5, align 8
  %10 = getelementptr inbounds %struct.dim3, ptr %9, i32 0, i32 0
  %11 = load i32, ptr %6, align 4
  store i32 %11, ptr %10, align 4
  %12 = getelementptr inbounds %struct.dim3, ptr %9, i32 0, i32 1
  %13 = load i32, ptr %7, align 4
  store i32 %13, ptr %12, align 4
  %14 = getelementptr inbounds %struct.dim3, ptr %9, i32 0, i32 2
  %15 = load i32, ptr %8, align 4
  store i32 %15, ptr %14, align 4
  ret void
}

; Function Attrs: mustprogress noinline optnone uwtable
define void @deallocateMemory() #4 {
  %1 = load ptr, ptr @membership_new, align 8
  call void @free(ptr noundef %1) #10
  %2 = load ptr, ptr @block_new_centers, align 8
  call void @free(ptr noundef %2) #10
  %3 = load ptr, ptr @feature_d, align 8
  %4 = call i32 @cudaFree(ptr noundef %3)
  %5 = load ptr, ptr @feature_flipped_d, align 8
  %6 = call i32 @cudaFree(ptr noundef %5)
  %7 = load ptr, ptr @membership_d, align 8
  %8 = call i32 @cudaFree(ptr noundef %7)
  %9 = load ptr, ptr @clusters_d, align 8
  %10 = call i32 @cudaFree(ptr noundef %9)
  ret void
}

; Function Attrs: nounwind
declare void @free(ptr noundef) #5

declare i32 @cudaFree(ptr noundef) #7

; Function Attrs: mustprogress noinline norecurse optnone uwtable
define noundef i32 @main(i32 noundef %0, ptr noundef %1) #9 {
  %3 = alloca i32, align 4
  %4 = alloca ptr, align 8
  store i32 %0, ptr %3, align 4
  store ptr %1, ptr %4, align 8
  %5 = call i32 @cudaSetDevice(i32 noundef 1)
  %6 = load i32, ptr %3, align 4
  %7 = load ptr, ptr %4, align 8
  %8 = call i32 @setup(i32 noundef %6, ptr noundef %7)
  ret i32 0
}

declare i32 @cudaSetDevice(i32 noundef) #7

declare i32 @setup(i32 noundef, ptr noundef) #7

; Function Attrs: mustprogress noinline optnone uwtable
define i32 @kmeansCuda(ptr noundef %0, i32 noundef %1, i32 noundef %2, i32 noundef %3, ptr noundef %4, ptr noundef %5, ptr noundef %6, ptr noundef %7) #4 {
  %9 = alloca ptr, align 8
  %10 = alloca i32, align 4
  %11 = alloca i32, align 4
  %12 = alloca i32, align 4
  %13 = alloca ptr, align 8
  %14 = alloca ptr, align 8
  %15 = alloca ptr, align 8
  %16 = alloca ptr, align 8
  %17 = alloca i32, align 4
  %18 = alloca i32, align 4
  %19 = alloca i32, align 4
  %20 = alloca %struct.cudaChannelFormatDesc, align 4
  %21 = alloca %struct.cudaChannelFormatDesc, align 4
  %22 = alloca %struct.cudaChannelFormatDesc, align 4
  %23 = alloca %struct.dim3, align 4
  %24 = alloca %struct.dim3, align 4
  %25 = alloca %struct.dim3, align 4
  %26 = alloca %struct.dim3, align 4
  %27 = alloca { i64, i32 }, align 4
  %28 = alloca { i64, i32 }, align 4
  %29 = alloca i32, align 4
  store ptr %0, ptr %9, align 8
  store i32 %1, ptr %10, align 4
  store i32 %2, ptr %11, align 4
  store i32 %3, ptr %12, align 4
  store ptr %4, ptr %13, align 8
  store ptr %5, ptr %14, align 8
  store ptr %6, ptr %15, align 8
  store ptr %7, ptr %16, align 8
  store i32 0, ptr %17, align 4
  %30 = call i32 @cudaSetDevice(i32 noundef 1)
  %31 = load ptr, ptr @membership_d, align 8
  %32 = load ptr, ptr @membership_new, align 8
  %33 = load i32, ptr %11, align 4
  %34 = sext i32 %33 to i64
  %35 = mul i64 %34, 4
  %36 = call i32 @cudaMemcpy(ptr noundef %31, ptr noundef %32, i64 noundef %35, i32 noundef 1)
  %37 = load ptr, ptr @clusters_d, align 8
  %38 = load ptr, ptr %14, align 8
  %39 = getelementptr inbounds ptr, ptr %38, i64 0
  %40 = load ptr, ptr %39, align 8
  %41 = load i32, ptr %12, align 4
  %42 = load i32, ptr %10, align 4
  %43 = mul nsw i32 %41, %42
  %44 = sext i32 %43 to i64
  %45 = mul i64 %44, 4
  %46 = call i32 @cudaMemcpy(ptr noundef %37, ptr noundef %40, i64 noundef %45, i32 noundef 1)
  call void @_Z21cudaCreateChannelDescIfE21cudaChannelFormatDescv(ptr sret(%struct.cudaChannelFormatDesc) align 4 %20)
  store i32 0, ptr getelementptr inbounds (%struct.textureReference, ptr @t_features, i32 0, i32 1), align 4
  store i32 0, ptr @t_features, align 4
  call void @llvm.memcpy.p0.p0.i64(ptr align 4 getelementptr inbounds (%struct.textureReference, ptr @t_features, i32 0, i32 3), ptr align 4 %20, i64 20, i1 false)
  %47 = load ptr, ptr @feature_d, align 8
  %48 = load i32, ptr %11, align 4
  %49 = load i32, ptr %10, align 4
  %50 = mul nsw i32 %48, %49
  %51 = sext i32 %50 to i64
  %52 = mul i64 %51, 4
  %53 = call i32 @cudaBindTexture(ptr noundef null, ptr noundef @t_features, ptr noundef %47, ptr noundef %20, i64 noundef %52)
  %54 = icmp ne i32 %53, 0
  br i1 %54, label %55, label %57

55:                                               ; preds = %8
  %56 = call i32 (ptr, ...) @printf(ptr noundef @.str)
  br label %57

57:                                               ; preds = %55, %8
  call void @_Z21cudaCreateChannelDescIfE21cudaChannelFormatDescv(ptr sret(%struct.cudaChannelFormatDesc) align 4 %21)
  store i32 0, ptr getelementptr inbounds (%struct.textureReference, ptr @t_features_flipped, i32 0, i32 1), align 4
  store i32 0, ptr @t_features_flipped, align 4
  call void @llvm.memcpy.p0.p0.i64(ptr align 4 getelementptr inbounds (%struct.textureReference, ptr @t_features_flipped, i32 0, i32 3), ptr align 4 %21, i64 20, i1 false)
  %58 = load ptr, ptr @feature_flipped_d, align 8
  %59 = load i32, ptr %11, align 4
  %60 = load i32, ptr %10, align 4
  %61 = mul nsw i32 %59, %60
  %62 = sext i32 %61 to i64
  %63 = mul i64 %62, 4
  %64 = call i32 @cudaBindTexture(ptr noundef null, ptr noundef @t_features_flipped, ptr noundef %58, ptr noundef %21, i64 noundef %63)
  %65 = icmp ne i32 %64, 0
  br i1 %65, label %66, label %68

66:                                               ; preds = %57
  %67 = call i32 (ptr, ...) @printf(ptr noundef @.str.5)
  br label %68

68:                                               ; preds = %66, %57
  call void @_Z21cudaCreateChannelDescIfE21cudaChannelFormatDescv(ptr sret(%struct.cudaChannelFormatDesc) align 4 %22)
  store i32 0, ptr getelementptr inbounds (%struct.textureReference, ptr @t_clusters, i32 0, i32 1), align 4
  store i32 0, ptr @t_clusters, align 4
  call void @llvm.memcpy.p0.p0.i64(ptr align 4 getelementptr inbounds (%struct.textureReference, ptr @t_clusters, i32 0, i32 3), ptr align 4 %22, i64 20, i1 false)
  %69 = load ptr, ptr @clusters_d, align 8
  %70 = load i32, ptr %12, align 4
  %71 = load i32, ptr %10, align 4
  %72 = mul nsw i32 %70, %71
  %73 = sext i32 %72 to i64
  %74 = mul i64 %73, 4
  %75 = call i32 @cudaBindTexture(ptr noundef null, ptr noundef @t_clusters, ptr noundef %69, ptr noundef %22, i64 noundef %74)
  %76 = icmp ne i32 %75, 0
  br i1 %76, label %77, label %79

77:                                               ; preds = %68
  %78 = call i32 (ptr, ...) @printf(ptr noundef @.str.6)
  br label %79

79:                                               ; preds = %77, %68
  %80 = load ptr, ptr %14, align 8
  %81 = getelementptr inbounds ptr, ptr %80, i64 0
  %82 = load ptr, ptr %81, align 8
  %83 = load i32, ptr %12, align 4
  %84 = load i32, ptr %10, align 4
  %85 = mul nsw i32 %83, %84
  %86 = sext i32 %85 to i64
  %87 = mul i64 %86, 4
  %88 = call noundef i32 @_ZL18cudaMemcpyToSymbolIA11_cE9cudaErrorRKT_PKvmm14cudaMemcpyKind(ptr noundef nonnull align 1 dereferenceable(11) @.str.7, ptr noundef %82, i64 noundef %87, i64 noundef 0, i32 noundef 1)
  %89 = load i32, ptr @num_blocks_perdim, align 4
  %90 = load i32, ptr @num_blocks_perdim, align 4
  call void @_ZN4dim3C2Ejjj(ptr noundef nonnull align 4 dereferenceable(12) %23, i32 noundef %89, i32 noundef %90, i32 noundef 1)
  %91 = load i32, ptr @num_threads_perdim, align 4
  %92 = load i32, ptr @num_threads_perdim, align 4
  %93 = mul i32 %91, %92
  call void @_ZN4dim3C2Ejjj(ptr noundef nonnull align 4 dereferenceable(12) %24, i32 noundef %93, i32 noundef 1, i32 noundef 1)
  call void @llvm.memcpy.p0.p0.i64(ptr align 4 %25, ptr align 4 %23, i64 12, i1 false)
  call void @llvm.memcpy.p0.p0.i64(ptr align 4 %26, ptr align 4 %24, i64 12, i1 false)
  call void @llvm.memcpy.p0.p0.i64(ptr align 4 %27, ptr align 4 %25, i64 12, i1 false)
  %94 = getelementptr inbounds { i64, i32 }, ptr %27, i32 0, i32 0
  %95 = load i64, ptr %94, align 4
  %96 = getelementptr inbounds { i64, i32 }, ptr %27, i32 0, i32 1
  %97 = load i32, ptr %96, align 4
  call void @llvm.memcpy.p0.p0.i64(ptr align 4 %28, ptr align 4 %26, i64 12, i1 false)
  %98 = getelementptr inbounds { i64, i32 }, ptr %28, i32 0, i32 0
  %99 = load i64, ptr %98, align 4
  %100 = getelementptr inbounds { i64, i32 }, ptr %28, i32 0, i32 1
  %101 = load i32, ptr %100, align 4
  %102 = call i32 @__cudaPushCallConfiguration(i64 %95, i32 %97, i64 %99, i32 %101, i64 noundef 0, ptr noundef null)
  %103 = icmp ne i32 %102, 0
  br i1 %103, label %113, label %104

104:                                              ; preds = %79
  %105 = load ptr, ptr @feature_d, align 8
  %106 = load i32, ptr %10, align 4
  %107 = load i32, ptr %11, align 4
  %108 = load i32, ptr %12, align 4
  %109 = load ptr, ptr @membership_d, align 8
  %110 = load ptr, ptr @clusters_d, align 8
  %111 = load ptr, ptr @block_clusters_d, align 8
  %112 = load ptr, ptr @block_deltas_d, align 8
  call void @_Z26__device_stub__kmeansPointPfiiiPiS_S_S0_(ptr noundef %105, i32 noundef %106, i32 noundef %107, i32 noundef %108, ptr noundef %109, ptr noundef %110, ptr noundef %111, ptr noundef %112)
  br label %113

113:                                              ; preds = %104, %79
  %114 = call i32 @cudaThreadSynchronize()
  %115 = load ptr, ptr @membership_new, align 8
  %116 = load ptr, ptr @membership_d, align 8
  %117 = load i32, ptr %11, align 4
  %118 = sext i32 %117 to i64
  %119 = mul i64 %118, 4
  %120 = call i32 @cudaMemcpy(ptr noundef %115, ptr noundef %116, i64 noundef %119, i32 noundef 2)
  store i32 0, ptr %17, align 4
  store i32 0, ptr %18, align 4
  br label %121

121:                                              ; preds = %189, %113
  %122 = load i32, ptr %18, align 4
  %123 = load i32, ptr %11, align 4
  %124 = icmp slt i32 %122, %123
  br i1 %124, label %125, label %192

125:                                              ; preds = %121
  %126 = load ptr, ptr @membership_new, align 8
  %127 = load i32, ptr %18, align 4
  %128 = sext i32 %127 to i64
  %129 = getelementptr inbounds i32, ptr %126, i64 %128
  %130 = load i32, ptr %129, align 4
  store i32 %130, ptr %29, align 4
  %131 = load ptr, ptr %15, align 8
  %132 = load i32, ptr %29, align 4
  %133 = sext i32 %132 to i64
  %134 = getelementptr inbounds i32, ptr %131, i64 %133
  %135 = load i32, ptr %134, align 4
  %136 = add nsw i32 %135, 1
  store i32 %136, ptr %134, align 4
  %137 = load ptr, ptr @membership_new, align 8
  %138 = load i32, ptr %18, align 4
  %139 = sext i32 %138 to i64
  %140 = getelementptr inbounds i32, ptr %137, i64 %139
  %141 = load i32, ptr %140, align 4
  %142 = load ptr, ptr %13, align 8
  %143 = load i32, ptr %18, align 4
  %144 = sext i32 %143 to i64
  %145 = getelementptr inbounds i32, ptr %142, i64 %144
  %146 = load i32, ptr %145, align 4
  %147 = icmp ne i32 %141, %146
  br i1 %147, label %148, label %160

148:                                              ; preds = %125
  %149 = load i32, ptr %17, align 4
  %150 = add nsw i32 %149, 1
  store i32 %150, ptr %17, align 4
  %151 = load ptr, ptr @membership_new, align 8
  %152 = load i32, ptr %18, align 4
  %153 = sext i32 %152 to i64
  %154 = getelementptr inbounds i32, ptr %151, i64 %153
  %155 = load i32, ptr %154, align 4
  %156 = load ptr, ptr %13, align 8
  %157 = load i32, ptr %18, align 4
  %158 = sext i32 %157 to i64
  %159 = getelementptr inbounds i32, ptr %156, i64 %158
  store i32 %155, ptr %159, align 4
  br label %160

160:                                              ; preds = %148, %125
  store i32 0, ptr %19, align 4
  br label %161

161:                                              ; preds = %185, %160
  %162 = load i32, ptr %19, align 4
  %163 = load i32, ptr %10, align 4
  %164 = icmp slt i32 %162, %163
  br i1 %164, label %165, label %188

165:                                              ; preds = %161
  %166 = load ptr, ptr %9, align 8
  %167 = load i32, ptr %18, align 4
  %168 = sext i32 %167 to i64
  %169 = getelementptr inbounds ptr, ptr %166, i64 %168
  %170 = load ptr, ptr %169, align 8
  %171 = load i32, ptr %19, align 4
  %172 = sext i32 %171 to i64
  %173 = getelementptr inbounds float, ptr %170, i64 %172
  %174 = load float, ptr %173, align 4
  %175 = load ptr, ptr %16, align 8
  %176 = load i32, ptr %29, align 4
  %177 = sext i32 %176 to i64
  %178 = getelementptr inbounds ptr, ptr %175, i64 %177
  %179 = load ptr, ptr %178, align 8
  %180 = load i32, ptr %19, align 4
  %181 = sext i32 %180 to i64
  %182 = getelementptr inbounds float, ptr %179, i64 %181
  %183 = load float, ptr %182, align 4
  %184 = fadd float %183, %174
  store float %184, ptr %182, align 4
  br label %185

185:                                              ; preds = %165
  %186 = load i32, ptr %19, align 4
  %187 = add nsw i32 %186, 1
  store i32 %187, ptr %19, align 4
  br label %161, !llvm.loop !9

188:                                              ; preds = %161
  br label %189

189:                                              ; preds = %188
  %190 = load i32, ptr %18, align 4
  %191 = add nsw i32 %190, 1
  store i32 %191, ptr %18, align 4
  br label %121, !llvm.loop !10

192:                                              ; preds = %121
  %193 = load i32, ptr %17, align 4
  ret i32 %193
}

; Function Attrs: mustprogress noinline optnone uwtable
define linkonce_odr void @_Z21cudaCreateChannelDescIfE21cudaChannelFormatDescv(ptr noalias sret(%struct.cudaChannelFormatDesc) align 4 %0) #4 comdat {
  %2 = alloca i32, align 4
  store i32 32, ptr %2, align 4
  %3 = load i32, ptr %2, align 4
  call void @cudaCreateChannelDesc(ptr sret(%struct.cudaChannelFormatDesc) align 4 %0, i32 noundef %3, i32 noundef 0, i32 noundef 0, i32 noundef 0, i32 noundef 2)
  ret void
}

declare i32 @cudaBindTexture(ptr noundef, ptr noundef, ptr noundef, ptr noundef, i64 noundef) #7

declare i32 @printf(ptr noundef, ...) #7

; Function Attrs: mustprogress noinline optnone uwtable
define internal noundef i32 @_ZL18cudaMemcpyToSymbolIA11_cE9cudaErrorRKT_PKvmm14cudaMemcpyKind(ptr noundef nonnull align 1 dereferenceable(11) %0, ptr noundef %1, i64 noundef %2, i64 noundef %3, i32 noundef %4) #4 {
  %6 = alloca ptr, align 8
  %7 = alloca ptr, align 8
  %8 = alloca i64, align 8
  %9 = alloca i64, align 8
  %10 = alloca i32, align 4
  store ptr %0, ptr %6, align 8
  store ptr %1, ptr %7, align 8
  store i64 %2, ptr %8, align 8
  store i64 %3, ptr %9, align 8
  store i32 %4, ptr %10, align 4
  %11 = load ptr, ptr %6, align 8
  %12 = load ptr, ptr %7, align 8
  %13 = load i64, ptr %8, align 8
  %14 = load i64, ptr %9, align 8
  %15 = load i32, ptr %10, align 4
  %16 = call i32 @cudaMemcpyToSymbol(ptr noundef %11, ptr noundef %12, i64 noundef %13, i64 noundef %14, i32 noundef %15)
  ret i32 %16
}

declare i32 @cudaThreadSynchronize() #7

declare void @cudaCreateChannelDesc(ptr sret(%struct.cudaChannelFormatDesc) align 4, i32 noundef, i32 noundef, i32 noundef, i32 noundef, i32 noundef) #7

declare i32 @cudaMemcpyToSymbol(ptr noundef, ptr noundef, i64 noundef, i64 noundef, i32 noundef) #7

; Function Attrs: noinline uwtable
define internal void @_GLOBAL__sub_I_kmeans_cuda.cu() #0 section ".text.startup" {
  call void @__cxx_global_var_init()
  call void @__cxx_global_var_init.1()
  call void @__cxx_global_var_init.2()
  call void @__cxx_global_var_init.3()
  call void @__cxx_global_var_init.4()
  ret void
}

define internal void @__cuda_register_globals(ptr %0) {
  %2 = call i32 @__cudaRegisterFunction(ptr %0, ptr @_Z29__device_stub__invert_mappingPfS_ii, ptr @0, ptr @0, i32 -1, ptr null, ptr null, ptr null, ptr null, ptr null)
  %3 = call i32 @__cudaRegisterFunction(ptr %0, ptr @_Z26__device_stub__kmeansPointPfiiiPiS_S_S0_, ptr @1, ptr @1, i32 -1, ptr null, ptr null, ptr null, ptr null, ptr null)
  call void @__cudaRegisterTexture(ptr %0, ptr @t_features, ptr @2, ptr @2, i32 1, i32 0, i32 0)
  call void @__cudaRegisterTexture(ptr %0, ptr @t_features_flipped, ptr @3, ptr @3, i32 1, i32 0, i32 0)
  call void @__cudaRegisterTexture(ptr %0, ptr @t_clusters, ptr @4, ptr @4, i32 1, i32 0, i32 0)
  call void @__cudaRegisterVar(ptr %0, ptr @c_clusters, ptr @.str.7, ptr @.str.7, i32 0, i64 4352, i32 1, i32 0)
  ret void
}

declare i32 @__cudaRegisterFunction(ptr, ptr, ptr, ptr, i32, ptr, ptr, ptr, ptr, ptr)

declare void @__cudaRegisterVar(ptr, ptr, ptr, ptr, i32, i64, i32, i32)

declare void @__cudaRegisterManagedVar(ptr, ptr, ptr, ptr, i64, i32)

declare void @__cudaRegisterSurface(ptr, ptr, ptr, ptr, i32, i32)

declare void @__cudaRegisterTexture(ptr, ptr, ptr, ptr, i32, i32, i32)

declare ptr @__cudaRegisterFatBinary(ptr)

define internal void @__cuda_module_ctor() {
  %1 = call ptr @__cudaRegisterFatBinary(ptr @__cuda_fatbin_wrapper)
  store ptr %1, ptr @__cuda_gpubin_handle, align 8
  call void @__cuda_register_globals(ptr %1)
  call void @__cudaRegisterFatBinaryEnd(ptr %1)
  %2 = call i32 @atexit(ptr @__cuda_module_dtor)
  ret void
}

declare void @__cudaRegisterFatBinaryEnd(ptr)

declare void @__cudaUnregisterFatBinary(ptr)

define internal void @__cuda_module_dtor() {
  %1 = load ptr, ptr @__cuda_gpubin_handle, align 8
  call void @__cudaUnregisterFatBinary(ptr %1)
  ret void
}

declare i32 @atexit(ptr)

attributes #0 = { noinline uwtable "frame-pointer"="all" "min-legal-vector-width"="0" "no-trapping-math"="true" "stack-protector-buffer-size"="8" "target-cpu"="x86-64" "target-features"="+cx8,+fxsr,+mmx,+sse,+sse2,+x87" "tune-cpu"="generic" }
attributes #1 = { noinline optnone uwtable "frame-pointer"="all" "min-legal-vector-width"="0" "no-trapping-math"="true" "stack-protector-buffer-size"="8" "target-cpu"="x86-64" "target-features"="+cx8,+fxsr,+mmx,+sse,+sse2,+x87" "tune-cpu"="generic" }
attributes #2 = { noinline norecurse optnone uwtable "frame-pointer"="all" "min-legal-vector-width"="0" "no-trapping-math"="true" "stack-protector-buffer-size"="8" "target-cpu"="x86-64" "target-features"="+cx8,+fxsr,+mmx,+sse,+sse2,+x87" "tune-cpu"="generic" }
attributes #3 = { argmemonly nocallback nofree nounwind willreturn }
attributes #4 = { mustprogress noinline optnone uwtable "frame-pointer"="all" "min-legal-vector-width"="0" "no-trapping-math"="true" "stack-protector-buffer-size"="8" "target-cpu"="x86-64" "target-features"="+cx8,+fxsr,+mmx,+sse,+sse2,+x87" "tune-cpu"="generic" }
attributes #5 = { nounwind "frame-pointer"="all" "no-trapping-math"="true" "stack-protector-buffer-size"="8" "target-cpu"="x86-64" "target-features"="+cx8,+fxsr,+mmx,+sse,+sse2,+x87" "tune-cpu"="generic" }
attributes #6 = { nounwind allocsize(0) "frame-pointer"="all" "no-trapping-math"="true" "stack-protector-buffer-size"="8" "target-cpu"="x86-64" "target-features"="+cx8,+fxsr,+mmx,+sse,+sse2,+x87" "tune-cpu"="generic" }
attributes #7 = { "frame-pointer"="all" "no-trapping-math"="true" "stack-protector-buffer-size"="8" "target-cpu"="x86-64" "target-features"="+cx8,+fxsr,+mmx,+sse,+sse2,+x87" "tune-cpu"="generic" }
attributes #8 = { noinline nounwind optnone uwtable "frame-pointer"="all" "min-legal-vector-width"="0" "no-trapping-math"="true" "stack-protector-buffer-size"="8" "target-cpu"="x86-64" "target-features"="+cx8,+fxsr,+mmx,+sse,+sse2,+x87" "tune-cpu"="generic" }
attributes #9 = { mustprogress noinline norecurse optnone uwtable "frame-pointer"="all" "min-legal-vector-width"="0" "no-trapping-math"="true" "stack-protector-buffer-size"="8" "target-cpu"="x86-64" "target-features"="+cx8,+fxsr,+mmx,+sse,+sse2,+x87" "tune-cpu"="generic" }
attributes #10 = { nounwind }
attributes #11 = { nounwind allocsize(0) }

!llvm.module.flags = !{!0, !1, !2, !3, !4}
!llvm.ident = !{!5}

!0 = !{i32 2, !"SDK Version", [2 x i32] [i32 11, i32 5]}
!1 = !{i32 1, !"wchar_size", i32 4}
!2 = !{i32 8, !"PIC Level", i32 2}
!3 = !{i32 7, !"uwtable", i32 2}
!4 = !{i32 7, !"frame-pointer", i32 2}
!5 = !{!"clang version 16.0.0 (https://github.com/llvm/llvm-project.git 159fb378f779ac79f7d456ea233892ad526b56d8)"}
!6 = distinct !{!6, !7}
!7 = !{!"llvm.loop.mustprogress"}
!8 = distinct !{!8, !7}
!9 = distinct !{!9, !7}
!10 = distinct !{!10, !7}
