	.text
	.file	"kmeans_cuda.cu"
	.section	.text.startup,"ax",@progbits
	.p2align	4, 0x90                         # -- Begin function __cxx_global_var_init
	.type	__cxx_global_var_init,@function
__cxx_global_var_init:                  # @__cxx_global_var_init
	.cfi_startproc
# %bb.0:
	pushq	%rbp
	.cfi_def_cfa_offset 16
	.cfi_offset %rbp, -16
	movq	%rsp, %rbp
	.cfi_def_cfa_register %rbp
	leaq	t_features(%rip), %rdi
	xorl	%edx, %edx
	movl	$1, %ecx
	movl	%edx, %esi
	callq	_ZN7textureIfLi1EL19cudaTextureReadMode0EEC2Ei21cudaTextureFilterMode22cudaTextureAddressMode@PLT
	popq	%rbp
	.cfi_def_cfa %rsp, 8
	retq
.Lfunc_end0:
	.size	__cxx_global_var_init, .Lfunc_end0-__cxx_global_var_init
	.cfi_endproc
                                        # -- End function
	.section	.text._ZN7textureIfLi1EL19cudaTextureReadMode0EEC2Ei21cudaTextureFilterMode22cudaTextureAddressMode,"axG",@progbits,_ZN7textureIfLi1EL19cudaTextureReadMode0EEC2Ei21cudaTextureFilterMode22cudaTextureAddressMode,comdat
	.weak	_ZN7textureIfLi1EL19cudaTextureReadMode0EEC2Ei21cudaTextureFilterMode22cudaTextureAddressMode # -- Begin function _ZN7textureIfLi1EL19cudaTextureReadMode0EEC2Ei21cudaTextureFilterMode22cudaTextureAddressMode
	.p2align	4, 0x90
	.type	_ZN7textureIfLi1EL19cudaTextureReadMode0EEC2Ei21cudaTextureFilterMode22cudaTextureAddressMode,@function
_ZN7textureIfLi1EL19cudaTextureReadMode0EEC2Ei21cudaTextureFilterMode22cudaTextureAddressMode: # @_ZN7textureIfLi1EL19cudaTextureReadMode0EEC2Ei21cudaTextureFilterMode22cudaTextureAddressMode
	.cfi_startproc
# %bb.0:
	pushq	%rbp
	.cfi_def_cfa_offset 16
	.cfi_offset %rbp, -16
	movq	%rsp, %rbp
	.cfi_def_cfa_register %rbp
	subq	$48, %rsp
	movq	%rdi, -8(%rbp)
	movl	%esi, -12(%rbp)
	movl	%edx, -16(%rbp)
	movl	%ecx, -20(%rbp)
	movq	-8(%rbp), %rax
	movq	%rax, -48(%rbp)                 # 8-byte Spill
	movl	-12(%rbp), %ecx
	movl	%ecx, (%rax)
	movl	-16(%rbp), %ecx
	movl	%ecx, 4(%rax)
	movl	-20(%rbp), %ecx
	movl	%ecx, 8(%rax)
	movl	-20(%rbp), %ecx
	movl	%ecx, 12(%rax)
	movl	-20(%rbp), %ecx
	movl	%ecx, 16(%rax)
	leaq	-40(%rbp), %rdi
	callq	_Z21cudaCreateChannelDescIfE21cudaChannelFormatDescv@PLT
	movq	-48(%rbp), %rax                 # 8-byte Reload
	movq	-40(%rbp), %rcx
	movq	%rcx, 20(%rax)
	movq	-32(%rbp), %rcx
	movq	%rcx, 28(%rax)
	movl	-24(%rbp), %ecx
	movl	%ecx, 36(%rax)
	movl	$0, 40(%rax)
	addq	$48, %rsp
	popq	%rbp
	.cfi_def_cfa %rsp, 8
	retq
.Lfunc_end1:
	.size	_ZN7textureIfLi1EL19cudaTextureReadMode0EEC2Ei21cudaTextureFilterMode22cudaTextureAddressMode, .Lfunc_end1-_ZN7textureIfLi1EL19cudaTextureReadMode0EEC2Ei21cudaTextureFilterMode22cudaTextureAddressMode
	.cfi_endproc
                                        # -- End function
	.section	.text.startup,"ax",@progbits
	.p2align	4, 0x90                         # -- Begin function __cxx_global_var_init.1
	.type	__cxx_global_var_init.1,@function
__cxx_global_var_init.1:                # @__cxx_global_var_init.1
	.cfi_startproc
# %bb.0:
	pushq	%rbp
	.cfi_def_cfa_offset 16
	.cfi_offset %rbp, -16
	movq	%rsp, %rbp
	.cfi_def_cfa_register %rbp
	leaq	t_features_flipped(%rip), %rdi
	xorl	%edx, %edx
	movl	$1, %ecx
	movl	%edx, %esi
	callq	_ZN7textureIfLi1EL19cudaTextureReadMode0EEC2Ei21cudaTextureFilterMode22cudaTextureAddressMode@PLT
	popq	%rbp
	.cfi_def_cfa %rsp, 8
	retq
.Lfunc_end2:
	.size	__cxx_global_var_init.1, .Lfunc_end2-__cxx_global_var_init.1
	.cfi_endproc
                                        # -- End function
	.p2align	4, 0x90                         # -- Begin function __cxx_global_var_init.2
	.type	__cxx_global_var_init.2,@function
__cxx_global_var_init.2:                # @__cxx_global_var_init.2
	.cfi_startproc
# %bb.0:
	pushq	%rbp
	.cfi_def_cfa_offset 16
	.cfi_offset %rbp, -16
	movq	%rsp, %rbp
	.cfi_def_cfa_register %rbp
	leaq	t_clusters(%rip), %rdi
	xorl	%edx, %edx
	movl	$1, %ecx
	movl	%edx, %esi
	callq	_ZN7textureIfLi1EL19cudaTextureReadMode0EEC2Ei21cudaTextureFilterMode22cudaTextureAddressMode@PLT
	popq	%rbp
	.cfi_def_cfa %rsp, 8
	retq
.Lfunc_end3:
	.size	__cxx_global_var_init.2, .Lfunc_end3-__cxx_global_var_init.2
	.cfi_endproc
                                        # -- End function
	.text
	.globl	_Z29__device_stub__invert_mappingPfS_ii # -- Begin function _Z29__device_stub__invert_mappingPfS_ii
	.p2align	4, 0x90
	.type	_Z29__device_stub__invert_mappingPfS_ii,@function
_Z29__device_stub__invert_mappingPfS_ii: # @_Z29__device_stub__invert_mappingPfS_ii
	.cfi_startproc
# %bb.0:
	pushq	%rbp
	.cfi_def_cfa_offset 16
	.cfi_offset %rbp, -16
	movq	%rsp, %rbp
	.cfi_def_cfa_register %rbp
	subq	$160, %rsp
	movq	%rdi, -8(%rbp)
	movq	%rsi, -16(%rbp)
	movl	%edx, -20(%rbp)
	movl	%ecx, -24(%rbp)
	leaq	-8(%rbp), %rax
	movq	%rax, -144(%rbp)
	leaq	-16(%rbp), %rax
	movq	%rax, -136(%rbp)
	leaq	-20(%rbp), %rax
	movq	%rax, -128(%rbp)
	leaq	-24(%rbp), %rax
	movq	%rax, -120(%rbp)
	leaq	-40(%rbp), %rdi
	leaq	-56(%rbp), %rsi
	leaq	-64(%rbp), %rdx
	leaq	-72(%rbp), %rcx
	callq	__cudaPopCallConfiguration@PLT
	movq	-64(%rbp), %r10
	movq	-72(%rbp), %rax
	movq	-40(%rbp), %rcx
	movq	%rcx, -88(%rbp)
	movl	-32(%rbp), %ecx
	movl	%ecx, -80(%rbp)
	movq	-88(%rbp), %rsi
	movl	-80(%rbp), %edx
	movq	-56(%rbp), %rcx
	movq	%rcx, -104(%rbp)
	movl	-48(%rbp), %ecx
	movl	%ecx, -96(%rbp)
	movq	-104(%rbp), %rcx
	movl	-96(%rbp), %r8d
	movq	_Z29__device_stub__invert_mappingPfS_ii@GOTPCREL(%rip), %rdi
	leaq	-144(%rbp), %r9
	movq	%r10, (%rsp)
	movq	%rax, 8(%rsp)
	callq	cudaLaunchKernel@PLT
# %bb.1:
	addq	$160, %rsp
	popq	%rbp
	.cfi_def_cfa %rsp, 8
	retq
.Lfunc_end4:
	.size	_Z29__device_stub__invert_mappingPfS_ii, .Lfunc_end4-_Z29__device_stub__invert_mappingPfS_ii
	.cfi_endproc
                                        # -- End function
	.globl	_Z26__device_stub__kmeansPointPfiiiPiS_S_S0_ # -- Begin function _Z26__device_stub__kmeansPointPfiiiPiS_S_S0_
	.p2align	4, 0x90
	.type	_Z26__device_stub__kmeansPointPfiiiPiS_S_S0_,@function
_Z26__device_stub__kmeansPointPfiiiPiS_S_S0_: # @_Z26__device_stub__kmeansPointPfiiiPiS_S_S0_
	.cfi_startproc
# %bb.0:
	pushq	%rbp
	.cfi_def_cfa_offset 16
	.cfi_offset %rbp, -16
	movq	%rsp, %rbp
	.cfi_def_cfa_register %rbp
	subq	$208, %rsp
	movq	24(%rbp), %rax
	movq	16(%rbp), %rax
	movq	%rdi, -8(%rbp)
	movl	%esi, -12(%rbp)
	movl	%edx, -16(%rbp)
	movl	%ecx, -20(%rbp)
	movq	%r8, -32(%rbp)
	movq	%r9, -40(%rbp)
	leaq	-8(%rbp), %rax
	movq	%rax, -192(%rbp)
	leaq	-12(%rbp), %rax
	movq	%rax, -184(%rbp)
	leaq	-16(%rbp), %rax
	movq	%rax, -176(%rbp)
	leaq	-20(%rbp), %rax
	movq	%rax, -168(%rbp)
	leaq	-32(%rbp), %rax
	movq	%rax, -160(%rbp)
	leaq	-40(%rbp), %rax
	movq	%rax, -152(%rbp)
	leaq	16(%rbp), %rax
	movq	%rax, -144(%rbp)
	leaq	24(%rbp), %rax
	movq	%rax, -136(%rbp)
	leaq	-56(%rbp), %rdi
	leaq	-72(%rbp), %rsi
	leaq	-80(%rbp), %rdx
	leaq	-88(%rbp), %rcx
	callq	__cudaPopCallConfiguration@PLT
	movq	-80(%rbp), %r10
	movq	-88(%rbp), %rax
	movq	-56(%rbp), %rcx
	movq	%rcx, -104(%rbp)
	movl	-48(%rbp), %ecx
	movl	%ecx, -96(%rbp)
	movq	-104(%rbp), %rsi
	movl	-96(%rbp), %edx
	movq	-72(%rbp), %rcx
	movq	%rcx, -120(%rbp)
	movl	-64(%rbp), %ecx
	movl	%ecx, -112(%rbp)
	movq	-120(%rbp), %rcx
	movl	-112(%rbp), %r8d
	movq	_Z26__device_stub__kmeansPointPfiiiPiS_S_S0_@GOTPCREL(%rip), %rdi
	leaq	-192(%rbp), %r9
	movq	%r10, (%rsp)
	movq	%rax, 8(%rsp)
	callq	cudaLaunchKernel@PLT
# %bb.1:
	addq	$208, %rsp
	popq	%rbp
	.cfi_def_cfa %rsp, 8
	retq
.Lfunc_end5:
	.size	_Z26__device_stub__kmeansPointPfiiiPiS_S_S0_, .Lfunc_end5-_Z26__device_stub__kmeansPointPfiiiPiS_S_S0_
	.cfi_endproc
                                        # -- End function
	.section	.text.startup,"ax",@progbits
	.p2align	4, 0x90                         # -- Begin function __cxx_global_var_init.3
	.type	__cxx_global_var_init.3,@function
__cxx_global_var_init.3:                # @__cxx_global_var_init.3
	.cfi_startproc
# %bb.0:
	pushq	%rbp
	.cfi_def_cfa_offset 16
	.cfi_offset %rbp, -16
	movq	%rsp, %rbp
	.cfi_def_cfa_register %rbp
	movq	num_threads_perdim@GOTPCREL(%rip), %rax
	movl	(%rax), %ecx
	movq	num_threads_perdim@GOTPCREL(%rip), %rax
	imull	(%rax), %ecx
	movq	num_threads@GOTPCREL(%rip), %rax
	movl	%ecx, (%rax)
	popq	%rbp
	.cfi_def_cfa %rsp, 8
	retq
.Lfunc_end6:
	.size	__cxx_global_var_init.3, .Lfunc_end6-__cxx_global_var_init.3
	.cfi_endproc
                                        # -- End function
	.p2align	4, 0x90                         # -- Begin function __cxx_global_var_init.4
	.type	__cxx_global_var_init.4,@function
__cxx_global_var_init.4:                # @__cxx_global_var_init.4
	.cfi_startproc
# %bb.0:
	pushq	%rbp
	.cfi_def_cfa_offset 16
	.cfi_offset %rbp, -16
	movq	%rsp, %rbp
	.cfi_def_cfa_register %rbp
	movq	num_blocks_perdim@GOTPCREL(%rip), %rax
	movl	(%rax), %ecx
	movq	num_blocks_perdim@GOTPCREL(%rip), %rax
	imull	(%rax), %ecx
	movq	num_blocks@GOTPCREL(%rip), %rax
	movl	%ecx, (%rax)
	popq	%rbp
	.cfi_def_cfa %rsp, 8
	retq
.Lfunc_end7:
	.size	__cxx_global_var_init.4, .Lfunc_end7-__cxx_global_var_init.4
	.cfi_endproc
                                        # -- End function
	.text
	.globl	allocateMemory                  # -- Begin function allocateMemory
	.p2align	4, 0x90
	.type	allocateMemory,@function
allocateMemory:                         # @allocateMemory
	.cfi_startproc
# %bb.0:
	pushq	%rbp
	.cfi_def_cfa_offset 16
	.cfi_offset %rbp, -16
	movq	%rsp, %rbp
	.cfi_def_cfa_register %rbp
	subq	$96, %rsp
	movl	%edi, -4(%rbp)
	movl	%esi, -8(%rbp)
	movl	%edx, -12(%rbp)
	movq	%rcx, -24(%rbp)
	movl	-4(%rbp), %eax
	movq	num_threads@GOTPCREL(%rip), %rcx
	xorl	%edx, %edx
	divl	(%rcx)
	movl	%eax, %ecx
	movq	num_blocks@GOTPCREL(%rip), %rax
	movl	%ecx, (%rax)
	movl	-4(%rbp), %eax
	movq	num_threads@GOTPCREL(%rip), %rcx
	xorl	%edx, %edx
	divl	(%rcx)
	cmpl	$0, %edx
	jbe	.LBB8_2
# %bb.1:
	movq	num_blocks@GOTPCREL(%rip), %rax
	movl	(%rax), %ecx
	addl	$1, %ecx
	movq	num_blocks@GOTPCREL(%rip), %rax
	movl	%ecx, (%rax)
.LBB8_2:
	movq	num_blocks@GOTPCREL(%rip), %rax
	movl	(%rax), %eax
                                        # kill: def $rax killed $eax
	cvtsi2sd	%rax, %xmm0
	callq	sqrt@PLT
	cvttsd2si	%xmm0, %rax
	movl	%eax, %ecx
	movq	num_blocks_perdim@GOTPCREL(%rip), %rax
	movl	%ecx, (%rax)
.LBB8_3:                                # =>This Inner Loop Header: Depth=1
	movq	num_blocks_perdim@GOTPCREL(%rip), %rax
	movl	(%rax), %eax
	movq	num_blocks_perdim@GOTPCREL(%rip), %rcx
	imull	(%rcx), %eax
	movq	num_blocks@GOTPCREL(%rip), %rcx
	cmpl	(%rcx), %eax
	jae	.LBB8_5
# %bb.4:                                #   in Loop: Header=BB8_3 Depth=1
	movq	num_blocks_perdim@GOTPCREL(%rip), %rax
	movl	(%rax), %ecx
	addl	$1, %ecx
	movq	num_blocks_perdim@GOTPCREL(%rip), %rax
	movl	%ecx, (%rax)
	jmp	.LBB8_3
.LBB8_5:
	movq	num_blocks_perdim@GOTPCREL(%rip), %rax
	movl	(%rax), %ecx
	movq	num_blocks_perdim@GOTPCREL(%rip), %rax
	imull	(%rax), %ecx
	movq	num_blocks@GOTPCREL(%rip), %rax
	movl	%ecx, (%rax)
	movslq	-4(%rbp), %rdi
	shlq	$2, %rdi
	callq	malloc@PLT
	movq	%rax, %rcx
	movq	membership_new@GOTPCREL(%rip), %rax
	movq	%rcx, (%rax)
	movl	$0, -28(%rbp)
.LBB8_6:                                # =>This Inner Loop Header: Depth=1
	movl	-28(%rbp), %eax
	cmpl	-4(%rbp), %eax
	jge	.LBB8_9
# %bb.7:                                #   in Loop: Header=BB8_6 Depth=1
	movq	membership_new@GOTPCREL(%rip), %rax
	movq	(%rax), %rax
	movslq	-28(%rbp), %rcx
	movl	$-1, (%rax,%rcx,4)
# %bb.8:                                #   in Loop: Header=BB8_6 Depth=1
	movl	-28(%rbp), %eax
	addl	$1, %eax
	movl	%eax, -28(%rbp)
	jmp	.LBB8_6
.LBB8_9:
	movl	-12(%rbp), %eax
	imull	-8(%rbp), %eax
	movslq	%eax, %rdi
	shlq	$2, %rdi
	callq	malloc@PLT
	movq	%rax, %rcx
	movq	block_new_centers@GOTPCREL(%rip), %rax
	movq	%rcx, (%rax)
	movl	-4(%rbp), %eax
	imull	-8(%rbp), %eax
	movslq	%eax, %rsi
	shlq	$2, %rsi
	movq	feature_flipped_d@GOTPCREL(%rip), %rdi
	callq	cudaMalloc@PLT
	movq	feature_flipped_d@GOTPCREL(%rip), %rax
	movq	(%rax), %rdi
	movq	-24(%rbp), %rax
	movq	(%rax), %rsi
	movl	-4(%rbp), %eax
	imull	-8(%rbp), %eax
	movslq	%eax, %rdx
	shlq	$2, %rdx
	movl	$1, %ecx
	callq	cudaMemcpy@PLT
	movl	-4(%rbp), %eax
	imull	-8(%rbp), %eax
	movslq	%eax, %rsi
	shlq	$2, %rsi
	movq	feature_d@GOTPCREL(%rip), %rdi
	callq	cudaMalloc@PLT
	movq	num_blocks@GOTPCREL(%rip), %rax
	movl	(%rax), %esi
	leaq	-40(%rbp), %rdi
	movl	$1, %ecx
	movl	%ecx, %edx
	callq	_ZN4dim3C2Ejjj@PLT
	movq	num_threads@GOTPCREL(%rip), %rax
	movl	(%rax), %esi
	leaq	-56(%rbp), %rdi
	movl	$1, %ecx
	movl	%ecx, %edx
	callq	_ZN4dim3C2Ejjj@PLT
	movq	-40(%rbp), %rax
	movq	%rax, -72(%rbp)
	movl	-32(%rbp), %eax
	movl	%eax, -64(%rbp)
	movq	-72(%rbp), %rdi
	movl	-64(%rbp), %esi
	movq	-56(%rbp), %rax
	movq	%rax, -88(%rbp)
	movl	-48(%rbp), %eax
	movl	%eax, -80(%rbp)
	movq	-88(%rbp), %rdx
	movl	-80(%rbp), %ecx
	xorl	%eax, %eax
	movl	%eax, %r9d
	movq	%r9, %r8
	callq	__cudaPushCallConfiguration@PLT
	cmpl	$0, %eax
	jne	.LBB8_11
# %bb.10:
	movq	feature_flipped_d@GOTPCREL(%rip), %rax
	movq	(%rax), %rdi
	movq	feature_d@GOTPCREL(%rip), %rax
	movq	(%rax), %rsi
	movl	-4(%rbp), %edx
	movl	-8(%rbp), %ecx
	callq	_Z29__device_stub__invert_mappingPfS_ii@PLT
.LBB8_11:
	movslq	-4(%rbp), %rsi
	shlq	$2, %rsi
	movq	membership_d@GOTPCREL(%rip), %rdi
	callq	cudaMalloc@PLT
	movl	-12(%rbp), %eax
	imull	-8(%rbp), %eax
	movslq	%eax, %rsi
	shlq	$2, %rsi
	movq	clusters_d@GOTPCREL(%rip), %rdi
	callq	cudaMalloc@PLT
	addq	$96, %rsp
	popq	%rbp
	.cfi_def_cfa %rsp, 8
	retq
.Lfunc_end8:
	.size	allocateMemory, .Lfunc_end8-allocateMemory
	.cfi_endproc
                                        # -- End function
	.section	.text._ZN4dim3C2Ejjj,"axG",@progbits,_ZN4dim3C2Ejjj,comdat
	.weak	_ZN4dim3C2Ejjj                  # -- Begin function _ZN4dim3C2Ejjj
	.p2align	4, 0x90
	.type	_ZN4dim3C2Ejjj,@function
_ZN4dim3C2Ejjj:                         # @_ZN4dim3C2Ejjj
	.cfi_startproc
# %bb.0:
	pushq	%rbp
	.cfi_def_cfa_offset 16
	.cfi_offset %rbp, -16
	movq	%rsp, %rbp
	.cfi_def_cfa_register %rbp
	movq	%rdi, -8(%rbp)
	movl	%esi, -12(%rbp)
	movl	%edx, -16(%rbp)
	movl	%ecx, -20(%rbp)
	movq	-8(%rbp), %rax
	movl	-12(%rbp), %ecx
	movl	%ecx, (%rax)
	movl	-16(%rbp), %ecx
	movl	%ecx, 4(%rax)
	movl	-20(%rbp), %ecx
	movl	%ecx, 8(%rax)
	popq	%rbp
	.cfi_def_cfa %rsp, 8
	retq
.Lfunc_end9:
	.size	_ZN4dim3C2Ejjj, .Lfunc_end9-_ZN4dim3C2Ejjj
	.cfi_endproc
                                        # -- End function
	.text
	.globl	deallocateMemory                # -- Begin function deallocateMemory
	.p2align	4, 0x90
	.type	deallocateMemory,@function
deallocateMemory:                       # @deallocateMemory
	.cfi_startproc
# %bb.0:
	pushq	%rbp
	.cfi_def_cfa_offset 16
	.cfi_offset %rbp, -16
	movq	%rsp, %rbp
	.cfi_def_cfa_register %rbp
	movq	membership_new@GOTPCREL(%rip), %rax
	movq	(%rax), %rdi
	callq	free@PLT
	movq	block_new_centers@GOTPCREL(%rip), %rax
	movq	(%rax), %rdi
	callq	free@PLT
	movq	feature_d@GOTPCREL(%rip), %rax
	movq	(%rax), %rdi
	callq	cudaFree@PLT
	movq	feature_flipped_d@GOTPCREL(%rip), %rax
	movq	(%rax), %rdi
	callq	cudaFree@PLT
	movq	membership_d@GOTPCREL(%rip), %rax
	movq	(%rax), %rdi
	callq	cudaFree@PLT
	movq	clusters_d@GOTPCREL(%rip), %rax
	movq	(%rax), %rdi
	callq	cudaFree@PLT
	popq	%rbp
	.cfi_def_cfa %rsp, 8
	retq
.Lfunc_end10:
	.size	deallocateMemory, .Lfunc_end10-deallocateMemory
	.cfi_endproc
                                        # -- End function
	.globl	main                            # -- Begin function main
	.p2align	4, 0x90
	.type	main,@function
main:                                   # @main
	.cfi_startproc
# %bb.0:
	pushq	%rbp
	.cfi_def_cfa_offset 16
	.cfi_offset %rbp, -16
	movq	%rsp, %rbp
	.cfi_def_cfa_register %rbp
	subq	$16, %rsp
	movl	%edi, -4(%rbp)
	movq	%rsi, -16(%rbp)
	movl	$1, %edi
	callq	cudaSetDevice@PLT
	movl	-4(%rbp), %edi
	movq	-16(%rbp), %rsi
	callq	setup@PLT
	xorl	%eax, %eax
	addq	$16, %rsp
	popq	%rbp
	.cfi_def_cfa %rsp, 8
	retq
.Lfunc_end11:
	.size	main, .Lfunc_end11-main
	.cfi_endproc
                                        # -- End function
	.globl	kmeansCuda                      # -- Begin function kmeansCuda
	.p2align	4, 0x90
	.type	kmeansCuda,@function
kmeansCuda:                             # @kmeansCuda
	.cfi_startproc
# %bb.0:
	pushq	%rbp
	.cfi_def_cfa_offset 16
	.cfi_offset %rbp, -16
	movq	%rsp, %rbp
	.cfi_def_cfa_register %rbp
	subq	$240, %rsp
	movq	24(%rbp), %rax
	movq	16(%rbp), %rax
	movq	%rdi, -8(%rbp)
	movl	%esi, -12(%rbp)
	movl	%edx, -16(%rbp)
	movl	%ecx, -20(%rbp)
	movq	%r8, -32(%rbp)
	movq	%r9, -40(%rbp)
	movl	$0, -44(%rbp)
	movl	$1, %edi
	callq	cudaSetDevice@PLT
	movq	membership_d@GOTPCREL(%rip), %rax
	movq	(%rax), %rdi
	movq	membership_new@GOTPCREL(%rip), %rax
	movq	(%rax), %rsi
	movslq	-16(%rbp), %rdx
	shlq	$2, %rdx
	movl	$1, %ecx
	callq	cudaMemcpy@PLT
	movq	clusters_d@GOTPCREL(%rip), %rax
	movq	(%rax), %rdi
	movq	-40(%rbp), %rax
	movq	(%rax), %rsi
	movl	-20(%rbp), %eax
	imull	-12(%rbp), %eax
	movslq	%eax, %rdx
	shlq	$2, %rdx
	movl	$1, %ecx
	callq	cudaMemcpy@PLT
	leaq	-72(%rbp), %rdi
	callq	_Z21cudaCreateChannelDescIfE21cudaChannelFormatDescv@PLT
	movl	$0, t_features+4(%rip)
	movl	$0, t_features(%rip)
	movq	-72(%rbp), %rax
	movq	%rax, t_features+20(%rip)
	movq	-64(%rbp), %rax
	movq	%rax, t_features+28(%rip)
	movl	-56(%rbp), %eax
	movl	%eax, t_features+36(%rip)
	movq	feature_d@GOTPCREL(%rip), %rax
	movq	(%rax), %rdx
	movl	-16(%rbp), %eax
	imull	-12(%rbp), %eax
	movslq	%eax, %r8
	shlq	$2, %r8
	xorl	%eax, %eax
	movl	%eax, %edi
	leaq	t_features(%rip), %rsi
	leaq	-72(%rbp), %rcx
	callq	cudaBindTexture@PLT
	cmpl	$0, %eax
	je	.LBB12_2
# %bb.1:
	leaq	.L.str(%rip), %rdi
	movb	$0, %al
	callq	printf@PLT
.LBB12_2:
	leaq	-96(%rbp), %rdi
	callq	_Z21cudaCreateChannelDescIfE21cudaChannelFormatDescv@PLT
	movl	$0, t_features_flipped+4(%rip)
	movl	$0, t_features_flipped(%rip)
	movq	-96(%rbp), %rax
	movq	%rax, t_features_flipped+20(%rip)
	movq	-88(%rbp), %rax
	movq	%rax, t_features_flipped+28(%rip)
	movl	-80(%rbp), %eax
	movl	%eax, t_features_flipped+36(%rip)
	movq	feature_flipped_d@GOTPCREL(%rip), %rax
	movq	(%rax), %rdx
	movl	-16(%rbp), %eax
	imull	-12(%rbp), %eax
	movslq	%eax, %r8
	shlq	$2, %r8
	xorl	%eax, %eax
	movl	%eax, %edi
	leaq	t_features_flipped(%rip), %rsi
	leaq	-96(%rbp), %rcx
	callq	cudaBindTexture@PLT
	cmpl	$0, %eax
	je	.LBB12_4
# %bb.3:
	leaq	.L.str.5(%rip), %rdi
	movb	$0, %al
	callq	printf@PLT
.LBB12_4:
	leaq	-120(%rbp), %rdi
	callq	_Z21cudaCreateChannelDescIfE21cudaChannelFormatDescv@PLT
	movl	$0, t_clusters+4(%rip)
	movl	$0, t_clusters(%rip)
	movq	-120(%rbp), %rax
	movq	%rax, t_clusters+20(%rip)
	movq	-112(%rbp), %rax
	movq	%rax, t_clusters+28(%rip)
	movl	-104(%rbp), %eax
	movl	%eax, t_clusters+36(%rip)
	movq	clusters_d@GOTPCREL(%rip), %rax
	movq	(%rax), %rdx
	movl	-20(%rbp), %eax
	imull	-12(%rbp), %eax
	movslq	%eax, %r8
	shlq	$2, %r8
	xorl	%eax, %eax
	movl	%eax, %edi
	leaq	t_clusters(%rip), %rsi
	leaq	-120(%rbp), %rcx
	callq	cudaBindTexture@PLT
	cmpl	$0, %eax
	je	.LBB12_6
# %bb.5:
	leaq	.L.str.6(%rip), %rdi
	movb	$0, %al
	callq	printf@PLT
.LBB12_6:
	movq	-40(%rbp), %rax
	movq	(%rax), %rsi
	movl	-20(%rbp), %eax
	imull	-12(%rbp), %eax
	movslq	%eax, %rdx
	shlq	$2, %rdx
	leaq	.L.str.7(%rip), %rdi
	xorl	%eax, %eax
	movl	%eax, %ecx
	movl	$1, %r8d
	callq	_ZL18cudaMemcpyToSymbolIA11_cE9cudaErrorRKT_PKvmm14cudaMemcpyKind
	movq	num_blocks_perdim@GOTPCREL(%rip), %rax
	movl	(%rax), %esi
	movq	num_blocks_perdim@GOTPCREL(%rip), %rax
	movl	(%rax), %edx
	leaq	-136(%rbp), %rdi
	movl	$1, %ecx
	callq	_ZN4dim3C2Ejjj@PLT
	movq	num_threads_perdim@GOTPCREL(%rip), %rax
	movl	(%rax), %esi
	movq	num_threads_perdim@GOTPCREL(%rip), %rax
	imull	(%rax), %esi
	leaq	-152(%rbp), %rdi
	movl	$1, %ecx
	movl	%ecx, %edx
	callq	_ZN4dim3C2Ejjj@PLT
	movq	-136(%rbp), %rax
	movq	%rax, -168(%rbp)
	movl	-128(%rbp), %eax
	movl	%eax, -160(%rbp)
	movq	-152(%rbp), %rax
	movq	%rax, -184(%rbp)
	movl	-144(%rbp), %eax
	movl	%eax, -176(%rbp)
	movq	-168(%rbp), %rax
	movq	%rax, -200(%rbp)
	movl	-160(%rbp), %eax
	movl	%eax, -192(%rbp)
	movq	-200(%rbp), %rdi
	movl	-192(%rbp), %esi
	movq	-184(%rbp), %rax
	movq	%rax, -216(%rbp)
	movl	-176(%rbp), %eax
	movl	%eax, -208(%rbp)
	movq	-216(%rbp), %rdx
	movl	-208(%rbp), %ecx
	xorl	%eax, %eax
	movl	%eax, %r9d
	movq	%r9, %r8
	callq	__cudaPushCallConfiguration@PLT
	cmpl	$0, %eax
	jne	.LBB12_8
# %bb.7:
	movq	feature_d@GOTPCREL(%rip), %rax
	movq	(%rax), %rdi
	movl	-12(%rbp), %esi
	movl	-16(%rbp), %edx
	movl	-20(%rbp), %ecx
	movq	membership_d@GOTPCREL(%rip), %rax
	movq	(%rax), %r8
	movq	clusters_d@GOTPCREL(%rip), %rax
	movq	(%rax), %r9
	movq	block_clusters_d@GOTPCREL(%rip), %rax
	movq	(%rax), %r10
	movq	block_deltas_d@GOTPCREL(%rip), %rax
	movq	(%rax), %rax
	movq	%r10, (%rsp)
	movq	%rax, 8(%rsp)
	callq	_Z26__device_stub__kmeansPointPfiiiPiS_S_S0_@PLT
.LBB12_8:
	callq	cudaThreadSynchronize@PLT
	movq	membership_new@GOTPCREL(%rip), %rax
	movq	(%rax), %rdi
	movq	membership_d@GOTPCREL(%rip), %rax
	movq	(%rax), %rsi
	movslq	-16(%rbp), %rdx
	shlq	$2, %rdx
	movl	$2, %ecx
	callq	cudaMemcpy@PLT
	movl	$0, -44(%rbp)
	movl	$0, -48(%rbp)
.LBB12_9:                               # =>This Loop Header: Depth=1
                                        #     Child Loop BB12_13 Depth 2
	movl	-48(%rbp), %eax
	cmpl	-16(%rbp), %eax
	jge	.LBB12_18
# %bb.10:                               #   in Loop: Header=BB12_9 Depth=1
	movq	membership_new@GOTPCREL(%rip), %rax
	movq	(%rax), %rax
	movslq	-48(%rbp), %rcx
	movl	(%rax,%rcx,4), %eax
	movl	%eax, -220(%rbp)
	movq	16(%rbp), %rax
	movslq	-220(%rbp), %rcx
	movl	(%rax,%rcx,4), %edx
	addl	$1, %edx
	movl	%edx, (%rax,%rcx,4)
	movq	membership_new@GOTPCREL(%rip), %rax
	movq	(%rax), %rax
	movslq	-48(%rbp), %rcx
	movl	(%rax,%rcx,4), %eax
	movq	-32(%rbp), %rcx
	movslq	-48(%rbp), %rdx
	cmpl	(%rcx,%rdx,4), %eax
	je	.LBB12_12
# %bb.11:                               #   in Loop: Header=BB12_9 Depth=1
	movl	-44(%rbp), %eax
	addl	$1, %eax
	movl	%eax, -44(%rbp)
	movq	membership_new@GOTPCREL(%rip), %rax
	movq	(%rax), %rax
	movslq	-48(%rbp), %rcx
	movl	(%rax,%rcx,4), %edx
	movq	-32(%rbp), %rax
	movslq	-48(%rbp), %rcx
	movl	%edx, (%rax,%rcx,4)
.LBB12_12:                              #   in Loop: Header=BB12_9 Depth=1
	movl	$0, -52(%rbp)
.LBB12_13:                              #   Parent Loop BB12_9 Depth=1
                                        # =>  This Inner Loop Header: Depth=2
	movl	-52(%rbp), %eax
	cmpl	-12(%rbp), %eax
	jge	.LBB12_16
# %bb.14:                               #   in Loop: Header=BB12_13 Depth=2
	movq	-8(%rbp), %rax
	movslq	-48(%rbp), %rcx
	movq	(%rax,%rcx,8), %rax
	movslq	-52(%rbp), %rcx
	movss	(%rax,%rcx,4), %xmm0            # xmm0 = mem[0],zero,zero,zero
	movq	24(%rbp), %rax
	movslq	-220(%rbp), %rcx
	movq	(%rax,%rcx,8), %rax
	movslq	-52(%rbp), %rcx
	addss	(%rax,%rcx,4), %xmm0
	movss	%xmm0, (%rax,%rcx,4)
# %bb.15:                               #   in Loop: Header=BB12_13 Depth=2
	movl	-52(%rbp), %eax
	addl	$1, %eax
	movl	%eax, -52(%rbp)
	jmp	.LBB12_13
.LBB12_16:                              #   in Loop: Header=BB12_9 Depth=1
	jmp	.LBB12_17
.LBB12_17:                              #   in Loop: Header=BB12_9 Depth=1
	movl	-48(%rbp), %eax
	addl	$1, %eax
	movl	%eax, -48(%rbp)
	jmp	.LBB12_9
.LBB12_18:
	movl	-44(%rbp), %eax
	addq	$240, %rsp
	popq	%rbp
	.cfi_def_cfa %rsp, 8
	retq
.Lfunc_end12:
	.size	kmeansCuda, .Lfunc_end12-kmeansCuda
	.cfi_endproc
                                        # -- End function
	.section	.text._Z21cudaCreateChannelDescIfE21cudaChannelFormatDescv,"axG",@progbits,_Z21cudaCreateChannelDescIfE21cudaChannelFormatDescv,comdat
	.weak	_Z21cudaCreateChannelDescIfE21cudaChannelFormatDescv # -- Begin function _Z21cudaCreateChannelDescIfE21cudaChannelFormatDescv
	.p2align	4, 0x90
	.type	_Z21cudaCreateChannelDescIfE21cudaChannelFormatDescv,@function
_Z21cudaCreateChannelDescIfE21cudaChannelFormatDescv: # @_Z21cudaCreateChannelDescIfE21cudaChannelFormatDescv
	.cfi_startproc
# %bb.0:
	pushq	%rbp
	.cfi_def_cfa_offset 16
	.cfi_offset %rbp, -16
	movq	%rsp, %rbp
	.cfi_def_cfa_register %rbp
	subq	$16, %rsp
	movq	%rdi, %rax
	movq	%rax, -16(%rbp)                 # 8-byte Spill
	movl	$32, -4(%rbp)
	movl	-4(%rbp), %esi
	xorl	%r8d, %r8d
	movl	$2, %r9d
	movl	%r8d, %edx
	movl	%r8d, %ecx
	callq	cudaCreateChannelDesc@PLT
	movq	-16(%rbp), %rax                 # 8-byte Reload
	addq	$16, %rsp
	popq	%rbp
	.cfi_def_cfa %rsp, 8
	retq
.Lfunc_end13:
	.size	_Z21cudaCreateChannelDescIfE21cudaChannelFormatDescv, .Lfunc_end13-_Z21cudaCreateChannelDescIfE21cudaChannelFormatDescv
	.cfi_endproc
                                        # -- End function
	.text
	.p2align	4, 0x90                         # -- Begin function _ZL18cudaMemcpyToSymbolIA11_cE9cudaErrorRKT_PKvmm14cudaMemcpyKind
	.type	_ZL18cudaMemcpyToSymbolIA11_cE9cudaErrorRKT_PKvmm14cudaMemcpyKind,@function
_ZL18cudaMemcpyToSymbolIA11_cE9cudaErrorRKT_PKvmm14cudaMemcpyKind: # @_ZL18cudaMemcpyToSymbolIA11_cE9cudaErrorRKT_PKvmm14cudaMemcpyKind
	.cfi_startproc
# %bb.0:
	pushq	%rbp
	.cfi_def_cfa_offset 16
	.cfi_offset %rbp, -16
	movq	%rsp, %rbp
	.cfi_def_cfa_register %rbp
	subq	$48, %rsp
	movq	%rdi, -8(%rbp)
	movq	%rsi, -16(%rbp)
	movq	%rdx, -24(%rbp)
	movq	%rcx, -32(%rbp)
	movl	%r8d, -36(%rbp)
	movq	-8(%rbp), %rdi
	movq	-16(%rbp), %rsi
	movq	-24(%rbp), %rdx
	movq	-32(%rbp), %rcx
	movl	-36(%rbp), %r8d
	callq	cudaMemcpyToSymbol@PLT
	addq	$48, %rsp
	popq	%rbp
	.cfi_def_cfa %rsp, 8
	retq
.Lfunc_end14:
	.size	_ZL18cudaMemcpyToSymbolIA11_cE9cudaErrorRKT_PKvmm14cudaMemcpyKind, .Lfunc_end14-_ZL18cudaMemcpyToSymbolIA11_cE9cudaErrorRKT_PKvmm14cudaMemcpyKind
	.cfi_endproc
                                        # -- End function
	.section	.text.startup,"ax",@progbits
	.p2align	4, 0x90                         # -- Begin function _GLOBAL__sub_I_kmeans_cuda.cu
	.type	_GLOBAL__sub_I_kmeans_cuda.cu,@function
_GLOBAL__sub_I_kmeans_cuda.cu:          # @_GLOBAL__sub_I_kmeans_cuda.cu
	.cfi_startproc
# %bb.0:
	pushq	%rbp
	.cfi_def_cfa_offset 16
	.cfi_offset %rbp, -16
	movq	%rsp, %rbp
	.cfi_def_cfa_register %rbp
	callq	__cxx_global_var_init
	callq	__cxx_global_var_init.1
	callq	__cxx_global_var_init.2
	callq	__cxx_global_var_init.3
	callq	__cxx_global_var_init.4
	popq	%rbp
	.cfi_def_cfa %rsp, 8
	retq
.Lfunc_end15:
	.size	_GLOBAL__sub_I_kmeans_cuda.cu, .Lfunc_end15-_GLOBAL__sub_I_kmeans_cuda.cu
	.cfi_endproc
                                        # -- End function
	.text
	.p2align	4, 0x90                         # -- Begin function __cuda_register_globals
	.type	__cuda_register_globals,@function
__cuda_register_globals:                # @__cuda_register_globals
	.cfi_startproc
# %bb.0:
	subq	$40, %rsp
	.cfi_def_cfa_offset 48
	movq	%rdi, 32(%rsp)                  # 8-byte Spill
	movq	_Z29__device_stub__invert_mappingPfS_ii@GOTPCREL(%rip), %rsi
	leaq	.L__unnamed_1(%rip), %rcx
	movl	$4294967295, %r8d               # imm = 0xFFFFFFFF
	xorl	%eax, %eax
	movl	%eax, %r9d
	movq	%rcx, %rdx
	movq	$0, (%rsp)
	movq	$0, 8(%rsp)
	movq	$0, 16(%rsp)
	movq	$0, 24(%rsp)
	callq	__cudaRegisterFunction@PLT
	movq	32(%rsp), %rdi                  # 8-byte Reload
	movq	_Z26__device_stub__kmeansPointPfiiiPiS_S_S0_@GOTPCREL(%rip), %rsi
	leaq	.L__unnamed_2(%rip), %rcx
	movl	$4294967295, %r8d               # imm = 0xFFFFFFFF
	xorl	%eax, %eax
	movl	%eax, %r9d
	movq	%rcx, %rdx
	movq	$0, (%rsp)
	movq	$0, 8(%rsp)
	movq	$0, 16(%rsp)
	movq	$0, 24(%rsp)
	callq	__cudaRegisterFunction@PLT
	movq	32(%rsp), %rdi                  # 8-byte Reload
	leaq	t_features(%rip), %rsi
	leaq	.L__unnamed_3(%rip), %rcx
	movl	$1, %r8d
	xorl	%r9d, %r9d
	movq	%rcx, %rdx
	movl	$0, (%rsp)
	callq	__cudaRegisterTexture@PLT
	movq	32(%rsp), %rdi                  # 8-byte Reload
	leaq	t_features_flipped(%rip), %rsi
	leaq	.L__unnamed_4(%rip), %rcx
	movl	$1, %r8d
	xorl	%r9d, %r9d
	movq	%rcx, %rdx
	movl	$0, (%rsp)
	callq	__cudaRegisterTexture@PLT
	movq	32(%rsp), %rdi                  # 8-byte Reload
	leaq	t_clusters(%rip), %rsi
	leaq	.L__unnamed_5(%rip), %rcx
	movl	$1, %r8d
	xorl	%r9d, %r9d
	movq	%rcx, %rdx
	movl	$0, (%rsp)
	callq	__cudaRegisterTexture@PLT
	movq	32(%rsp), %rdi                  # 8-byte Reload
	leaq	c_clusters(%rip), %rsi
	leaq	.L.str.7(%rip), %rcx
	xorl	%r8d, %r8d
	movl	$4352, %r9d                     # imm = 0x1100
	movq	%rcx, %rdx
	movl	$1, (%rsp)
	movl	$0, 8(%rsp)
	callq	__cudaRegisterVar@PLT
	addq	$40, %rsp
	.cfi_def_cfa_offset 8
	retq
.Lfunc_end16:
	.size	__cuda_register_globals, .Lfunc_end16-__cuda_register_globals
	.cfi_endproc
                                        # -- End function
	.p2align	4, 0x90                         # -- Begin function __cuda_module_ctor
	.type	__cuda_module_ctor,@function
__cuda_module_ctor:                     # @__cuda_module_ctor
	.cfi_startproc
# %bb.0:
	pushq	%rax
	.cfi_def_cfa_offset 16
	leaq	__cuda_fatbin_wrapper(%rip), %rdi
	callq	__cudaRegisterFatBinary@PLT
	movq	%rax, %rdi
	movq	%rdi, (%rsp)                    # 8-byte Spill
	movq	%rdi, __cuda_gpubin_handle(%rip)
	callq	__cuda_register_globals
	movq	(%rsp), %rdi                    # 8-byte Reload
	callq	__cudaRegisterFatBinaryEnd@PLT
	leaq	__cuda_module_dtor(%rip), %rdi
	callq	atexit@PLT
	popq	%rax
	.cfi_def_cfa_offset 8
	retq
.Lfunc_end17:
	.size	__cuda_module_ctor, .Lfunc_end17-__cuda_module_ctor
	.cfi_endproc
                                        # -- End function
	.p2align	4, 0x90                         # -- Begin function __cuda_module_dtor
	.type	__cuda_module_dtor,@function
__cuda_module_dtor:                     # @__cuda_module_dtor
	.cfi_startproc
# %bb.0:
	pushq	%rax
	.cfi_def_cfa_offset 16
	movq	__cuda_gpubin_handle(%rip), %rdi
	callq	__cudaUnregisterFatBinary@PLT
	popq	%rax
	.cfi_def_cfa_offset 8
	retq
.Lfunc_end18:
	.size	__cuda_module_dtor, .Lfunc_end18-__cuda_module_dtor
	.cfi_endproc
                                        # -- End function
	.type	t_features,@object              # @t_features
	.local	t_features
	.comm	t_features,124,4
	.type	t_features_flipped,@object      # @t_features_flipped
	.local	t_features_flipped
	.comm	t_features_flipped,124,4
	.type	t_clusters,@object              # @t_clusters
	.local	t_clusters
	.comm	t_clusters,124,4
	.type	c_clusters,@object              # @c_clusters
	.local	c_clusters
	.comm	c_clusters,4352,16
	.type	num_threads_perdim,@object      # @num_threads_perdim
	.data
	.globl	num_threads_perdim
	.p2align	2, 0x0
num_threads_perdim:
	.long	16                              # 0x10
	.size	num_threads_perdim, 4

	.type	num_blocks_perdim,@object       # @num_blocks_perdim
	.globl	num_blocks_perdim
	.p2align	2, 0x0
num_blocks_perdim:
	.long	16                              # 0x10
	.size	num_blocks_perdim, 4

	.type	num_threads,@object             # @num_threads
	.bss
	.globl	num_threads
	.p2align	2, 0x0
num_threads:
	.long	0                               # 0x0
	.size	num_threads, 4

	.type	num_blocks,@object              # @num_blocks
	.globl	num_blocks
	.p2align	2, 0x0
num_blocks:
	.long	0                               # 0x0
	.size	num_blocks, 4

	.type	membership_new,@object          # @membership_new
	.globl	membership_new
	.p2align	3, 0x0
membership_new:
	.quad	0
	.size	membership_new, 8

	.type	feature_d,@object               # @feature_d
	.globl	feature_d
	.p2align	3, 0x0
feature_d:
	.quad	0
	.size	feature_d, 8

	.type	feature_flipped_d,@object       # @feature_flipped_d
	.globl	feature_flipped_d
	.p2align	3, 0x0
feature_flipped_d:
	.quad	0
	.size	feature_flipped_d, 8

	.type	membership_d,@object            # @membership_d
	.globl	membership_d
	.p2align	3, 0x0
membership_d:
	.quad	0
	.size	membership_d, 8

	.type	block_new_centers,@object       # @block_new_centers
	.globl	block_new_centers
	.p2align	3, 0x0
block_new_centers:
	.quad	0
	.size	block_new_centers, 8

	.type	clusters_d,@object              # @clusters_d
	.globl	clusters_d
	.p2align	3, 0x0
clusters_d:
	.quad	0
	.size	clusters_d, 8

	.type	block_clusters_d,@object        # @block_clusters_d
	.globl	block_clusters_d
	.p2align	3, 0x0
block_clusters_d:
	.quad	0
	.size	block_clusters_d, 8

	.type	block_deltas_d,@object          # @block_deltas_d
	.globl	block_deltas_d
	.p2align	3, 0x0
block_deltas_d:
	.quad	0
	.size	block_deltas_d, 8

	.type	.L.str,@object                  # @.str
	.section	.rodata.str1.1,"aMS",@progbits,1
.L.str:
	.asciz	"Couldn't bind features array to texture!\n"
	.size	.L.str, 42

	.type	.L.str.5,@object                # @.str.5
.L.str.5:
	.asciz	"Couldn't bind features_flipped array to texture!\n"
	.size	.L.str.5, 50

	.type	.L.str.6,@object                # @.str.6
.L.str.6:
	.asciz	"Couldn't bind clusters array to texture!\n"
	.size	.L.str.6, 42

	.type	.L.str.7,@object                # @.str.7
.L.str.7:
	.asciz	"c_clusters"
	.size	.L.str.7, 11

	.type	.L__unnamed_1,@object           # @0
.L__unnamed_1:
	.asciz	"_Z14invert_mappingPfS_ii"
	.size	.L__unnamed_1, 25

	.type	.L__unnamed_2,@object           # @1
.L__unnamed_2:
	.asciz	"_Z11kmeansPointPfiiiPiS_S_S0_"
	.size	.L__unnamed_2, 30

	.type	.L__unnamed_3,@object           # @2
.L__unnamed_3:
	.asciz	"t_features"
	.size	.L__unnamed_3, 11

	.type	.L__unnamed_4,@object           # @3
.L__unnamed_4:
	.asciz	"t_features_flipped"
	.size	.L__unnamed_4, 19

	.type	.L__unnamed_5,@object           # @4
.L__unnamed_5:
	.asciz	"t_clusters"
	.size	.L__unnamed_5, 11

	.type	.L__unnamed_6,@object           # @5
	.section	.nv_fatbin,"a",@progbits
	.p2align	3, 0x0
.L__unnamed_6:
	.asciz	"P\355U\272\001\000\020\000\350c\000\000\000\000\000\000\002\000\001\001@\000\000\000@T\000\000\000\000\000\000\000\000\000\000\000\000\000\000\007\000\001\000#\000\000\000\000\000\000\000\000\000\000\000\021\000\000\000\000\000\000\000\000\000\000\000\000\000\000\000\000\000\000\000\000\000\000\000\177ELF\002\001\0013\007\000\000\000\000\000\000\000\002\000\276\000s\000\000\000\000\000\000\000\000\000\000\000\000\000\000\000\000\000\000\000\200P\000\000\000\000\000\000#\005#\000@\000\000\000\000\000@\000\017\000\001\000\000.shstrtab\000.strtab\000.symtab\000.symtab_shndx\000.nv.info\000.text._Z11kmeansPointPfiiiPiS_S_S0_\000.nv.info._Z11kmeansPointPfiiiPiS_S_S0_\000.nv.shared._Z11kmeansPointPfiiiPiS_S_S0_\000.nv.constant3\000.nv.global\000.nv.constant0._Z11kmeansPointPfiiiPiS_S_S0_\000.text._Z14invert_mappingPfS_ii\000.nv.info._Z14invert_mappingPfS_ii\000.nv.shared._Z14invert_mappingPfS_ii\000.nv.constant0._Z14invert_mappingPfS_ii\000.rel.nv.constant0._Z11kmeansPointPfiiiPiS_S_S0_\000.nv.rel.action\000\000.shstrtab\000.strtab\000.symtab\000.symtab_shndx\000.nv.info\000_Z11kmeansPointPfiiiPiS_S_S0_\000.text._Z11kmeansPointPfiiiPiS_S_S0_\000.nv.info._Z11kmeansPointPfiiiPiS_S_S0_\000.nv.shared._Z11kmeansPointPfiiiPiS_S_S0_\000t_features\000t_features_flipped\000t_clusters\000.nv.constant3\000c_clusters\000.nv.global\000threadIdx\000blockDim\000blockIdx\000gridDim\000$_Z11kmeansPointPfiiiPiS_S_S0_$_ZN12_GLOBAL__N_110__cuda_tex11__tex_fetchINS0_5__TagILi95EEEf7textureIfLi1EL19cudaTextureReadMode0EEJiEEEvPT0_T1_DpT2_\000$_Z11kmeansPointPfiiiPiS_S_S0_$_ZN12_GLOBAL__N_110__cuda_tex14__tex_fetch_v4INS0_5__TagILi95EEEE5__runI6float4EET_yi\000$_Z11kmeansPointPfiiiPiS_S_S0_$_ZN12_GLOBAL__N_110__cuda_tex19__tex_handle_to_objI7textureIfLi1EL19cudaTextureReadMode0EEEEyT_\000$_Z11kmeansPointPfiiiPiS_S_S0_$_ZN12_GLOBAL__N_110__cuda_tex9__convertIf6float4E5__runILi1EEEfS2_\000.nv.constant0._Z11kmeansPointPfiiiPiS_S_S0_\000_param\000$BINDLESS$_Z11kmeansPointPfiiiPiS_S_S0_$t_features\000_Z14invert_mappingPfS_ii\000.text._Z14invert_mappingPfS_ii\000.nv.info._Z14invert_mappingPfS_ii\000.nv.shared._Z14invert_mappingPfS_ii\000.nv.constant0._Z14invert_mappingPfS_ii\000.rel.nv.constant0._Z11kmeansPointPfiiiPiS_S_S0_\000.nv.rel.action\000\000\000\000\000\000\000\000\000\000\000\000\000\000\000\000\000\000\000\000\000\000\000\000\000\000\000\000\000\000\000P\000\000\000\003\000\f\000\000\000\000\000\000\000\000\000\000\000\000\000\000\000\000\000\355\000\000\000\003\000\t\000\000\000\000\000\000\000\000\000\000\000\000\000\000\000\000\000\006\001\000\000\003\000\016\000\000\000\000\000\000\000\000\000\000\000\000\000\000\000\000\000\021\001\000\000\001\000\016\000\001\000\000\000\000\000\000\000\001\000\000\000\000\000\000\000\033\001\000\000\001\000\016\000\003\000\000\000\000\000\000\000\001\000\000\000\000\000\000\000$\001\000\000\001\000\016\000\000\000\000\000\000\000\000\000\001\000\000\000\000\000\000\000-\001\000\000\001\000\016\000\002\000\000\000\000\000\000\000\001\000\000\000\000\000\000\0005\001\000\000\002\000\f\000\220\031\000\000\000\000\000\000P\007\000\000\000\000\000\000\314\001\000\000\002\000\f\000\340 \000\000\000\000\000\000H\004\000\000\000\000\000\000A\002\000\000\002\000\f\000(%\000\000\000\000\000\000\320\002\000\000\000\000\000\000\300\002\000\000\002\000\f\000\370'\000\000\000\000\000\000H\000\000\000\000\000\000\000\"\003\000\000\003\000\n\000\000\000\000\000\000\000\000\000\000\000\000\000\000\000\000\000\241\003\000\000\003\000\r\000\000\000\000\000\000\000\000\000\000\000\000\000\000\000\000\000\006\004\000\000\003\000\013\000\000\000\000\000\000\000\000\000\000\000\000\000\000\000\000\000]\004\000\000\003\000\007\000\000\000\000\000\000\000\000\000\000\000\000\000\000\000\000\0002\000\000\000\022\020\f\000\000\000\000\000\000\000\000\000@(\000\000\000\000\000\000\304\000\000\000\032\000\000\000\000\000\000\000\000\000\000\000\000\000\000\000\000\000\000\000\317\000\000\000\032\000\000\000\000\000\000\000\000\000\000\000\000\000\000\000\000\000\000\000\342\000\000\000\032\000\000\000\000\000\000\000\000\000\000\000\000\000\000\000\000\000\000\000\373\000\000\000\021\000\t\000\000\000\000\000\000\000\000\000\000\021\000\000\000\000\000\000\210\003\000\000\022\020\r\000\000\000\000\000\000\000\000\000\300\b\000\000\000\000\000\000\004/\b\000\025\000\000\000\f\000\000\000\004#\b\000\025\000\000\000\000\000\000\000\004\022\b\000\025\000\000\000 \000\000\000\004\021\b\000\025\000\000\000 \000\000\000\004/\b\000\020\000\000\000\023\000\000\000\004#\b\000\013\000\000\000\000\000\000\000\004\022\b\000\013\000\000\000\000\000\000\000\004\021\b\000\013\000\000\000\000\000\000\000\004#\b\000\n\000\000\000\000\000\000\000\004\022\b\000\n\000\000\000\000\000\000\000\004\021\b\000\n\000\000\000\000\000\000\000\004#\b\000\t\000\000\000\000\000\000\000\004\022\b\000\t\000\000\000\000\000\000\000\004\021\b\000\t\000\000\000\000\000\000\000\004#\b\000\b\000\000\000\000\000\000\000\004\022\b\000\b\000\000\000\000\000\000\000\004\021\b\000\b\000\000\000\000\000\000\000\004#\b\000\020\000\000\000\000\000\000\000\004\022\b\000\020\000\000\000\360\000\000\000\004\021\b\000\020\000\000\000\360\000\000\000\0047\004\000s\000\000\000\004\n\b\000\f\000\000\000@\0018\000\003\0318\000\004\027\f\000\000\000\000\000\007\0000\000\000\360!\000\004\027\f\000\000\000\000\000\006\000(\000\000\360!\000\004\027\f\000\000\000\000\000\005\000 \000\000\360!\000\004\027\f\000\000\000\000\000\004\000\030\000\000\360!\000\004\027\f\000\000\000\000\000\003\000\020\000\000\360\021\000\004\027\f\000\000\000\000\000\002\000\f\000\000\360\021\000\004\027\f\000\000\000\000\000\001\000\b\000\000\360\021\000\004\027\f\000\000\000\000\000\000\000\000\000\000\360!\000\003\033\377\000\002\025\000\000\0041\f\000\330\"\000\000\360\"\000\000\020#\000\000\004\035\b\0008\005\000\000X\005\000\000\004\034\004\000\210\031\000\000\004\036\004\000@\002\000\000\0047\004\000s\000\000\000\004\n\b\000\016\000\000\000@\001\030\000\003\031\030\000\004\027\f\000\000\000\000\000\003\000\024\000\000\360\021\000\004\027\f\000\000\000\000\000\002\000\020\000\000\360\021\000\004\027\f\000\000\000\000\000\001\000\b\000\000\360!\000\004\027\f\000\000\000\000\000\000\000\000\000\000\360!\000\003\033\377\000\004\035\004\000\330\002\000\000\004\034\004\000\220\b\000\000\004\036\004\000 \002\000\000K\000\000\000\000\000\000\000\000\002\002\b\020\n/\"\000\000\000\b\000\000\000\000\000\000\b\b\000\000\000\000\000\000\020\b\000\000\000\000\000\000\030\b\000\000\000\000\000\000 \b\000\000\000\000\000\000(\b\000\000\000\000\000\0000\b\000\000\000\000\000\0008\b\000\000\000\000\001\000\000\b\000\000\000\000\001\000\b\b\000\000\000\000\001\000\020\b\000\000\000\000\001\000\030\b\000\000\000\000\001\000 \b\000\000\000\000\001\000(\b\000\000\000\000\001\0000\b\000\000\000\000\001\0008\b\000\000\000\000\002\000\000\b\000\000\000\000\002\000\b\b\000\000\000\000\002\000\020\b\000\000\000\000\002\000\030\b\000\000\000\000\002\000 \b\000\000\000\000\002\000(\b\000\000\000\000\002\0000\b\000\000\000\000\002\0008\b\000\000\000\000\000\000\000\024,\000\000\000x\001\000\000\000\000\000\000\006\000\000\000\021\000\000\000\000\000\000\000\000\000\000\000\000\000\000\000\000\000\000\000\000\000\000\000\000\000\000\000\000\000\000\000\000\000\000\000\000\000\000\000\000\000\000\000\000\000\000\000\000\000\000\000\000\000\000\000\000\000\000\000\000\000\000\000\000\000\000\000\000\000\000\000\000\000\000\000\000\000\000\000\000\000\000\000\000\000\000\000\000\000\000\000\000\000\000\000\000\000\000\000\000\000\000\000\000\000\000\000\000\000\000\000\000\000\000\000\000\000\000\000\000\000\000\000\000\000\000\000\000\000\000\000\000\000\000\000\000\000\000\000\000\000\000\000\000\000\000\000\000\000\000\000\000\000\000\000\000\000\000\000\000\000\000\000\000\000\000\000\000\000\000\000\000\000\000\000\000\000\000\000\000\000\000\000\000\000\000\000\000\000\000\000\000\000\000\000\000\000\000\000\000\000\000\000\000\000\000\000\000\000\000\000\000\000\000\000\000\000\000\000\000\000\000\000\000\000\000\000\000\000\000\000\000\000\000\000\000\000\000\000\000\000\000\000\000\000\000\000\000\000\000\000\000\000\000\000\000\000\000\000\000\000\000\000\000\000\000\000\000\000\000\000\000\000\000\000\000\000\000\000\000\000\000\000\000\000\000\000\000\000\000\000\000\000\000\000\000\000\000\000\000\000\000\000\000\000\000\000\000\000\000\000\000\000\000\000\000\000\000\000\000\000\000\000\000\000\000\000\000\000\000\000\000\000\000\000\000\000\000\000\000\000\000\000\000\000\000\000\000\000\000\000\000\000\000\000\000\000\000\000\000\000\000\000\000\000\000\000\000\000\000\000\000\000\000\000\000\000\000\000\000\000\000\000\000\000\000\000\000\000\000\000\000\000\000\000\000\000\000\000\000\000\000\000\000\000\000\000\000\000\000\000\000\000\000\000\000\000\000\000\000\000\000\000\000\000\000\000\000\000\000\000\000\000\000\000\000\000\000\000\000\000\000\000\000\000\000\000\000\000\000\000\000\000\000\000\000\000\000\000\000\000\000\000\000\000\000\000\000\000\000\000\000\000\000\000\000\000\000\000\000\000\000\000\000\000\000\000\000\000\000\000\000\000\000\000\000\000\000\000\000\000\000\000\000\000\000\000\000\000\000\000\000\000\000\000\000\000\000\000\000\000\000\000\000\000\000\000\000\000\000\000\000\000\000\000\000\000\000\000\000\000\000\000\000\000\000\000\000\000\000\000\000\000\000\000\000\000\000\000\000\000\000\000\000\000\000\000\000\000\000\000\000\000\000\000\000\000\000\000\000\000\000\000\000\000\000\000\000\000\000\000\000\000\000\000\000\000\000\000\000\000\000\000\000\000\000\000\000\000\000\000\000\000\000\000\000\000\000\000\000\000\000\000\000\000\000\000\000\000\000\000\000\000\000\000\000\000\000\000\000\000\000\000\000\000\000\000\000\000\000\000\000\000\000\000\000\000\000\000\000\000\000\000\000\000\000\000\000\000\000\000\000\000\000\000\000\000\000\000\000\000\000\000\000\000\000\000\000\000\000\000\000\000\000\000\000\000\000\000\000\000\000\000\000\000\000\000\000\000\000\000\000\000\000\000\000\000\000\000\000\000\000\000\000\000\000\000\000\000\000\000\000\000\000\000\000\000\000\000\000\000\000\000\000\000\000\000\000\000\000\000\000\000\000\000\000\000\000\000\000\000\000\000\000\000\000\000\000\000\000\000\000\000\000\000\000\000\000\000\000\000\000\000\000\000\000\000\000\000\000\000\000\000\000\000\000\000\000\000\000\000\000\000\000\000\000\000\000\000\000\000\000\000\000\000\000\000\000\000\000\000\000\000\000\000\000\000\000\000\000\000\000\000\000\000\000\000\000\000\000\000\000\000\000\000\000\000\000\000\000\000\000\000\000\000\000\000\000\000\000\000\000\000\000\000\000\000\000\000\000\000\000\000\000\000\000\000\000\000\000\000\000\000\000\000\000\000\000\000\000\000\000\000\000\000\000\000\000\000\000\000\000\000\000\000\000\000\000\000\000\000\000\000\000\000\000\000\000\000\000\000\000\000\000\000\000\000\000\000\000\000\000\000\000\000\000\000\000\000\000\000\000\000\000\000\000\000\000\000\000\000\000\000\000\000\000\000\000\000\000\000\000\000\000\000\000\000\000\000\000\000\000\000\000\000\000\000\000\000\000\000\000\000\000\000\000\000\000\000\000\000\000\000\000\000\000\000\000\000\000\000\000\000\000\000\000\000\000\000\000\000\000\000\000\000\000\000\000\000\000\000\000\000\000\000\000\000\000\000\000\000\000\000\000\000\000\000\000\000\000\000\000\000\000\000\000\000\000\000\000\000\000\000\000\000\000\000\000\000\000\000\000\000\000\000\000\000\000\000\000\000\000\000\000\000\000\000\000\000\000\000\000\000\000\000\000\000\000\000\000\000\000\000\000\000\000\000\000\000\000\000\000\000\000\000\000\000\000\000\000\000\000\000\000\000\000\000\000\000\000\000\000\000\000\000\000\000\000\000\000\000\000\000\000\000\000\000\000\000\000\000\000\000\000\000\000\000\000\000\000\000\000\000\000\000\000\000\000\000\000\000\000\000\000\000\000\000\000\000\000\000\000\000\000\000\000\000\000\000\000\000\000\000\000\000\000\000\000\000\000\000\000\000\000\000\000\000\000\000\000\000\000\000\000\000\000\000\000\000\000\000\000\000\000\000\000\000\000\000\000\000\000\000\000\000\000\000\000\000\000\000\000\000\000\000\000\000\000\000\000\000\000\000\000\000\000\000\000\000\000\000\000\000\000\000\000\000\000\000\000\000\000\000\000\000\000\000\000\000\000\000\000\000\000\000\000\000\000\000\000\000\000\000\000\000\000\000\000\000\000\000\000\000\000\000\000\000\000\000\000\000\000\000\000\000\000\000\000\000\000\000\000\000\000\000\000\000\000\000\000\000\000\000\000\000\000\000\000\000\000\000\000\000\000\000\000\000\000\000\000\000\000\000\000\000\000\000\000\000\000\000\000\000\000\000\000\000\000\000\000\000\000\000\000\000\000\000\000\000\000\000\000\000\000\000\000\000\000\000\000\000\000\000\000\000\000\000\000\000\000\000\000\000\000\000\000\000\000\000\000\000\000\000\000\000\000\000\000\000\000\000\000\000\000\000\000\000\000\000\000\000\000\000\000\000\000\000\000\000\000\000\000\000\000\000\000\000\000\000\000\000\000\000\000\000\000\000\000\000\000\000\000\000\000\000\000\000\000\000\000\000\000\000\000\000\000\000\000\000\000\000\000\000\000\000\000\000\000\000\000\000\000\000\000\000\000\000\000\000\000\000\000\000\000\000\000\000\000\000\000\000\000\000\000\000\000\000\000\000\000\000\000\000\000\000\000\000\000\000\000\000\000\000\000\000\000\000\000\000\000\000\000\000\000\000\000\000\000\000\000\000\000\000\000\000\000\000\000\000\000\000\000\000\000\000\000\000\000\000\000\000\000\000\000\000\000\000\000\000\000\000\000\000\000\000\000\000\000\000\000\000\000\000\000\000\000\000\000\000\000\000\000\000\000\000\000\000\000\000\000\000\000\000\000\000\000\000\000\000\000\000\000\000\000\000\000\000\000\000\000\000\000\000\000\000\000\000\000\000\000\000\000\000\000\000\000\000\000\000\000\000\000\000\000\000\000\000\000\000\000\000\000\000\000\000\000\000\000\000\000\000\000\000\000\000\000\000\000\000\000\000\000\000\000\000\000\000\000\000\000\000\000\000\000\000\000\000\000\000\000\000\000\000\000\000\000\000\000\000\000\000\000\000\000\000\000\000\000\000\000\000\000\000\000\000\000\000\000\000\000\000\000\000\000\000\000\000\000\000\000\000\000\000\000\000\000\000\000\000\000\000\000\000\000\000\000\000\000\000\000\000\000\000\000\000\000\000\000\000\000\000\000\000\000\000\000\000\000\000\000\000\000\000\000\000\000\000\000\000\000\000\000\000\000\000\000\000\000\000\000\000\000\000\000\000\000\000\000\000\000\000\000\000\000\000\000\000\000\000\000\000\000\000\000\000\000\000\000\000\000\000\000\000\000\000\000\000\000\000\000\000\000\000\000\000\000\000\000\000\000\000\000\000\000\000\000\000\000\000\000\000\000\000\000\000\000\000\000\000\000\000\000\000\000\000\000\000\000\000\000\000\000\000\000\000\000\000\000\000\000\000\000\000\000\000\000\000\000\000\000\000\000\000\000\000\000\000\000\000\000\000\000\000\000\000\000\000\000\000\000\000\000\000\000\000\000\000\000\000\000\000\000\000\000\000\000\000\000\000\000\000\000\000\000\000\000\000\000\000\000\000\000\000\000\000\000\000\000\000\000\000\000\000\000\000\000\000\000\000\000\000\000\000\000\000\000\000\000\000\000\000\000\000\000\000\000\000\000\000\000\000\000\000\000\000\000\000\000\000\000\000\000\000\000\000\000\000\000\000\000\000\000\000\000\000\000\000\000\000\000\000\000\000\000\000\000\000\000\000\000\000\000\000\000\000\000\000\000\000\000\000\000\000\000\000\000\000\000\000\000\000\000\000\000\000\000\000\000\000\000\000\000\000\000\000\000\000\000\000\000\000\000\000\000\000\000\000\000\000\000\000\000\000\000\000\000\000\000\000\000\000\000\000\000\000\000\000\000\000\000\000\000\000\000\000\000\000\000\000\000\000\000\000\000\000\000\000\000\000\000\000\000\000\000\000\000\000\000\000\000\000\000\000\000\000\000\000\000\000\000\000\000\000\000\000\000\000\000\000\000\000\000\000\000\000\000\000\000\000\000\000\000\000\000\000\000\000\000\000\000\000\000\000\000\000\000\000\000\000\000\000\000\000\000\000\000\000\000\000\000\000\000\000\000\000\000\000\000\000\000\000\000\000\000\000\000\000\000\000\000\000\000\000\000\000\000\000\000\000\000\000\000\000\000\000\000\000\000\000\000\000\000\000\000\000\000\000\000\000\000\000\000\000\000\000\000\000\000\000\000\000\000\000\000\000\000\000\000\000\000\000\000\000\000\000\000\000\000\000\000\000\000\000\000\000\000\000\000\000\000\000\000\000\000\000\000\000\000\000\000\000\000\000\000\000\000\000\000\000\000\000\000\000\000\000\000\000\000\000\000\000\000\000\000\000\000\000\000\000\000\000\000\000\000\000\000\000\000\000\000\000\000\000\000\000\000\000\000\000\000\000\000\000\000\000\000\000\000\000\000\000\000\000\000\000\000\000\000\000\000\000\000\000\000\000\000\000\000\000\000\000\000\000\000\000\000\000\000\000\000\000\000\000\000\000\000\000\000\000\000\000\000\000\000\000\000\000\000\000\000\000\000\000\000\000\000\000\000\000\000\000\000\000\000\000\000\000\000\000\000\000\000\000\000\000\000\000\000\000\000\000\000\000\000\000\000\000\000\000\000\000\000\000\000\000\000\000\000\000\000\000\000\000\000\000\000\000\000\000\000\000\000\000\000\000\000\000\000\000\000\000\000\000\000\000\000\000\000\000\000\000\000\000\000\000\000\000\000\000\000\000\000\000\000\000\000\000\000\000\000\000\000\000\000\000\000\000\000\000\000\000\000\000\000\000\000\000\000\000\000\000\000\000\000\000\000\000\000\000\000\000\000\000\000\000\000\000\000\000\000\000\000\000\000\000\000\000\000\000\000\000\000\000\000\000\000\000\000\000\000\000\000\000\000\000\000\000\000\000\000\000\000\000\000\000\000\000\000\000\000\000\000\000\000\000\000\000\000\000\000\000\000\000\000\000\000\000\000\000\000\000\000\000\000\000\000\000\000\000\000\000\000\000\000\000\000\000\000\000\000\000\000\000\000\000\000\000\000\000\000\000\000\000\000\000\000\000\000\000\000\000\000\000\000\000\000\000\000\000\000\000\000\000\000\000\000\000\000\000\000\000\000\000\000\000\000\000\000\000\000\000\000\000\000\000\000\000\000\000\000\000\000\000\000\000\000\000\000\000\000\000\000\000\000\000\000\000\000\000\000\000\000\000\000\000\000\000\000\000\000\000\000\000\000\000\000\000\000\000\000\000\000\000\000\000\000\000\000\000\000\000\000\000\000\000\000\000\000\000\000\000\000\000\000\000\000\000\000\000\000\000\000\000\000\000\000\000\000\000\000\000\000\000\000\000\000\000\000\000\000\000\000\000\000\000\000\000\000\000\000\000\000\000\000\000\000\000\000\000\000\000\000\000\000\000\000\000\000\000\000\000\000\000\000\000\000\000\000\000\000\000\000\000\000\000\000\000\000\000\000\000\000\000\000\000\000\000\000\000\000\000\000\000\000\000\000\000\000\000\000\000\000\000\000\000\000\000\000\000\000\000\000\000\000\000\000\000\000\000\000\000\000\000\000\000\000\000\000\000\000\000\000\000\000\000\000\000\000\000\000\000\000\000\000\000\000\000\000\000\000\000\000\000\000\000\000\000\000\000\000\000\000\000\000\000\000\000\000\000\000\000\000\000\000\000\000\000\000\000\000\000\000\000\000\000\000\000\000\000\000\000\000\000\000\000\000\000\000\000\000\000\000\000\000\000\000\000\000\000\000\000\000\000\000\000\000\000\000\000\000\000\000\000\000\000\000\000\000\000\000\000\000\000\000\000\000\000\000\000\000\000\000\000\000\000\000\000\000\000\000\000\000\000\000\000\000\000\000\000\000\000\000\000\000\000\000\000\000\000\000\000\000\000\000\000\000\000\000\000\000\000\000\000\000\000\000\000\000\000\000\000\000\000\000\000\000\000\000\000\000\000\000\000\000\000\000\000\000\000\000\000\000\000\000\000\000\000\000\000\000\000\000\000\000\000\000\000\000\000\000\000\000\000\000\000\000\000\000\000\000\000\000\000\000\000\000\000\000\000\000\000\000\000\000\000\000\000\000\000\000\000\000\000\000\000\000\000\000\000\000\000\000\000\000\000\000\000\000\000\000\000\000\000\000\000\000\000\000\000\000\000\000\000\000\000\000\000\000\000\000\000\000\000\000\000\000\000\000\000\000\000\000\000\000\000\000\000\000\000\000\000\000\000\000\000\000\000\000\000\000\000\000\000\000\000\000\000\000\000\000\000\000\000\000\000\000\000\000\000\000\000\000\000\000\000\000\000\000\000\000\000\000\000\000\000\000\000\000\000\000\000\000\000\000\000\000\000\000\000\000\000\000\000\000\000\000\000\000\000\000\000\000\000\000\000\000\000\000\000\000\000\000\000\000\000\000\000\000\000\000\000\000\000\000\000\000\000\000\000\000\000\000\000\000\000\000\000\000\000\000\000\000\000\000\000\000\000\000\000\000\000\000\000\000\000\000\000\000\000\000\000\000\000\000\000\000\000\000\000\000\000\000\000\000\000\000\000\000\000\000\000\000\000\000\000\000\000\000\000\000\000\000\000\000\000\000\000\000\000\000\000\000\000\000\000\000\000\000\000\000\000\000\000\000\000\000\000\000\000\000\000\000\000\000\000\000\000\000\000\000\000\000\000\000\000\000\000\000\000\000\000\000\000\000\000\000\000\000\000\000\000\000\000\000\000\000\000\000\000\000\000\000\000\000\000\000\000\000\000\000\000\000\000\000\000\000\000\000\000\000\000\000\000\000\000\000\000\000\000\000\000\000\000\000\000\000\000\000\000\000\000\000\000\000\000\000\000\000\000\000\000\000\000\000\000\000\000\000\000\000\000\000\000\000\000\000\000\000\000\000\000\000\000\000\000\000\000\000\000\000\000\000\000\000\000\000\000\000\000\000\000\000\000\000\000\000\000\000\000\000\000\000\000\000\000\000\000\000\000\000\000\000\000\000\000\000\000\000\000\000\000\000\000\000\000\000\000\000\000\000\000\000\000\000\000\000\000\000\000\000\000\000\000\000\000\000\000\000\000\000\000\000\000\000\000\000\000\000\000\000\000\000\000\000\000\000\000\000\000\000\000\000\000\000\000\000\000\000\000\000\000\000\000\000\000\000\000\000\000\000\000\000\000\000\000\000\000\000\000\000\000\000\000\000\000\000\000\000\000\000\000\000\000\000\000\000\000\000\000\000\000\000\000\000\000\000\000\000\000\000\000\000\000\000\000\000\000\000\000\000\000\000\000\000\000\000\000\000\000\000\000\000\000\000\000\000\000\000\000\000\000\000\000\000\000\000\000\000\000\000\000\000\000\000\000\000\000\000\000\000\000\000\000\000\000\000\000\000\000\000\000\000\000\000\000\000\000\000\000\000\000\000\000\000\000\000\000\000\000\000\000\000\000\000\000\000\000\000\000\000\000\000\000\000\000\000\000\000\000\000\000\000\000\000\000\000\000\000\000\000\000\000\000\000\000\000\000\000\000\000\000\000\000\000\000\000\000\000\000\000\000\000\000\000\000\000\000\000\000\000\000\000\000\000\000\000\000\000\000\000\000\000\000\000\000\000\000\000\000\000\000\000\000\000\000\000\000\000\000\000\000\000\000\000\000\000\000\000\000\000\000\000\000\000\000\000\000\000\000\000\000\000\000\000\000\000\000\000\000\000\000\000\000\000\000\000\000\000\000\000\000\000\000\000\000\000\000\000\000\000\000\000\000\000\000\000\000\000\000\000\000\000\000\000\000\000\000\000\000\000\000\000\000\000\000\000\000\000\000\000\000\000\000\000\000\000\000\000\000\000\000\000\000\000\000\000\000\000\000\000\000\000\000\000\000\000\000\000\000\000\000\000\000\000\000\000\000\000\000\000\000\000\000\000\000\000\000\000\000\000\000\000\000\000\000\000\000\000\000\000\000\000\000\000\000\000\000\000\000\000\000\000\000\000\000\000\000\000\000\000\000\000\000\000\000\000\000\000\000\000\000\000\000\000\000\000\000\000\000\000\000\000\000\000\000\000\000\000\000\000\000\000\000\000\000\000\000\000\000\000\000\000\000\000\000\000\000\000\000\000\000\000\000\000\000\000\000\000\000\000\000\000\000\000\000\000\000\000\000\000\000\000\000\000\000\000\000\000\000\000\000\000\000\000\000\000\000\000\000\000\000\000\000\000\000\000\000\000\000\000\000\000\000\000\000\000\000\000\000\000\000\000\000\000\000\000\000\000\000\000\000\000\000\000\000\000\000\000\000\000\000\000\000\000\000\000\000\000\000\000\000\000\000\000\000\000\000\000\000\000\000\000\000\000\000\000\000\000\000\000\000\000\000\000\000\000\000\000\000\000\000\000\000\000\000\000\000\000\000\000\000\000\000\000\000\000\000\000\000\000\000\000\000\000\000\000\000\000\000\000\000\000\000\000\000\000\000\000\000\000\000\000\000\000\000\000\000\000\000\000\000\000\000\000\000\000\000\000\000\000\000\000\000\000\000\000\000\000\000\000\000\000\000\000\000\000\000\000\000\000\000\000\000\000\000\000\000\000\000\000\000\000\000\000\000\000\000\000\000\000\000\000\000\000\000\000\000\000\000\000\000\000\000\000\000\000\000\000\000\000\000\000\000\000\000\000\000\000\000\000\000\000\000\000\000\000\000\000\000\000\000\000\000\000\000\000\000\000\000\000\000\000\000\000\000\000\000\000\000\000\000\000\000\000\000\000\000\000\000\000\000\000\000\000\000\000\000\000\000\000\000\000\000\000\000\000\000\000\000\000\000\000\000\000\000\000\000\000\000\000\000\000\000\000\000\000\000\000\000\000\000\000\000\000\000\000\000\000\000\000\000\000\000\000\000\000\000\000\000\000\000\000\000\000\000\000\000\000\000\000\000\000\000\000\000\000\000\000\000\000\000\000\000\000\000\000\000\000\000\000\000\000\000\000\000\000\000\000\000\000\000\000\000\000\000\000\000\000\000\000\000\000\000\000\000\000\000\000\000\000\000\000\000\000\000\000\000\000\000\000\000\000\000\000\000\000\000\000\000\000\000\000\000\000\000\000\000\000\000\000\000\000\000\000\000\000\000\000\000\000\000\000\000\000\000\000\000\000\000\000\000\000\000\000\000\000\000\000\000\000\000\000\000\000\000\000\000\000\000\000\000\000\000\000\000\000\000\000\000\000\000\000\000\000\000\000\000\000\000\000\000\000\000\000\000\000\000\000\000\000\000\000\000\000\000\000\000\000\000\000\000\000\000\000\000\000\000\000\000\000\000\000\000\000\000\000\000\000\000\000\000\000\000\000\000\000\000\000\000\000\000\000\000\000\000\000\000\000\000\000\000\000\000\000\000\000\000\000\000\000\000\000\000\000\000\000\000\000\000\000\000\000\000\000\000\000\000\000\000\000\000\000\000\000\000\000\000\000\000\000\000\000\000\000\000\000\000\000\000\000\000\000\000\000\000\000\000\000\000\000\000\000\000\000\000\000\000\000\000\000\000\000\000\000\000\000\000\000\000\000\000\000\000\000\000\000\000\000\000\000\000\000\000\000\000\000\000\000\000\000\000\000\000\000\000\000\000\000\000\000\000\000\000\000\000\000\000\000\000\000\000\000\000\000\000\000\000\000\000\000\000\000\000\000\000\000\000\000\000\000\000\000\000\000\000\000\000\000\000\000\000\000\000\000\000\000\000\000\000\000\000\000\000\000\000\000\000\000\000\000\000\000\000\000\000\000\000\000\000\000\000\000\000\000\000\000\000\000\000\000\000\000\000\000\000\000\000\000\000\000\000\000\000\000\000\000\000\000\000\000\000\000\000\000\000\000\000\000\000\000\000\000\000\000\000\000\000\000\000\000\000\000\000\000\000\000\000\000\000\000\000\000\000\000\000\000\000\000\000\000\000\000\000\000\000\000\000\000\000\000\000\000\000\000\000\000\000\000\000\000\000\000\000\000\000\000\000\000\000\000\000\000\000\000\000\000\000\000\000\000\000\000\000\000\000\000\000\000\000\000\000\000\000\000\000\000\000\000\000\000\000\000\000\000\000\000\000\000\000\000\000\000\000\000\000\000\000\000\000\000\000\000\000\000\000\000\000\000\000\000\000\000\000\000\000\000\000\000\000\000\000\000\000\000\000\000\000\000\000\000\000\000\000\000\000\000\000\000\000\000\000\000\000\000\000\000\000\000\000\000\000\000\000\000\000\000\000\000\000\000\000\000\000\000\000\000\000\000\000\000\000\000\000\000\000\000\000\000\000\000\000\000\000\000\000\000\000\000\000\000\000\000\000\000\000\000\000\000\000\000\000\000\000\000\000\000\000\000\000\000\000\000\000\000\000\000\000\000\000\000\000\000\000\000\000\000\000\000\000\000\000\000\000\000\000\000\000\000\000\000\000\000\000\000\000\000\000\000\000\000\000\000\000\000\000\000\000\000\000\000\000\000\000\000\000\000\000\000\000\000\000\000\000\000\000\000\000\000\000\000\000\000\000\000\000\000\000\000\000\000\000\000\000\000\000\000\000\000\000\000\000\000\000\000\000\000\000\000\000\000\000\000\000\000\000\000\000\000\000\000\000\000\000\000\000\000\000\274\000\000\000\274\274\000\b\006\000\234\b\000<\300d\005\004\034\210\377\377\177@\002\000\234\033\000\000@\206\036\004\034\000\000\034`\333<\000\000\004\000\000\000\022\000\003\200\000\000\000\000\000\002\004\234\177\000\000\200\340\000\000\000\000\000\000\000\b\002(\034\000\000\000\000\346\n\000\034\000\000<\300\344\016\000\234\177\000<\300\344\002\000\034\001\000<\300\344\016\000\234\001\000<\300\344\n\000\034\000\000<\300\344\016\000\234\001\000<\300\344\274\000\000\000\000\274\000\b\002\000\234\004\000<\300d\022\000\234\177\000<\300\344\002\b\034\000\000\020\000\342\022\f\034\002\000\020\000\342\n\300\037\270\000\000\000t\n\b\034\000\000\000\250|\026\000\034\001\000<\300\344\000\000\000\000\274\000\000\b\n\000\234\001\000<\300\344\016\000\234\002\000<\300\344\n\000\034\001\000<\300\344\032\300\037\264\000\000\000t\032\030\034\000\000\000\250|\026\000\034\003\000<\300\344\036\000\234\003\000<\300\344\000\000\000\274\000\000\000\b\032\000\234\002\000<\300\344\036\000\234\003\000<\300\344\"\300\037\260\000\000\000t\" \034\000\000\000\250|*\000\034\004\000<\300\344.\000\234\004\000<\300\344*\000\034\005\000<\300\344\000\000\274\000\000\000\000\b.\000\234\005\000<\300\344\"\300\037\254\000\000\000t\" \034\000\000\000\250|2\000\034\004\000<\300\3446\000\234\004\000<\300\3442\000\034\006\000<\300\3446\000\234\006\000<\300\344\000\274\000\000\274\000\000\b\026\300\037\250\000\000\000t\026\024\034\000\000\000\240|\026\000\234\002\000<\300\344\"\300\037\246\000\000\000t\" \034\000\000\000\240|\"\000\034\004\000<\300\344&\300\037\244\000\000\000t\274\000\000\274\000\000\000\b&$\034\000\000\000\240|&\000\234\004\000<\300\344:\300\037\240\000\000\000t:8\034\000\000\000\250|B\000\034\007\000<\300\344:\000\234\007\000<\300\344>\000\034\b\000<\300\344\000\000\000\000\000\000\000\b:\000\034\007\000<\300\344\016\000\234\001\000<\300\344\n\000\034\001\000<\300\344\016\f\034\001\000 \000\342\n\f\034\001\000 \000\342\016\f\034\001\000 \000\342\n\000\034\001\000<\300\344\000\000\000\000\000\000\000\b\016\000\234\001\000<\300\344\032\000\034\003\000<\300\344\036\000\234\003\000<\300\344\032\000\034\003\000<\300\344\036\000\234\003\000<\300\344\032\000\034\003\000<\300\344\036\000\234\003\000<\300\344\000\000\000\000\000\000\000\b*\000\034\005\000<\300\344.\000\234\005\000<\300\344*\000\034\005\000<\300\344.\000\234\005\000<\300\344*\000\034\005\000<\300\344.\000\234\005\000<\300\3442\000\034\006\000<\300\344\000\000\000\000\000\000\000\b6\000\234\006\000<\300\3442\000\034\006\000<\300\3446\000\234\006\000<\300\3442\000\034\006\000<\300\3446\000\234\006\000<\300\344>\000\234\007\000<\300\344:\000\034\007\000<\300\344\000\000\000\000\000\000\000\b><\034\007\000 \000\342:<\034\007\000 \000\342><\034\007\000 \000\342:\000\034\007\000<\300\344>\000\234\007\000<\300\344A\000\034\f\000\000\200@F\020\234\177\000@\200\340\000\000\000\000\000\000\000\bB\000\034\b\000<\300\344F\000\234\b\000<\300\344B\000\034\b\000<\300\344F\000\234\b\000<\300\3448@\034\000\000\000\200\3459\000\034\020\000\000\200@>\020\234\177\000@\200\340\000\000\000\000\000\000\000\b:\000\034\007\000<\300\344>\000\234\007\000<\300\344:\000\034\007\000<\300\344>\000\234\007\000<\300\344$8\034\000\000\000\200\3449\000\034\022\000\000\200@>\020\234\177\000@\200\340\000\000\000\000\000\000\000\b:\000\034\007\000<\300\344>\000\234\007\000<\300\344:\000\034\007\000<\300\344>\000\234\007\000<\300\344 8\034\000\000\000\200\344!\000\034\024\000\000\200@&\020\234\177\000@\200\340\000\000\000\000\000\000\000\b\"\000\034\004\000<\300\344&\000\234\004\000<\300\344\"\000\034\004\000<\300\344&\000\234\004\000<\300\344\024 \034\000\000\000\200\344!\000\034\030\000\000\200@&\020\234\177\000@\200\340\000\000\000\000\000\000\000\b\"\000\034\004\000<\300\344&\000\234\004\000<\300\344\"\000\034\004\000<\300\344&\000\234\004\000<\300\3440 \034\000\000\000\200\345!\000\034\034\000\000\200@&\020\234\177\000@\200\340\000\000\000\000\000\000\000\b\"\000\034\004\000<\300\344&\000\234\004\000<\300\344\"\000\034\004\000<\300\344&\000\234\004\000<\300\344( \034\000\000\000\200\345!\000\034 \000\000\200@&\020\234\177\000@\200\340\000\000\000\000\000\000\000\b\"\000\034\004\000<\300\344&\000\234\004\000<\300\344\"\000\034\004\000<\300\344&\000\234\004\000<\300\344\030 \034\000\000\000\200\345\031\000\034$\000\000\200@\036\020\234\177\000@\200\340\000\000\000\000\000\274\000\b\032\000\034\003\000<\300\344\036\000\234\003\000<\300\344\032\000\034\003\000<\300\344\036\000\234\003\000<\300\344\b\030\034\000\000\000\200\345\n\000\234\006\000<\300d\016\000\034\023\000\000@\206\000\000\000\000\000\000\000\b\016\000\234\001\000<\300\344\n\b\234\001\000\030\300\341\016\000\234\022\000\000@\206\016\000\234\001\000<\300\344\026\b\234\001\000\000\200\340\t\000\034(\000\000\200@\016\020\234\177\000@\200\340\000\000\000\000\000\000\000\b\n\000\034\001\000<\300\344\016\000\234\001\000<\300\344\n\000\034\001\000<\300\344\016\000\234\001\000<\300\344\024\b\034\000\000\000\200\344\t\000\034(\000\000\200@\016\020\234\177\000@\200\340\000\000\000\000\000\274\000\b\n\000\034\001\000<\300\344\016\000\234\001\000<\300\344\n\000\034\001\000<\300\344\016\000\234\001\000<\300\344\b\b\034\000\000\000\200\304\016\000\034\005\000<\300d\n\b\234\001\000\030\300\341\274\000\000\000\000\000\000\b\016\000\234\005\000<\300d\n\b\234\001\000\030\300\341\016\000\234\020\000\000@\206\016\000\234\001\000<\300\344\026\b\234\001\000\000\200\340\t\000\034*\000\000\200@\016\020\234\177\000@\200\340\000\000\000\000\000\000\000\b\n\000\034\001\000<\300\344\016\000\234\001\000<\300\344\n\000\034\001\000<\300\344\016\000\234\001\000<\300\344\024\b\034\000\000\000\200\344\026\300\237\377\377\377\177t\t\000\034,\000\000\200@\000\000\000\000\000\000\000\b\016\020\234\177\000@\200\340\n\000\034\001\000<\300\344\016\000\234\001\000<\300\344\n\000\034\001\000<\300\344\016\000\234\001\000<\300\344\024\b\034\000\000\000\200\344\t\000\034*\000\000\200@\000\000\000\000\000\000\000\b\016\020\234\177\000@\200\340\n\000\034\001\000<\300\344\016\000\234\001\000<\300\344\n\000\034\001\000<\300\344\016\000\234\001\000<\300\344\024\b\034\000\000\000\200\304\t\000\034\022\000\000\200@\000\000\000\000\000\000\000\b\016\020\234\177\000@\200\340\n\000\034\001\000<\300\344\016\000\234\001\000<\300\344\n\000\034\001\000<\300\344\016\000\234\001\000<\300\344\b\b\034\000\000\000\200\304\036\024\034\001\000\034`\333\000\000\000\274\274\000\000\b\002\000\034\000\000<\300\344\n\000\034\002\000<\300\344\000\000\000\034\b\000\200\024\002<@\000\000\000\200\205<\000\034\000\000\000\000\022\016\300\237\377\377\277?t\021\000\0342\000\000\200@\000\000\000\000\000\000\000\b\026\b\234\177\000@\200\340\022\000\034\002\000<\300\344\026\000\234\002\000<\300\344\022\000\034\002\000<\300\344\026\000\234\002\000<\300\344\f\020\034\000\000\000\200\344\016\000\234\177\000<\300\344\000\000\000\000\000\000\000\b\021\000\034.\000\000\200@\026\b\234\177\000@\200\340\022\000\034\002\000<\300\344\026\000\234\002\000<\300\344\022\000\034\002\000<\300\344\026\000\234\002\000<\300\344\f\020\034\000\000\000\200\344\000\274\000\000\000\000\000\b\000\000\000\270\007\000\200\024<\000\034\000\000\000\000\022\021\000\034.\000\000\200@\026\b\234\177\000@\200\340\022\000\034\002\000<\300\344\026\000\234\002\000<\300\344\022\000\034\002\000<\300\344\000\000\000\000\000\000\000\b\026\000\234\002\000<\300\344\f\020\034\000\000\000\200\304\021\000\034\024\000\000\200@\026\b\234\177\000@\200\340\022\000\034\002\000<\300\344\026\000\234\002\000<\300\344\022\000\034\002\000<\300\344\000\000\000\274\274\000\000\b\026\000\234\002\000<\300\344\020\020\034\000\000\000\200\304\036\f\034\002\000\034h\333\002<@\000\000\000\200\205<\000\034\000\000\000\000\022\021\000\034.\000\000\200@\026\b\234\177\000@\200\340\000\000\000\000\000\000\000\b\022\000\034\002\000<\300\344\026\000\234\002\000<\300\344\022\000\034\002\000<\300\344\026\000\234\002\000<\300\344\f\020\034\000\000\000\200\304\021\000\034\020\000\000\200@\026\b\234\177\000@\200\340\000\000\000\000\000\000\000\b\022\000\034\002\000<\300\344\026\000\234\002\000<\300\344\022\000\034\002\000<\300\344\026\000\234\002\000<\300\344\020\020\034\000\000\000\200\304\016\f\034\002\000\030\300\341\021\000\0346\000\000\200@\000\000\000\000\000\000\000\b\026\b\234\177\000@\200\340\022\000\034\002\000<\300\344\026\000\234\002\000<\300\344\022\000\034\002\000<\300\344\026\000\234\002\000<\300\344\f\020\034\000\000\000\200\344\016\000\234\177\000<\300\344\000\000\000\000\000\000\000\b\021\000\0348\000\000\200@\026\b\234\177\000@\200\340\022\000\034\002\000<\300\344\026\000\234\002\000<\300\344\022\000\034\002\000<\300\344\026\000\234\002\000<\300\344\f\020\034\000\000\000\200\344\000\000\000\000\000\000\000\b\021\000\0340\000\000\200@\026\b\234\177\000@\200\340\022\000\034\002\000<\300\344\026\000\234\002\000<\300\344\022\000\034\002\000<\300\344\026\000\234\002\000<\300\344\f\020\034\000\000\000\200\344\000\274\000\000\000\000\000\b\000\000\000T\005\000\200\024<\000\034\000\000\000\000\022\021\000\0340\000\000\200@\026\b\234\177\000@\200\340\022\000\034\002\000<\300\344\026\000\234\002\000<\300\344\022\000\034\002\000<\300\344\000\000\000\000\000\000\000\b\026\000\234\002\000<\300\344\f\020\034\000\000\000\200\304\021\000\034\020\000\000\200@\026\b\234\177\000@\200\340\022\000\034\002\000<\300\344\026\000\234\002\000<\300\344\022\000\034\002\000<\300\344\000\000\000\274\274\000\000\b\026\000\234\002\000<\300\344\020\020\034\000\000\000\200\304\036\f\034\002\000\034h\333\002<@\000\000\000\200\205<\000\034\000\000\000\000\022\021\000\034*\000\000\200@\026\b\234\177\000@\200\340\000\000\000\000\000\000\000\b\022\000\034\002\000<\300\344\026\000\234\002\000<\300\344\022\000\034\002\000<\300\344\026\000\234\002\000<\300\344\f\020\034\000\000\000\200\304\021\000\0340\000\000\200@\026\b\234\177\000@\200\340\000\000\000\000\000\000\000\b\022\000\034\002\000<\300\344\026\000\234\002\000<\300\344\022\000\034\002\000<\300\344\026\000\234\002\000<\300\344\030\020\034\000\000\000\200\304\021\000\034\022\000\000\200@\026\b\234\177\000@\200\340\000\000\000\000\000\000\000\b\022\000\034\002\000<\300\344\026\000\234\002\000<\300\344\022\000\034\002\000<\300\344\026\000\234\002\000<\300\344\020\020\034\000\000\000\200\304\022\030\034\002\000\030\300\341\016\f\034\002\000\000\200\340\000\000\000\000\000\000\000\b\021\000\034:\000\000\200@\026\b\234\177\000@\200\340\022\000\034\002\000<\300\344\026\000\234\002\000<\300\344\022\000\034\002\000<\300\344\026\000\234\002\000<\300\344\f\020\034\000\000\000\200\344\000\274\000\000\000\000\000\b\016\300\037\000\000\000@t\016\f\034/\000\020\000b\016(\234\001\000\000\000\346\016\000\234\001\000<\300\344\022\000\234\177\000<\300\344\"\374\237\001\000\020\000\342\020\020\034\000\000\000\020!\000\000\000\000\000\000\000\b\r \034\020\000\022\300\307\021\020\034\020\000\000@\301\031\000\034@\000\000\200@\036\b\234\177\000@\200\340\030\030\034\002\000\000\000!\036\034\234\177\000\020\000\342\022\000\034\003\000<\300\344\000\000\000\000\000\000\000\b\026\000\234\003\000<\300\344\016\000\234\001\000<\300\344\022\000\034\002\000<\300\344\026\000\234\002\000<\300\344\f\020\034\000\000\000\200\344\021\000\034@\000\000\200@\026\b\234\177\000@\200\340\000\000\000\000\000\000\000\b\022\000\034\002\000<\300\344\026\000\234\002\000<\300\344\016\000\034\004\000<\300\344\022\000\034\002\000<\300\344\026\000\234\002\000<\300\344\f\020\034\000\000\000\200\344\021\000\034:\000\000\200@\000\000\000\000\000\000\000\b\026\b\234\177\000@\200\340\022\000\034\002\000<\300\344\026\000\234\002\000<\300\344\022\000\034\002\000<\300\344\026\000\234\002\000<\300\344\f\020\034\000\000\000\200\304\022\000\034\003\000<\300\344\000\000\000\000\000\000\000\b\026\000\234\003\000<\300\344\022\000\034\002\000<\300\344\026\000\234\002\000<\300\344\020\020\034\000\000\000\200\304\022(\034\002\000\000\000\346\032\000\034\002\000<\300\344\022\000\234\177\000<\300\344\000\000\000\000\000\000\000\b\021\000\034@\000\000\200@\026\b\234\177\000@\200\340\022\000\034\002\000<\300\344\026\000\234\002\000<\300\344\022\000\034\002\000<\300\344\026\000\234\002\000<\300\344\020\020\034\000\000\000\200\304\000\000\000\000\000\000\000\b\022(\034\002\000\000\000\346&\000\034\002\000<\300\344\022\000\234\177\000<\300\344\036\000\234\177\000\000\204\340\"\b\234\177\000@\200\340\034\034\034\002\000\000\000!\" \234\177\000\020\000\342\000\000\000\000\000\000\000\b\022\000\234\003\000<\300\344\026\000\034\004\000<\300\344\032\000\034\003\000<\300\344\022\000\034\002\000<\300\344\026\000\234\002\000<\300\344\030\020\034\000\000\000\200\344\022\000\234\177\000\000\204\340\000\000\000\000\000\000\000\b\026\b\234\177\000@\200\340\022\000\034\002\000<\300\344\026\000\234\002\000<\300\344\032\000\234\004\000<\300\344\022\000\034\002\000<\300\344\026\000\234\002\000<\300\344\030\020\034\000\000\000\200\344\000\000\000\000\000\000\000\b\021\000\034\004\000\000\200@\026\b\234\177\000@\200\340\022\000\034\002\000<\300\344\026\000\234\002\000<\300\344\022\000\034\002\000<\300\344\026\000\234\002\000<\300\344\f\020\034\000\000\000\200\344\000\000\000\000\000\000\000\b\022\000\234\003\000<\300\344\026\000\034\004\000<\300\344\022\000\034\002\000<\300\344\026\000\234\002\000<\300\344\020\020\034\000\000\000\200\304\022(\034\002\000\000\000\346\016\000\034\002\000<\300\344\000\000\000\000\000\000\000\b\022\000\234\177\000<\300\344\022\000\234\177\000\000\204\340\026\b\234\177\000@\200\340\022\000\034\002\000<\300\344\026\000\234\002\000<\300\344\022\000\034\002\000<\300\344\026\000\234\002\000<\300\344\000\000\000\000\000\000\000\b\020\020\034\000\000\000\200\304\022(\034\002\000\000\000\346\"\000\034\002\000<\300\344\022\000\234\177\000<\300\344\031\000\034\b\000\000\200@\036\b\234\177\000@\200\340\030\030\034\002\000\000\000!\000\000\000\000\000\000\000\b\036\034\234\177\000\020\000\342\022\000\034\003\000<\300\344\026\000\234\003\000<\300\344\016\000\234\001\000<\300\344\022\000\034\002\000<\300\344\026\000\234\002\000<\300\344\f\020\034\000\000\000\200\344\000\000\000\000\000\000\000\b\021\000\034\b\000\000\200@\026\b\234\177\000@\200\340\022\000\034\002\000<\300\344\026\000\234\002\000<\300\344\016\000\034\004\000<\300\344\022\000\034\002\000<\300\344\026\000\234\002\000<\300\344\000\000\000\000\000\000\000\b\f\020\034\000\000\000\200\344\021\000\034\004\000\000\200@\026\b\234\177\000@\200\340\022\000\034\002\000<\300\344\026\000\234\002\000<\300\344\022\000\034\002\000<\300\344\026\000\234\002\000<\300\344\000\000\000\000\000\000\000\b\f\020\034\000\000\000\200\304\022\000\034\003\000<\300\344\026\000\234\003\000<\300\344\022\000\034\002\000<\300\344\026\000\234\002\000<\300\344\020\020\034\000\000\000\200\304\022(\034\002\000\000\000\346\000\000\000\000\000\000\000\b\022\000\034\002\000<\300\344\032\000\234\177\000<\300\344\031\020\034\020\000\032\300\267%\020\034\020\000\000@\302\021\000\034\b\000\000\200@\026\b\234\177\000@\200\340\022\000\034\002\000<\300\344\000\000\000\000\000\000\000\b\026\000\234\002\000<\300\344\022\000\034\002\000<\300\344\026\000\234\002\000<\300\344\020\020\034\000\000\000\200\304\022(\034\002\000\000\000\346\022\000\034\002\000<\300\344*\000\234\177\000<\300\344\000\000\000\000\000\000\000\b&$\034\002\000\020\000\342*\030\034\005\000\020\000\342\031\000\034\006\000\000\200@\036\b\234\177\000@\200\340\032\000\034\003\000<\300\344\036\000\234\003\000<\300\344&\000\234\004\000<\300\344\000\274\274\000\000\000\000\b*\000\034\005\000<\300\344.\000\234\001\000<\300\344\000\001\0348\004\000\000\023\021\000\034\006\000\000\200@\026\b\234\177\000@\200\340\022\000\034\002\000<\300\344\026\000\234\002\000<\300\344\000\000\000\000\000\000\000\b\022\000\034\002\000<\300\344\026\000\234\002\000<\300\344\f\020\034\000\000\000\200\304\021\000\0346\000\000\200@\026\b\234\177\000@\200\340\022\000\034\002\000<\300\344\026\000\234\002\000<\300\344\000\000\000\000\000\000\000\b\022\000\034\002\000<\300\344\026\000\234\002\000<\300\344\030\020\034\000\000\000\200\304\021\000\0340\000\000\200@\026\b\234\177\000@\200\340\022\000\034\002\000<\300\344\026\000\234\002\000<\300\344\000\000\000\000\000\000\000\b\022\000\034\002\000<\300\344\026\000\234\002\000<\300\344\020\020\034\000\000\000\200\304\022\030\034\002\000\000\200\340\022\350\034\002\000\000\000\346\025\020\234\017\000\000H\301\022\000\034\002\000<\300\344\000\000\000\000\000\000\000\b\026\000\234\002\000<\300\344&\000\034\002\000<\300\344*\000\234\002\000<\300\344&\000\234\004\000<\300\344*\000\034\005\000<\300\344)$\034\001\000*\300\267%$\034\001\000\000@\302\000\000\000\000\000\000\000\b\022(\234\177\000\000\000\346\022\000\034\002\000<\300\344\026\000\234\177\000<\300\344\036\000\034\002\000<\300\344\"\000\234\002\000<\300\344\036\000\234\003\000<\300\344\"\000\034\004\000<\300\344\000\274\000\000\000\000\000\b\022\300\037x\000\000\000t\022\020\034\000\000\000\250|\032\000\034\002\000<\300\344\026\000\234\002\000<\300\344\022\000\034\003\000<\300\344\026\000\234\002\000<\300\344\022\034\034\002\000\000\204\340\000\000\000\000\000\000\000\b\026 \234\002\000@\200\340\022\020\234\004\000\000\204\340\026\024\034\005\000@\200\340\022\000\034\002\000<\300\344\026\000\234\002\000<\300\344\022\000\034\002\000<\300\344\026\000\234\002\000<\300\344\000\000\000\000\000\000\000\b\020\020\034\000\000\000\200\304\016\f\034\002\000\000\301\342\021\000\034<\000\000\200@\026\b\234\177\000@\200\340\022\000\034\002\000<\300\344\026\000\234\002\000<\300\344\022\000\034\002\000<\300\344\000\000\000\000\000\000\000\b\026\000\234\002\000<\300\344\f\020\034\000\000\000\200\344\021\000\034<\000\000\200@\026\b\234\177\000@\200\340\022\000\034\002\000<\300\344\026\000\234\002\000<\300\344\022\000\034\002\000<\300\344\000\000\000\000\000\000\000\b\026\000\234\002\000<\300\344\f\020\034\000\000\000\200\304\021\000\0348\000\000\200@\026\b\234\177\000@\200\340\022\000\034\002\000<\300\344\026\000\234\002\000<\300\344\022\000\034\002\000<\300\344\000\000\000\000\000\000\000\b\026\000\234\002\000<\300\344\020\020\034\000\000\000\200\304\016\f\234\001\000\020\000\314\021\000\0348\000\000\200@\026\b\234\177\000@\200\340\022\000\034\002\000<\300\344\026\000\234\002\000<\300\344\000\000\000\274\000\000\000\b\022\000\034\002\000<\300\344\026\000\234\002\000<\300\344\f\020\034\000\000\000\200\344<\000\034\000\000\000\000\022\021\000\0340\000\000\200@\026\b\234\177\000@\200\340\022\000\034\002\000<\300\344\000\000\000\000\000\000\000\b\026\000\234\002\000<\300\344\022\000\034\002\000<\300\344\026\000\234\002\000<\300\344\020\020\034\000\000\000\200\304\r\020\234\000\000\000\000@\021\000\0340\000\000\200@\026\b\234\177\000@\200\340\000\000\000\000\000\270\000\b\022\000\034\002\000<\300\344\026\000\234\002\000<\300\344\022\000\034\002\000<\300\344\026\000\234\002\000<\300\344\f\020\034\000\000\000\200\344<\000\034\260\372\177\000\022\021\000\0348\000\000\200@\000\000\000\000\000\000\000\b\026\b\234\177\000@\200\340\022\000\034\002\000<\300\344\026\000\234\002\000<\300\344\022\000\034\002\000<\300\344\026\000\234\002\000<\300\344\f\020\034\000\000\000\200\304\021\000\0344\000\000\200@\000\000\000\000\000\000\000\b\026\b\234\177\000@\200\340\022\000\034\002\000<\300\344\026\000\234\002\000<\300\344\022\000\034\002\000<\300\344\026\000\234\002\000<\300\344\f\020\034\000\000\000\200\344\021\000\0344\000\000\200@\000\000\000\000\000\000\000\b\026\b\234\177\000@\200\340\022\000\034\002\000<\300\344\026\000\234\002\000<\300\344\022\000\034\002\000<\300\344\026\000\234\002\000<\300\344\f\020\034\000\000\000\200\304\021\000\0342\000\000\200@\000\000\000\000\000\000\000\b\026\b\234\177\000@\200\340\022\000\034\002\000<\300\344\026\000\234\002\000<\300\344\022\000\034\002\000<\300\344\026\000\234\002\000<\300\344\020\020\034\000\000\000\200\304\036\f\034\002\000\034\360\335\000\274\274\000\000\000\000\b\000\000\000\214\000\000\200\024\002<@\000\000\000\200\205<\000\034\000\000\000\000\022\021\000\0344\000\000\200@\026\b\234\177\000@\200\340\022\000\034\002\000<\300\344\026\000\234\002\000<\300\344\000\000\000\000\000\000\000\b\022\000\034\002\000<\300\344\026\000\234\002\000<\300\344\f\020\034\000\000\000\200\304\021\000\0342\000\000\200@\026\b\234\177\000@\200\340\022\000\034\002\000<\300\344\026\000\234\002\000<\300\344\000\000\000\000\000\000\000\b\022\000\034\002\000<\300\344\026\000\234\002\000<\300\344\f\020\034\000\000\000\200\344\021\000\034.\000\000\200@\026\b\234\177\000@\200\340\022\000\034\002\000<\300\344\026\000\234\002\000<\300\344\000\000\000\000\000\000\000\b\022\000\034\002\000<\300\344\026\000\234\002\000<\300\344\f\020\034\000\000\000\200\304\021\000\034,\000\000\200@\026\b\234\177\000@\200\340\022\000\034\002\000<\300\344\026\000\234\002\000<\300\344\000\000\270\274\274\000\000\b\022\000\034\002\000<\300\344\026\000\234\002\000<\300\344\f\020\\\000\000\000\200\344\002<\\\000\000\000\200\205<\000\034\000\000\000\000\022\021\000\034.\000\000\200@\026\b\234\177\000@\200\340\000\000\000\000\000\000\000\b\022\000\034\002\000<\300\344\026\000\234\002\000<\300\344\022\000\034\002\000<\300\344\026\000\234\002\000<\300\344\020\020\034\000\000\000\200\304\r\020\234\000\000\000\000@\021\000\034.\000\000\200@\000\000\000\000\000\000\270\b\026\b\234\177\000@\200\340\022\000\034\002\000<\300\344\026\000\234\002\000<\300\344\022\000\034\002\000<\300\344\026\000\234\002\000<\300\344\f\020\034\000\000\000\200\344<\000\034L\370\177\000\022\274\274\000\000\000\000\000\b\002<\\\000\000\000\200\205\002<\\\000\000\000\200\205\021\000\034*\000\000\200@\026\b\234\177\000@\200\340\022\000\034\002\000<\300\344\026\000\234\002\000<\300\344\022\000\034\002\000<\300\344\000\000\000\000\000\000\000\b\026\000\234\002\000<\300\344\f\020\034\000\000\000\200\304\021\000\034\022\000\000\200@\026\b\234\177\000@\200\340\022\000\034\002\000<\300\344\026\000\234\002\000<\300\344\022\000\034\002\000<\300\344\000\000\000\274\274\000\000\b\026\000\234\002\000<\300\344\020\020\034\000\000\000\200\304\036\f\034\002\000\034`\333<\000\000\250\000\000\000\022<\000\034\000\000\000\000\022\021\000\034,\000\000\200@\026\b\234\177\000@\200\340\000\000\000\000\000\000\000\b\022\000\034\002\000<\300\344\026\000\234\002\000<\300\344\022\000\034\002\000<\300\344\026\000\234\002\000<\300\344 \020\034\000\000\000\200\304\031\000\034\030\000\000\200@\036\b\234\177\000@\200\340\000\000\000\000\000\000\000\b\032\000\034\003\000<\300\344\036\000\234\003\000<\300\344\032\000\034\003\000<\300\344\036\000\234\003\000<\300\344\020\030\034\000\000\000\200\305\032\000\034\002\000<\300\344\022\000\234\002\000<\300\344\000\000\000\000\000\000\000\b\001\000\034*\000\000\200@\016\b\234\177\000@\200\340\n\000\034\000\000<\300\344\016\000\234\001\000<\300\344\n\000\034\001\000<\300\344\016\000\234\001\000<\300\344\b\b\034\000\000\000\200\304\000\000\000\000\000\000\000\b\n(\034\001\000\000\000\346\n\000\034\001\000<\300\344\016\000\234\177\000<\300\344\r\b\034\001\000\016\300\267\t\b\034\001\000\000@\302\n\030\034\001\000\000\204\340\016\020\234\001\000@\200\340\000\000\000\000\000\274\000\b\n\000\034\001\000<\300\344\016\000\234\001\000<\300\344\n\000\034\001\000<\300\344\016\000\234\001\000<\300\344 \b\034\000\000\000\200\344<\000\034\000\000\000\000\022\376\003\234\177\000<\300\344\274\000\000\000\000\000\000\b<\000\034\000\000\000\000\030\r\004\034H\000\000\000@\016(\234\001\000\000\000\346\022\000\234\001\000<\300\344\026\000\234\177\000<\300\344\016\000\034\002\000<\300\344\026\000\234\002\000<\300\344\000\000\274\000\000\000\000\b\022\000\234\001\000<\300\344\026\000\234\002\000<\300\344\016\000\234\004\000<\300d\"\000\234\177\000<\300\344\016\020\234\001\000\020\000\342\"\024\034\004\000\020\000\342\022\000\234\005\000<\300\344\000\000\000\000\000\000\000\b\026\000\234\004\000<\300\3442\000\034\005\000<\300\344\032\000\034\003\000<\300\344\036\000\234\003\000<\300\344*\f\234\177\000\000\204\340. \234\177\000@\200\340*\000\034\005\000<\300\344\000\000\000\000\000\000\000\b.\000\234\005\000<\300\344*\000\034\005\000<\300\344.\000\234\005\000<\300\344\030(\034\000\000\000\200\345%\024\034\020\0002\300\307\0310\034\020\000\000@\301)\f\034\004\000\000\200@\000\000\000\000\000\000\000\b. \234\177\000@\200\340((\034\002\000\000\000!.,\234\177\000\020\000\342\032\000\034\005\000<\300\344\036\000\234\005\000<\300\344&\000\234\004\000<\300\344\032\000\034\003\000<\300\344\000\000\000\000\000\000\000\b\036\000\234\003\000<\300\344$\030\034\000\000\000\200\344\031\f\034\004\000\000\200@\036 \234\177\000@\200\340\032\000\034\003\000<\300\344\036\000\234\003\000<\300\344\026\000\234\002\000<\300\344\000\000\000\000\000\000\000\b\032\000\034\003\000<\300\344\036\000\234\003\000<\300\344\024\030\034\000\000\000\200\344\031\f\034\b\000\000\200@\036 \234\177\000@\200\340\032\000\034\003\000<\300\344\036\000\234\003\000<\300\344\000\000\000\000\000\000\000\b\032\000\034\003\000<\300\344\036\000\234\003\000<\300\344\020\030\034\000\000\000\200\344\022\000\034\005\000<\300\344\026\000\234\005\000<\300\344\022\000\034\002\000<\300\344\026\000\234\002\000<\300\344\000\000\000\000\000\000\000\b\020\020\034\000\000\000\200\304\022(\034\002\000\000\000\346\032\000\034\002\000<\300\344\022\000\234\177\000<\300\344\021\f\034\004\000\000\200@\026 \234\177\000@\200\340\022\000\034\002\000<\300\344\000\000\000\000\000\000\000\b\026\000\234\002\000<\300\344\022\000\034\002\000<\300\344\026\000\234\002\000<\300\344\020\020\034\000\000\000\200\304\022(\034\002\000\000\000\346*\000\034\002\000<\300\344\022\000\234\177\000<\300\344\000\000\000\000\000\000\000\b\035\f\034\030\000\000\200@& \234\177\000@\200\340\034\034\034\002\000\000\000!&$\234\177\000\020\000\342\022\000\234\003\000<\300\344\026\000\234\004\000<\300\344\032\000\034\003\000<\300\344\000\000\000\000\000\000\000\b\022\000\034\002\000<\300\344\026\000\234\002\000<\300\344\030\020\034\000\000\000\200\344\021\f\034\030\000\000\200@\026 \234\177\000@\200\340\022\000\034\002\000<\300\344\026\000\234\002\000<\300\344\000\000\000\000\000\000\000\b\032\000\034\005\000<\300\344\022\000\034\002\000<\300\344\026\000\234\002\000<\300\344\030\020\034\000\000\000\200\344\022\000\234\003\000<\300\344\026\000\234\004\000<\300\344\022\000\034\002\000<\300\344\000\000\000\000\000\000\000\b\026\000\234\002\000<\300\344\020\020\034\000\000\000\200\304\022(\034\002\000\000\000\346\022\000\034\002\000<\300\344&\000\234\177\000<\300\344%\020\034\020\000&\300\267\031\020\034\020\000\000@\302\000\000\000\000\000\000\000\b\021\f\034\030\000\000\200@\026 \234\177\000@\200\340\022\000\034\002\000<\300\344\026\000\234\002\000<\300\344\022\000\034\002\000<\300\344\026\000\234\002\000<\300\344\020\020\034\000\000\000\200\304\000\000\000\000\000\000\000\b\022(\034\002\000\000\000\346\022\000\034\002\000<\300\344\036\000\234\177\000<\300\344\032\030\034\002\000\020\000\342\036$\234\003\000\020\000\342\032\000\034\003\000<\300\344\036\000\234\003\000<\300\344\000\274\274\000\000\000\000\b\016\000\234\001\000<\300\344\"\000\034\004\000<\300\344\000\001\034\304\003\000\000\023\032\000\034\002\000<\300\344\036\000\234\002\000<\300\344\021\f\034\b\000\000\200@\026 \234\177\000@\200\340\000\000\000\000\000\000\000\b\022\000\034\002\000<\300\344\026\000\234\002\000<\300\344\022\000\034\002\000<\300\344\026\000\234\002\000<\300\344\020\020\034\000\000\000\200\304\032\000\034\003\000<\300\344\036\000\234\003\000<\300\344\274\274\000\000\000\000\000\b.\000\034\002\000<\300\344\000\001\034d\001\000\000\023\022\000\034\002\000<\300\344\026\000\234\002\000<\300\344\032\000\234\003\000<\300\344\036\000\234\004\000<\300\344&\000\034\002\000<\300\344\000\000\000\000\000\000\000\b2\000\234\002\000<\300\3446\000\034\003\000<\300\344\032\000\234\003\000<\300\344\021\f\034\020\000\000\200@\026 \234\177\000@\200\340\022\000\034\002\000<\300\344\026\000\234\002\000<\300\344\000\000\000\000\000\000\000\b\022\000\034\002\000<\300\344\026\000\234\002\000<\300\344$\020\034\000\000\000\200\344\035\f\034\020\000\000\200@& \234\177\000@\200\340\024\034\034\002\000\000\000!\022$\234\177\000\020\000\342\000\000\000\000\000\000\000\b*\000\234\002\000<\300\344.\000\034\002\000<\300\344*\000\034\005\000<\300\344.\000\234\005\000<\300\3440(\034\000\000\000\200\3440\034\034\004\000\000\000!:$\234\177\000\020\000\342\000\000\000\000\000\000\000\b*\000\034\006\000<\300\344.\000\034\007\000<\300\344*\000\034\005\000<\300\344.\000\234\005\000<\300\3444(\034\000\000\000\200\344\034\034\034\006\000\000\000!&$\234\177\000\020\000\342\000\000\000\000\000\000\000\b*\000\234\003\000<\300\344.\000\234\004\000<\300\344*\000\034\005\000<\300\344.\000\234\005\000<\300\344\030(\034\000\000\000\200\344\032\000\234\003\000<\300\344\036\000\234\004\000<\300\344\000\000\000\000\000\000\000\b\032\000\034\003\000<\300\344\036\000\234\003\000<\300\344$\030\034\000\000\000\200\304\032\000\034\006\000<\300\344\036\000\034\007\000<\300\344\032\000\034\003\000<\300\344\036\000\234\003\000<\300\344\000\000\000\000\000\000\000\b\030\030\034\000\000\000\200\304\026\000\234\002\000<\300\344\022\000\034\002\000<\300\344\026\024\034\002\000 \000\342\022\024\034\002\000 \000\342\026\024\034\002\000 \000\342\034\020\034\000\000\000\200\304\000\000\000\000\000\000\000\b\021\f\034\020\000\000\200@\026 \234\177\000@\200\340\022\000\034\002\000<\300\344\026\000\234\002\000<\300\344\022\000\034\002\000<\300\344\026\000\234\002\000<\300\344\020\020\034\000\000\000\200\304\000\000\000\274\274\000\000\b\022\000\034\002\000<\300\344\036\000\234\003\000<\300\344\032\000\034\003\000<\300\344&\000\234\004\000<\300\344\000\001\034\304\003\000\000\023&\000\034\002\000<\300\344\032\f\234\177\000\000\204\340\000\000\000\000\000\000\000\b\036 \234\177\000@\200\340\032\000\034\003\000<\300\344\036\000\234\003\000<\300\344\032\000\034\003\000<\300\344\036\000\234\003\000<\300\344\020\030\034\000\000\000\200\305\022\000\034\002\000<\300\344\000\000\274\000\000\000\000\b\026\000\234\002\000<\300\344$\020\034\000\000\000\200\344<\000\034\000\000\000\000\031\021\004\034h\000\000\000@\022(\034\002\000\000\000\346\022\000\034\002\000<\300\344\026\000\234\177\000<\300\344\000\000\000\000\274\000\000\b&\000\034\002\000<\300\344\026\000\234\002\000<\300\344\022\000\234\004\000<\300\344\026\000\234\002\000<\300\344&\000\234\004\000<\300d*\000\234\177\000<\300\344&\020\234\004\000\020\000\342\000\000\000\000\000\000\000\b*\024\034\005\000\020\000\342.\000\234\005\000<\300\344\022\000\034\003\000<\300\344\026\000\234\003\000<\300\344\031$\034\b\000\000\200@\036(\234\177\000@\200\340\032\000\034\003\000<\300\344\000\000\000\000\000\000\000\b\036\000\234\003\000<\300\344\032\000\034\003\000<\300\344\036\000\234\003\000<\300\344\020\030\034\000\000\000\200\345\021$\034\f\000\000\200@\026(\234\177\000@\200\340\022\000\034\002\000<\300\344\000\000\000\000\000\000\000\b\026\000\234\002\000<\300\344\022\000\034\002\000<\300\344\026\000\234\002\000<\300\344,\020\034\000\000\000\200\344B$\234\177\000\000\204\340>(\234\177\000@\200\340,@\034\002\000\000\000!\000\000\000\000\000\000\000\b6<\234\177\000\020\000\3420@\034\004\000\000\000!:<\234\177\000\020\000\342@@\034\006\000\000\000!><\234\177\000\020\000\342\031$\034\b\000\000\200@\036(\234\177\000@\200\340\000\000\000\000\000\000\000\b\032\000\034\003\000<\300\344\036\000\234\003\000<\300\344\032\000\034\003\000<\300\344\036\000\234\003\000<\300\344\020\030\034\000\000\000\200\305\032\000\034\002\000<\300\344\022\000\234\002\000<\300\344\000\000\000\000\000\000\000\b\021$\034\f\000\000\200@\026(\234\177\000@\200\340\022\000\034\002\000<\300\344\026\000\234\002\000<\300\344\022\000\034\002\000<\300\344\026\000\234\002\000<\300\344\024\020\034\000\000\000\200\304\000\274\000\000\274\000\000\b\022\000\034\003\000<\300\344\000\000\0004\000\000\200\024\032\020\034\200\341\203\273x\376\033\034\002\000\000\214\340\b\000\034\034\000\000\000\022\032\020\234\200\341\203\273x\376\033\034\002\000\000\214\340\274\000\000\274\000\200\274\b\b\000\034\f\000\000\000\022\032\020\034\201\341\203\273x\376\033\034\002\000\000\214\340\b\000\034\000\000\000\000\022\022\020\234\177=\000\000x>\000\034\000\000\000\000w\002<\\\000\000\000\200\205\000\000\000\000\000\000\000\bF\000\034\002\000<\300\344J\000\234\002\000<\300\344\032\000\034\003\000<\300\344\036\000\234\003\000<\300\344\022$\234\177\000\000\204\340\026(\234\177\000@\200\340\022\000\034\002\000<\300\344\000\000\000\000\000\000\000\b\026\000\234\002\000<\300\344\022\000\034\002\000<\300\344\026\000\234\002\000<\300\344D\020\034\000\000\000\200\344\022\000\234\005\000<\300\344\026\000\234\006\000<\300\344\022\000\034\002\000<\300\344\000\000\000\000\000\000\000\b\026\000\234\002\000<\300\344H\020\034\000\000\000\200\344\022\000\034\006\000<\300\344\026\000\034\007\000<\300\344\022\000\034\002\000<\300\344\026\000\234\002\000<\300\344\030\020\034\000\000\000\200\344\000\000\000\000\000\000\000\b\022\000\034\b\000<\300\344\026\000\234\007\000<\300\344\022\000\034\002\000<\300\344\026\000\234\002\000<\300\344\034\020\034\000\000\000\200\344\022\000\034\b\000<\300\344\026\000\234\007\000<\300\344\000\000\000\000\000\000\000\b\022\000\034\002\000<\300\344\026\000\234\002\000<\300\344\030\020\034\000\000\000\200\304\022\000\034\006\000<\300\344\026\000\034\007\000<\300\344\022\000\034\002\000<\300\344\026\000\234\002\000<\300\344\000\000\000\000\000\000\000\b\034\020\034\000\000\000\200\304\022\000\234\005\000<\300\344\026\000\234\006\000<\300\344\022\000\034\002\000<\300\344\026\000\234\002\000<\300\344,\020\034\000\000\000\200\304\022$\234\177\000\000\204\340\000\000\000\000\000\000\000\b\026(\234\177\000@\200\340\022\000\034\002\000<\300\344\026\000\234\002\000<\300\344\022\000\034\002\000<\300\344\026\000\234\002\000<\300\344\020\020\034\000\000\000\200\304\022\000\034\002\000<\300\344\000\000\000\274\000\000\000\b\026\000\234\005\000<\300\344\036\000\234\003\000<\300\344&\000\034\003\000<\300\344<\000\034\000\000\000\000\031\021\004\034h\000\000\000@\022(\034\002\000\000\000\346\022\000\034\002\000<\300\344\000\000\000\000\000\274\000\b\026\000\234\177\000<\300\344&\000\034\002\000<\300\344*\000\234\002\000<\300\344&\000\234\004\000<\300\344*\000\034\005\000<\300\344\026\000\234\004\000<\300d\022\000\234\177\000<\300\344\000\000\000\000\000\000\000\b\026$\234\002\000\020\000\342\022(\034\002\000\020\000\3422\000\034\003\000<\300\344\036\000\234\003\000<\300\344%0\034\020\000\036\300\307\031\034\034\020\000\000@\301*\024\234\177\000\000\204\340\000\000\000\000\000\000\000\b.\020\234\177\000@\200\340((\034\002\000\000\000!.,\234\177\000\020\000\342\032\000\034\005\000<\300\344\036\000\234\005\000<\300\344&\000\234\004\000<\300\344\032\000\034\003\000<\300\344\000\000\000\000\000\000\000\b\036\000\234\003\000<\300\344$\030\034\000\000\000\200\344\032\024\234\177\000\000\204\340\036\020\234\177\000@\200\340\032\000\034\003\000<\300\344\036\000\234\003\000<\300\344&\000\034\006\000<\300\344\000\000\000\000\000\000\000\b\032\000\034\003\000<\300\344\036\000\234\003\000<\300\344$\030\034\000\000\000\200\344\032\000\034\005\000<\300\344\036\000\234\005\000<\300\344\032\000\034\003\000<\300\344\036\000\234\003\000<\300\344\000\000\000\000\000\000\000\b\030\030\034\000\000\000\200\304\032(\034\003\000\000\000\346\032\000\034\003\000<\300\344*\000\234\177\000<\300\344)\030\034\020\000*\300\267%\030\034\020\000\000@\302\032\024\234\177\000\000\204\340\000\000\000\000\000\000\000\b\036\020\234\177\000@\200\340\032\000\034\003\000<\300\344\036\000\234\003\000<\300\344\032\000\034\003\000<\300\344\036\000\234\003\000<\300\344\030\030\034\000\000\000\200\304\032(\034\003\000\000\000\346\000\000\000\000\000\000\000\b\032\000\034\003\000<\300\344\036\000\234\177\000<\300\344\032$\034\003\000\020\000\342\036(\234\003\000\020\000\342\032\000\034\003\000<\300\344\036\000\234\003\000<\300\344)\024\034\004\000\000\200@\000\000\000\000\000\000\000\b.\020\234\177\000@\200\340*\000\034\005\000<\300\344.\000\234\005\000<\300\344\032\000\034\003\000<\300\344\036\000\234\003\000<\300\344*\000\034\005\000<\300\344.\000\234\005\000<\300\344\000\000\000\000\000\000\000\b\030(\034\000\000\000\200\345\031\024\034\004\000\000\200@\036\020\234\177\000@\200\340\032\000\034\003\000<\300\344\036\000\234\003\000<\300\344\032\000\034\003\000<\300\344\036\000\234\003\000<\300\344\000\000\000\000\000\274\000\b\020\030\034\000\000\000\200\305\032\000\034\002\000<\300\344\026\000\234\002\000<\300\344\022\000\034\003\000<\300\344\026\000\234\002\000<\300\344<\000\034\000\000\000\000\031\022\004\034h\000\000\240z\000\000\274\000\000\274\000\b\036\004\034j\000\000\240z\032\004\034l\000\000\240z&\004\034n\000\000\240z\022\004\034h\000\000 z\022\000\034\002\000<\300\344<\000\034\000\000\000\000\031<\000\034\374\377\177\000\022\274\000\000\000\274\274\000\b\006\000\234\b\000<\300d\005\004\034\360\377\377\177@\002\000\234\033\000\000@\206\036\004\034\000\000\034`\333<\000\000\004\000\000\000\022\000\003\200\000\000\000\000\000\002\004\234\177\000\000\200\340\000\000\000\000\000\000\000\b\002(\034\000\000\000\000\346\n\000\034\000\000<\300\344\016\000\234\177\000<\300\344\002\000\034\001\000<\300\344\022\000\234\001\000<\300\344\016\000\034\000\000<\300\344\022\000\034\002\000<\300\344\274\000\000\000\000\274\000\b\002\000\234\004\000<\300d\n\000\234\177\000<\300\344\002\f\034\000\000\020\000\342\n\020\034\001\000\020\000\342\016\300\037\252\000\000\000t\016\f\034\000\000\000\240|\016\000\234\001\000<\300\344\000\274\000\000\274\000\000\b\022\300\037\250\000\000\000t\022\020\034\000\000\000\240|\022\000\034\002\000<\300\344\032\300\037\244\000\000\000t\032\030\034\000\000\000\250|\026\000\034\003\000<\300\344*\000\234\003\000<\300\344\000\000\000\274\000\000\000\b\026\000\234\002\000<\300\344*\000\034\005\000<\300\344\032\300\037\240\000\000\000t\032\030\034\000\000\000\250|\"\000\034\003\000<\300\344&\000\234\003\000<\300\344\"\000\034\004\000<\300\344\000\000\000\000\000\000\000\b&\000\234\004\000<\300\344\032\000\234\002\000<\300\344\036\000\034\005\000<\300\344\032\000\034\003\000<\300\344\036\000\234\003\000<\300\344\032\000\034\003\000<\300\344\036\000\234\003\000<\300\344\000\000\000\000\000\000\000\b\"\000\034\004\000<\300\344&\000\234\004\000<\300\344\"\000\034\004\000<\300\344&\000\234\004\000<\300\344\"\000\034\004\000<\300\344&\000\234\004\000<\300\344*\000\234\177\000\000\204\340\000\000\000\000\000\000\000\b.\b\234\177\000@\200\340*\000\034\005\000<\300\344.\000\234\005\000<\300\344*\000\034\005\000<\300\344.\000\234\005\000<\300\344 (\034\000\000\000\200\345!\000\034\004\000\000\200@\000\000\000\000\000\000\000\b&\b\234\177\000@\200\340\"\000\034\004\000<\300\344&\000\234\004\000<\300\344\"\000\034\004\000<\300\344&\000\234\004\000<\300\344\030 \034\000\000\000\200\345\031\000\034\b\000\000\200@\000\000\000\000\000\000\000\b\036\b\234\177\000@\200\340\032\000\034\003\000<\300\344\036\000\234\003\000<\300\344\032\000\034\003\000<\300\344\036\000\234\003\000<\300\344\020\030\034\000\000\000\200\344\021\000\034\n\000\000\200@\000\000\000\000\000\000\000\b\026\b\234\177\000@\200\340\022\000\034\002\000<\300\344\026\000\234\002\000<\300\344\022\000\034\002\000<\300\344\026\000\234\002\000<\300\344\f\020\034\000\000\000\200\344\016\000\234\020\000\000@\206\000\274\000\000\000\000\000\b\016\000\234\001\000<\300\344\022\000\034\005\000<\300d\026\000\234\022\000\000@\206\026\000\234\002\000<\300\344\022\020\234\002\000\030\300\341\016\f\034\002\000\000\200\340\021\000\034\f\000\000\200@\000\000\000\000\000\000\000\b\026\b\234\177\000@\200\340\022\000\034\002\000<\300\344\026\000\234\002\000<\300\344\022\000\034\002\000<\300\344\026\000\234\002\000<\300\344\f\020\034\000\000\000\200\344\021\000\034\f\000\000\200@\000\000\000\000\000\000\000\b\026\b\234\177\000@\200\340\022\000\034\002\000<\300\344\026\000\234\002\000<\300\344\022\000\034\002\000<\300\344\026\000\234\002\000<\300\344\f\020\034\000\000\000\200\304\021\000\034\b\000\000\200@\000\000\000\000\000\000\000\b\026\b\234\177\000@\200\340\022\000\034\002\000<\300\344\026\000\234\002\000<\300\344\022\000\034\002\000<\300\344\026\000\234\002\000<\300\344\020\020\034\000\000\000\200\304\036\f\034\002\000\034h\333\000\000\274\274\000\000\000\b\002\000\034\000\000<\300\344\n\000\034\001\000<\300\344<\000\000P\002\000\000\022<\000\034\000\000\000\000\022\016\000\234\177\000<\300\344\021\000\034\016\000\000\200@\026\b\234\177\000@\200\340\000\000\000\000\000\000\274\b\022\000\034\002\000<\300\344\026\000\234\002\000<\300\344\022\000\034\002\000<\300\344\026\000\234\002\000<\300\344\f\020\034\000\000\000\200\344\000\000\000 \002\000\200\024<\000\034\000\000\000\000\022\000\000\000\000\000\000\000\b\021\000\034\016\000\000\200@\026\b\234\177\000@\200\340\022\000\034\002\000<\300\344\026\000\234\002\000<\300\344\022\000\034\002\000<\300\344\026\000\234\002\000<\300\344\f\020\034\000\000\000\200\304\000\000\000\000\000\000\000\b\021\000\034\n\000\000\200@\026\b\234\177\000@\200\340\022\000\034\002\000<\300\344\026\000\234\002\000<\300\344\022\000\034\002\000<\300\344\026\000\234\002\000<\300\344\020\020\034\000\000\000\200\304\000\274\274\000\000\000\000\b\036\f\034\002\000\034h\333\002<@\000\000\000\200\205<\000\034\000\000\000\000\022\022\000\234\177\000\000\204\340\026\b\234\177\000@\200\340\022\000\034\002\000<\300\344\026\000\234\002\000<\300\344\000\000\000\000\000\000\000\b\022\000\034\002\000<\300\344\026\000\234\002\000<\300\344\030\020\034\000\000\000\200\305\016\000\034\003\000<\300\344\032\000\234\003\000<\300\344\021\000\034\f\000\000\200@\026\b\234\177\000@\200\340\000\000\000\000\000\000\000\b\022\000\034\002\000<\300\344\026\000\234\002\000<\300\344\022\000\034\002\000<\300\344\026\000\234\002\000<\300\344\020\020\034\000\000\000\200\304!\000\034\n\000\000\200@&\b\234\177\000@\200\340\000\000\000\000\000\000\000\b\"\000\034\004\000<\300\344&\000\234\004\000<\300\344\"\000\034\004\000<\300\344&\000\234\004\000<\300\344  \034\000\000\000\200\304\036\020\034\004\000\030\300\341!\000\034\016\000\000\200@\000\000\000\000\000\000\000\b&\b\234\177\000@\200\340\"\000\034\004\000<\300\344&\000\234\004\000<\300\344\"\000\034\004\000<\300\344&\000\234\004\000<\300\344\024 \034\000\000\000\200\304\036\034\234\002\000\000\200\340\000\000\000\000\000\000\000\b\036\350\234\003\000\000\000\346!\034\234\017\000\000H\301&\000\034\004\000<\300\344\"\000\234\003\000<\300\344\036\000\034\004\000<\300\344\"\000\234\004\000<\300\344\036\000\234\003\000<\300\344\000\000\000\000\000\000\000\b\"\000\034\004\000<\300\344!\034\034\001\000\"\300\267\035\034\034\001\000\000@\302\016\f\234\003\000\000\204\340\036\030\034\004\000@\200\340\032\000\234\001\000<\300\344\036\000\234\003\000<\300\344\000\000\000\000\000\000\000\b\032\000\034\003\000<\300\344\036\000\234\003\000<\300\344\f\030\034\000\000\000\200\304!\000\034\004\000\000\200@&\b\234\177\000@\200\340\"\000\034\004\000<\300\344&\000\234\004\000<\300\344\000\000\000\000\000\000\000\b\"\000\034\004\000<\300\344&\000\234\004\000<\300\344\030 \034\000\000\000\200\305\"\000\034\003\000<\300\344&\000\234\003\000<\300\344\031\000\034\b\000\000\200@\036\b\234\177\000@\200\340\000\000\000\000\000\000\000\b\032\000\034\003\000<\300\344\036\000\234\003\000<\300\344\032\000\034\003\000<\300\344\036\000\234\003\000<\300\344\030\030\034\000\000\000\200\304\032\030\234\002\000\030\300\341\032\020\034\003\000\000\200\340\000\000\000\000\000\000\000\b\032\350\034\003\000\000\000\346\021\030\234\017\000\000H\301\026\000\034\002\000<\300\344\022\000\034\003\000<\300\344\032\000\034\002\000<\300\344\026\000\234\002\000<\300\344\022\000\034\003\000<\300\344\000\000\000\000\000\000\000\b\026\000\234\002\000<\300\344\025\020\034\001\000\026\300\267\021\020\034\001\000\000@\302\022 \034\002\000\000\204\340\026$\234\002\000@\200\340\022\000\034\002\000<\300\344\026\000\234\002\000<\300\344\000\000\000\274\000\000\000\b\022\000\034\002\000<\300\344\026\000\234\002\000<\300\344\f\020\034\000\000\000\200\344<\000\034\000\000\000\000\022\021\000\034\016\000\000\200@\026\b\234\177\000@\200\340\022\000\034\002\000<\300\344\000\000\000\000\000\000\000\b\026\000\234\002\000<\300\344\022\000\034\002\000<\300\344\026\000\234\002\000<\300\344\020\020\034\000\000\000\200\304\r\020\234\000\000\000\000@\021\000\034\016\000\000\200@\026\b\234\177\000@\200\340\000\000\000\000\000\270\274\b\022\000\034\002\000<\300\344\026\000\234\002\000<\300\344\022\000\034\002\000<\300\344\026\000\234\002\000<\300\344\f\020\034\000\000\000\200\344<\000\034\344\375\177\000\022<\000\034\000\000\000\000\022\000\274\000\000\000\000\000\b\376\003\234\177\000<\300\344<\000\034\000\000\000\000\030<\000\034\374\377\177\000\022\002<\034\000\000\000\200\205\002<\034\000\000\000\200\205\002<\034\000\000\000\200\205\002<\034\000\000\000\200\205\000\000\000\000\000\000\000\000\000\000\000\000\000\000\000\000\000\000\000\000\000\000\000\000\000\000\000\000\000\000\000\000\000\000\000\000\000\000\000\000\000\000\000\000\000\000\000\000\000\000\000\000\000\000\000\000\000\000\000\000\000\000\000\000\001\000\000\000\003\000\000\000\000\000\000\000\000\000\000\000\000\000\000\000\000\000\000\000@\000\000\000\000\000\000\000\266\001\000\000\000\000\000\000\000\000\000\000\000\000\000\000\001\000\000\000\000\000\000\000\000\000\000\000\000\000\000\000\013\000\000\000\003\000\000\000\000\000\000\000\000\000\000\000\000\000\000\000\000\000\000\000\366\001\000\000\000\000\000\000l\004\000\000\000\000\000\000\000\000\000\000\000\000\000\000\001\000\000\000\000\000\000\000\000\000\000\000\000\000\000\000\023\000\000\000\002\000\000\000\000\000\000\000\000\000\000\000\000\000\000\000\000\000\000\000h\006\000\000\000\000\000\000\020\002\000\000\000\000\000\000\002\000\000\000\020\000\000\000\b\000\000\000\000\000\000\000\030\000\000\000\000\000\000\000)\000\000\000\000\000\000p\000\000\000\000\000\000\000\000\000\000\000\000\000\000\000\000x\b\000\000\000\000\000\000\360\000\000\000\000\000\000\000\003\000\000\000\000\000\000\000\004\000\000\000\000\000\000\000\000\000\000\000\000\000\000\000V\000\000\000\000\000\000p\000\000\000\000\000\000\000\000\000\000\000\000\000\000\000\000h\t\000\000\000\000\000\000\314\000\000\000\000\000\000\000\003\000\000\000\f\000\000\000\004\000\000\000\000\000\000\000\000\000\000\000\000\000\000\000\n\001\000\000\000\000\000p\000\000\000\000\000\000\000\000\000\000\000\000\000\000\000\0004\n\000\000\000\000\000\000t\000\000\000\000\000\000\000\003\000\000\000\r\000\000\000\004\000\000\000\000\000\000\000\000\000\000\000\000\000\000\000\247\001\000\000\013\000\000p\000\000\000\000\000\000\000\000\000\000\000\000\000\000\000\000\250\n\000\000\000\000\000\000\330\000\000\000\000\000\000\000\000\000\000\000\000\000\000\000\b\000\000\000\000\000\000\000\b\000\000\000\000\000\000\000w\001\000\000\t\000\000\000\000\000\000\000\000\000\000\000\000\000\000\000\000\000\000\000\200\013\000\000\000\000\000\000\020\000\000\000\000\000\000\000\003\000\000\000\n\000\000\000\b\000\000\000\000\000\000\000\020\000\000\000\000\000\000\000\246\000\000\000\001\000\000\000\002\000\000\000\000\000\000\000\000\000\000\000\000\000\000\000\220\013\000\000\000\000\000\000\000\021\000\000\000\000\000\000\000\000\000\000\000\000\000\000\004\000\000\000\000\000\000\000\000\000\000\000\000\000\000\000\277\000\000\000\001\000\000\000\002\000\000\000\000\000\000\000\000\000\000\000\000\000\000\000\220\034\000\000\000\000\000\000|\001\000\000\000\000\000\000\000\000\000\000\f\000\000\000\004\000\000\000\000\000\000\000\000\000\000\000\000\000\000\000P\001\000\000\001\000\000\000\002\000\000\000\000\000\000\000\000\000\000\000\000\000\000\000\f\036\000\000\000\000\000\000X\001\000\000\000\000\000\000\000\000\000\000\r\000\000\000\004\000\000\000\000\000\000\000\000\000\000\000\000\000\000\0002\000\000\000\001\000\000\000\006\000\000\000\000\000\000\000\000\000\000\000\000\000\000\000\200\037\000\000\000\000\000\000@(\000\000\000\000\000\000\003\000\000\000\020\000\000\023@\000\000\000\000\000\000\000\000\000\000\000\000\000\000\000\353\000\000\000\001\000\000\000\006\000\000\000\000\000\000\000\000\000\000\000\000\000\000\000\300G\000\000\000\000\000\000\300\b\000\000\000\000\000\000\003\000\000\000\025\000\000\f@\000\000\000\000\000\000\000\000\000\000\000\000\000\000\000\264\000\000\000\b\000\000\000\003\000\000\000\000\000\000\000\000\000\000\000\000\000\000\000\200P\000\000\000\000\000\000\004\000\000\000\000\000\000\000\000\000\000\000\000\000\000\000\001\000\000\000\000\000\000\000\000\000\000\000\000\000\000\000\001\000\001\001H\000\000\000 \017\000\000\000\000\000\000\033\017\000\000@\000\000\000\005\000\007\000#\000\000\000\000\000\000\000\000\000\000\000\021 \000\000\000\000\000\000\000\000\000\000\000\000\000\000\0307\000\000\000\000\000\000\000\000\000\000\000\000\000\000\360 \n\n\n\n.version 7.5\n.target sm_35\n.address_size 64.\000\360\026func _ZN12_GLOBAL__N_110__cuda_tex11_\007\000\360\034_fetchINS0_5__TagILi95EEEf7textureIfLi1EL19:\000\022T\024\000\377\034ReadMode0EEJiEEEvPT0_T1_DpT2_\n(\n.param .b64\206\000e\021_\203\000?_0,\215\000x\0271\215\000/32\215\000lS2\n)\n;*\002\030(\227\000\000\022\000\237_retval0)\245\000\013\360\f9__convertIf6float4E5__runI\225\000IEEfS\020\002\317align 16 .b8Z\0000\003\312\000^0[16]\316\000\013o\000\b\327\000\0001\000\017\333\000\f'14\200\001?_v4\203\001\000\004\221\000\004\240\000^ET_yi\376\002\017d\000?\017\334\002\000/32k\000J\0371-\002\002/64-\002\031\"19\203\000\357handle_to_objI\307\002\024NEEyTZ\004\017n\000J\004f\001\002\373\000\360\016visible .global .texref t_fea?\000\037s%\000\022\217_flipped-\000\nyclusterR\000Tconst\323\002\0214\322\002\025c)\000\205[4352];\nK\000\003\372\002\001'\000\277threadIdx[1#\000\005\217blockDim\"\000\f\017D\000\nDgridC\000\007\270\000\261entry _Z14i\317\003\346_mappingPfS_ii\321\001?u64&\000\006\016\360\002\017.\000\020\007m\005?u32.\000\r\0372.\000\032\2463\n)\n{\n.loc\006\001\0218\006\001!__\025\000\221_depot0[3\226\0012reg\262\002;%SP\017\000\024L\020\000\245pred %p<3>\"\000v32 %r<2\022\000\020f\022\000If<2>E\000\343rd<15>;\n\nmov.uW\000\033,\212\000b;\ncvta\262\000\004%\000\023,\201\000\"ld\373\000\001\372\000o%r2, [\000\001\r\035]6\000\03716\000\017\03126\000\002\273\000\017m\000\020\03717\000\000\017n\000\020#0]\364\000#to\260\002\004=\000 3,\006\000\0232\037\000\n\034\000\0214\034\000\0373;\000\005\0215\037\000\0371;\000\002\0216\034\000Q5;\nst\023\000q[%SP+0]\026\000\0326\026\000\0228\026\000\0224\026\000\"32\026\000!16\027\000\0321\026\000\0222C\000\"2;\340\001\001m\001\000\302\000Xtid.x\025\000\000\273\000\035n\026\000\000\262\0003cta\027\000qul.lo.s\032\000#6,5\000sr5;\nadd\027\000#7,a\000\023r\265\000\005\211\000\0214\211\000\0217\216\001\002]\000%8,\033\000\007\026\000%9,\320\000\222;\nsetp.ge]\0002p1,6\000\365\021%r9;\n@%p1 bra $L__BB0_6;\nbra.uni\023\00051;\n\013\000\027:\327\000[10, 0\240\000\002V\001.10F\000\0262F\000&2:\251\000511,;\000\007\300\000512,{\001\f\301\000#2,8\000\000'\000\001\303\000\0312\303\000\0365}\000\0263}\000\0223}\000\0020\002$7,#\002\b|\000\0373S\001\002(14\223\000\t\307\001315,8\000\000'\000\b4\000\0306\336\000\006\341\001617,7\000\0216\313\002C.s64\036\000\021d\236\001t17;\nshla\004#9,\032\000\0232I\000\002\027\000\000\205\001\002\311\000\000$\000\001{\000\002\243\004\001X\001\000 \000'];\361\000\005o\001\nn\001\0308/\002\n\333\000#9,!\000\002\252\000\006\304\000'20\365\000\0359\304\000\000\302\001\000%\000\t\305\000\002.\000\001\034\000\013\307\000$4,\237\000\000\007\000\0213W\002\000\311\000\001\304\000\001\366\002.f1\330\001\0264\330\001\0274U\002/21w\001\003322,\036\000\f\341\003\002\270\002/22\270\002\n-5:\036\000\0266\036\000\2576:\nret;\n\n}|\007\002\375\0131kmeansPointPfiiiPiS_S_S0_\201\007\017+\000\007\017\206\007\000/323\000\022\03713\000\037\03723\000\037/3,\314\000\036\03743\000\037\03753\000\037\03763\000\037\0377a\b\023i1[136]\016\b\017b\b\017\0346b\b,47b\b911>F\000_rd<42c\b\f\0371c\b\023\005H\007\037[\b\001\022\017\374\007\000\0374<\000\024\0376<\000\000\0373<\000\024\0375\253\b\001\017<\000\024\0314<\000\004\260\007\017w\000\022\017X\t\000\017v\000\025\0372\223\t\000\017;\000\024\017a\t\001\017<\000\025/0]+\t\005\0246\017\t\017+\t\000\0247\025\t\017;\000\003\0248\036\t\017;\000\000\003\213\006\017;\000\005\003\223\006\0373<\000\002\004\342\005\0370>\000\006\0372\033\n\b\005@\006\017>\000\006\0374\036\n\b\002p\0072d14\375\005)64U\t#d18\n\004\025\006/32\f\n\001$36\f\n\b\026\000\0224\"\n\0323Z\000848]\320\006\005\030\000#56\030\000\0321\030\000\0236\212\000\0329\027\000\0227\211\000-d7k\n\006V\n\017m\n\000\037ym\n\t\0061\000\0307\236\n\006,\007$8,3\000\0227\216\000\004\353\000\0228\353\000\0378n\n\000\0208\213\002\n!\n\006\017\013\tV\b\"1,7\000\002,\n\0073\000\02423\000\f\276\000*13\367\t\0074\000\0264\213\013\006\300\000*15\224\t\t\303\000\002h\001)15G\000K6, -\355\001488]\371\b\005\355\000\000\274\t\004F\000\017D\t\001\0303s\013\026us\013\003\364\t\0358u\013=1_1x\b\0261v\013\0331v\013\3039, 213909503)\002\004\257\000D100]\217\t\006\331\000\0362\250\013492]\236\t\fx\000\0262x\000\0372S\t\001(92\366\000\000R\t\004\001\003\017\250\013\002$21Y\t\013\250\013N1_11~\000\005\251\01381_3~\000\0376~\000\003%7,\253\003\013/\002328,8\000\000'\000\f'\001\002\327\001)28'\001\0359'\001#11(\001\013h\001%96\027\000\f\301\000\0264\301\000\b\222\n530,;\000\007\301\000(31\301\000\n?\001#4,8\000\000'\000\001?\001\0314?\001\0367}\000\0265}\000\0305}\000\0375\262\002\002/36\224\000\003\0307\311\002\tU\001338,8\000\000'\000\bn\003339,i\000\000&\000\fF\001\002/\001\0243\226\002\002\216\005\000\227\002\b\272\0235shr\033\000$1,\"\000\0233(\f\004\032\000\"2,\324\b\0201\275\001$or\034\t423,\037\000\b\354\003\000\031\000\022]\032\000\013\332\003\0231\363\0137d20\374\000640,\264\000\007\024\001Dd24,O\000\t\027\000&5,O\000\n\251\000\0236\251\000\0310\247\000$7,\035\000\013\247\000\0237\216\000\b\027\000\006\274\020\0332\233\006\002\274\000\0304\273\000\020d\362\002\003K\000\t\027\000\0279\344\016\007\241\000$30J\001\0306\242\000\000\222\002\003\036\000\n\242\000#31\213\000\f\336\001\0236\030\000\0279v\000\0374g\016\002Dd32,L\000\t\027\016433,\037\000)321\000%4,f\000\t\246\000\001i\002\0058\000\0324\332\000\0256$\002f;\n{ \n\tj\013Ctemp6\tEreg;\024\f\000W\000\001\013\000\002\001\004\001\013\000\001\025\000\022[\026\000\004\210\001/364\000\000\03714\000\002\02514\000\02754\000\"324\000\03024\000#324\000\02324\000\0204\300\b1all\335\003\037\n\244\032dQ, \n(\n\227\00020, \t\000\0241\t\000\2252\n);\n} \n\to\020\006\t\003\b\362\001642,s\005\b\030\000\0303{\004\006G\004344,6\000\000$\000\rT\020!37\031\000\0324=\002$8,\034\000\004\027\b\003\b\002'9,\240\027\003\022\n\001\304\027\004\"\000\"40;\000\0319\214\020\000\275\002\007\035\000\0278U\021\0226\300\002\0214\300\002Sub.rn\031\000\"7,\004\0017%f6\273\020\001\020\001\001\323\001'f7F\000&8,\034\000\007\027\000&9,v\006V;\nfma_\000\001J\t\0008\000\003\005\000\0339e\000\002\250\006>f10\024\006\0266\024\006\0276\024\006/45\202\001\004#6,\036\000\013#\021\003\364\006/46\364\006\n+7:\202\022\005\320\000\t\260\000$04\322\021\005\376\000\006*\002'4]\027\000&3,\333\b\005\"\007\022u\035\0002p5,9\0001%f3!\007\0315!\007\017\236\007\000\0268\252\000\0278\252\000\0314|\000\n\252\000\001R\t\030f\325\023(32\215\b\017/\n\000.32z\000\0269z\000-9:\036\000&10\037\000710:l\000\0303l\000\006\247\001\000\031\005\002\036\000\f\247\001\001\n\002?r34\332\t\n/11\204\000\000\b \000\t\373\t\0373?\b\002/24\361\n\007#3,8\000\000'\000\001\233\001\0313\233\001\0371\237\000\000'13\200\000\t\375\t%5,_\001\002\200\000\002\276\003\005]\025\0314\\\004\032d\241\013\007*\004\002\306\024\001 \000\0322~\024$9,Q\000\000\007\000\b\342\006\000\035\000\001R\001/25\263\000\000\007\372\002&14\000\024\017\374!j\031(\242\006\017\341 k/0,\215\000x)1,\210\007\017\373!o\f^\024.16_\024Y2[64]\t\024\017^\024\007\021b\000\003-<3K\024)5>3\000_rd<21K\024\f\0372\256\034\030\002\251\022\017N\001j\017,\024\001\017\226\000n\0371\325\023\000\017,\001o\"0]\337\004)64c\f\0311\202\r\003\240\035\r\200\r\"4,\b\002\t}\r#5,\033\000\n2\f$5]\b\024\005\025\000\006x\035\0372x\035\005\006\310\005\003m\t\0315\335\005\0277Y\f\007\230\000\0238\230\000\0314\231\000\0054\033\n\231\000$9]\374\024\b\203\000\004\255\023\0307o\000\000y\t\0023\000\nJ\006\004\306\024\f\261\f(12\224\006\006\212\000\004\271\024\0038\000\017\231\f>*134\000\003\017$\007G\f\024(\"$?, \n\266#L\007:\f'\n)\003\003\026b\244\025\023[\216\000\001\226\016\003I\f\006m\027\005\362\r\017%\001<\02744\000/32\276\r\000+32\276\r\02622\000\t\244\005\007\305&\017d\001\"\017\013&$\017\224\r\001\tc\001!v4\365\005\021{~\013\004\034\013\000\005\000/4}u\001\000\b\352\n$32\223\013\007W\003#16X\003)32\316\002$7,\036\000\02740\013\000\031\000\001E\000\n-\000\0258-\000\0328-\000#8]\273\013\007-\000\006\212\t*12.\000\0279\211\013\0071\r\001\032\000\007\025\000\004\262\003)18\026\000$1,\241\000\b\026\000\0302\177\023\017m\002\023\t\007\002\001\024\000\003\006\002*st\204\001\b}\002\022{l\000\002\210\000\002\244\000J%f9}\217\002\017\264\003\013\017\253)/\017\227\003\005\003\f\001\0373\226\003\004$64\214\023\005G\022\007\227\001\003\337\016\000\200\004\n\376\n\037(\320*I\037(\317*T\037{\366%\r\005\222\035\025b\337\007\017\205\0007\016\244\001\016=\b\017_\000(\b\264\002\000`\000\030[\246\001$+0\017\004\017\327\001\004\017\331+a\016\333\f\017\330+\264\017\n\f\021\0374\312(\030\037b\n\f\004\0359\301\002\0377\b\f\f\0374\b\f\034\017*\001J\030]s\000\005q\003\017t\000J\f.\013&16/\013\007=\n\003D\036\n>\007/3,\003\030\000#4,\033\000\0364C\013\0333Y\013\0246\026\000\000\f\007(ld\332\f\003\214\000\002\027\000\t9\t\02020\016\203\n\ttex.1d\215\006\0006\022\037\t\025\b\004\002Q\000Q{%r2}9\000\b\025\b\005\005\004\007\362\005\0244\343\007\007\024\000\0245\312\007\007\024\000\0356\260\007#5,\031\000\016R\025\0305\024\000#7,i\000\007\024\000\0328\177\006\nj\007\r\271\004\023{(\025\"7,c\000O%f5}\241\006\007\0376D/\\\016\307\004\017m\000H\007C/\017\316$\020\0205\276\005\t$\004\017e\004\b\004\372,\017L\020\r\0375D\004\023\016\321\003\017\023\001L\031]\363\016#4,\177\000)32\306\003/5,\306\003\000\002\232\003\0245\000\013\002\b\004\003\364\002\rU,\02503\004\013\310\016\002\f\003\007X\016#8,\034\000(32-\000\0279\375\002\006\204\000\000\303\003\0043\000\0209\272\003\007\210\b\0232{\017\022 \321\003\005\277\004\006~\017\006O\004\0022\013\003T\017\n@\r\016\022\b\000/\000\260;\nret;\n\n}\n\000\000\000\000\000\000"
	.size	.L__unnamed_6, 25593

	.type	__cuda_fatbin_wrapper,@object   # @__cuda_fatbin_wrapper
	.section	.nvFatBinSegment,"aw",@progbits
	.p2align	3, 0x90
__cuda_fatbin_wrapper:
	.long	1180844977                      # 0x466243b1
	.long	1                               # 0x1
	.quad	.L__unnamed_6
	.quad	0
	.size	__cuda_fatbin_wrapper, 24

	.type	__cuda_gpubin_handle,@object    # @__cuda_gpubin_handle
	.local	__cuda_gpubin_handle
	.comm	__cuda_gpubin_handle,8,8
	.section	.init_array,"aw",@init_array
	.p2align	3, 0x90
	.quad	_GLOBAL__sub_I_kmeans_cuda.cu
	.quad	__cuda_module_ctor
	.ident	"clang version 16.0.0 (https://github.com/llvm/llvm-project.git 159fb378f779ac79f7d456ea233892ad526b56d8)"
	.section	".note.GNU-stack","",@progbits
	.addrsig
	.addrsig_sym __cxx_global_var_init
	.addrsig_sym __cxx_global_var_init.1
	.addrsig_sym __cxx_global_var_init.2
	.addrsig_sym _Z29__device_stub__invert_mappingPfS_ii
	.addrsig_sym __cudaPopCallConfiguration
	.addrsig_sym cudaLaunchKernel
	.addrsig_sym _Z26__device_stub__kmeansPointPfiiiPiS_S_S0_
	.addrsig_sym __cxx_global_var_init.3
	.addrsig_sym __cxx_global_var_init.4
	.addrsig_sym sqrt
	.addrsig_sym malloc
	.addrsig_sym cudaMalloc
	.addrsig_sym cudaMemcpy
	.addrsig_sym __cudaPushCallConfiguration
	.addrsig_sym free
	.addrsig_sym cudaFree
	.addrsig_sym cudaSetDevice
	.addrsig_sym setup
	.addrsig_sym _Z21cudaCreateChannelDescIfE21cudaChannelFormatDescv
	.addrsig_sym cudaBindTexture
	.addrsig_sym printf
	.addrsig_sym _ZL18cudaMemcpyToSymbolIA11_cE9cudaErrorRKT_PKvmm14cudaMemcpyKind
	.addrsig_sym cudaThreadSynchronize
	.addrsig_sym cudaCreateChannelDesc
	.addrsig_sym cudaMemcpyToSymbol
	.addrsig_sym _GLOBAL__sub_I_kmeans_cuda.cu
	.addrsig_sym __cuda_register_globals
	.addrsig_sym __cudaRegisterFunction
	.addrsig_sym __cudaRegisterVar
	.addrsig_sym __cudaRegisterTexture
	.addrsig_sym __cudaRegisterFatBinary
	.addrsig_sym __cuda_module_ctor
	.addrsig_sym __cudaRegisterFatBinaryEnd
	.addrsig_sym __cudaUnregisterFatBinary
	.addrsig_sym __cuda_module_dtor
	.addrsig_sym atexit
	.addrsig_sym t_features
	.addrsig_sym t_features_flipped
	.addrsig_sym t_clusters
	.addrsig_sym c_clusters
	.addrsig_sym num_threads_perdim
	.addrsig_sym num_blocks_perdim
	.addrsig_sym num_threads
	.addrsig_sym num_blocks
	.addrsig_sym membership_new
	.addrsig_sym feature_d
	.addrsig_sym feature_flipped_d
	.addrsig_sym membership_d
	.addrsig_sym block_new_centers
	.addrsig_sym clusters_d
	.addrsig_sym block_clusters_d
	.addrsig_sym block_deltas_d
	.addrsig_sym .L__unnamed_6
	.addrsig_sym __cuda_fatbin_wrapper
	.addrsig_sym __cuda_gpubin_handle
