	.text
	.file	"mergesort_kernel.cu"
	.section	.text.startup,"ax",@progbits
	.p2align	4, 0x90                         # -- Begin function __cxx_global_var_init
	.type	__cxx_global_var_init,@function
__cxx_global_var_init:                  # @__cxx_global_var_init
	.cfi_startproc
# %bb.0:
	pushq	%rbp
	.cfi_def_cfa_offset 16
	.cfi_offset %rbp, -16
	movq	%rsp, %rbp
	.cfi_def_cfa_register %rbp
	leaq	tex(%rip), %rdi
	xorl	%edx, %edx
	movl	$1, %ecx
	movl	%edx, %esi
	callq	_ZN7textureI6float4Li1EL19cudaTextureReadMode0EEC2Ei21cudaTextureFilterMode22cudaTextureAddressMode@PLT
	popq	%rbp
	.cfi_def_cfa %rsp, 8
	retq
.Lfunc_end0:
	.size	__cxx_global_var_init, .Lfunc_end0-__cxx_global_var_init
	.cfi_endproc
                                        # -- End function
	.section	.text._ZN7textureI6float4Li1EL19cudaTextureReadMode0EEC2Ei21cudaTextureFilterMode22cudaTextureAddressMode,"axG",@progbits,_ZN7textureI6float4Li1EL19cudaTextureReadMode0EEC2Ei21cudaTextureFilterMode22cudaTextureAddressMode,comdat
	.weak	_ZN7textureI6float4Li1EL19cudaTextureReadMode0EEC2Ei21cudaTextureFilterMode22cudaTextureAddressMode # -- Begin function _ZN7textureI6float4Li1EL19cudaTextureReadMode0EEC2Ei21cudaTextureFilterMode22cudaTextureAddressMode
	.p2align	4, 0x90
	.type	_ZN7textureI6float4Li1EL19cudaTextureReadMode0EEC2Ei21cudaTextureFilterMode22cudaTextureAddressMode,@function
_ZN7textureI6float4Li1EL19cudaTextureReadMode0EEC2Ei21cudaTextureFilterMode22cudaTextureAddressMode: # @_ZN7textureI6float4Li1EL19cudaTextureReadMode0EEC2Ei21cudaTextureFilterMode22cudaTextureAddressMode
	.cfi_startproc
# %bb.0:
	pushq	%rbp
	.cfi_def_cfa_offset 16
	.cfi_offset %rbp, -16
	movq	%rsp, %rbp
	.cfi_def_cfa_register %rbp
	subq	$48, %rsp
	movq	%rdi, -8(%rbp)
	movl	%esi, -12(%rbp)
	movl	%edx, -16(%rbp)
	movl	%ecx, -20(%rbp)
	movq	-8(%rbp), %rax
	movq	%rax, -48(%rbp)                 # 8-byte Spill
	movl	-12(%rbp), %ecx
	movl	%ecx, (%rax)
	movl	-16(%rbp), %ecx
	movl	%ecx, 4(%rax)
	movl	-20(%rbp), %ecx
	movl	%ecx, 8(%rax)
	movl	-20(%rbp), %ecx
	movl	%ecx, 12(%rax)
	movl	-20(%rbp), %ecx
	movl	%ecx, 16(%rax)
	leaq	-40(%rbp), %rdi
	callq	_Z21cudaCreateChannelDescI6float4E21cudaChannelFormatDescv@PLT
	movq	-48(%rbp), %rax                 # 8-byte Reload
	movq	-40(%rbp), %rcx
	movq	%rcx, 20(%rax)
	movq	-32(%rbp), %rcx
	movq	%rcx, 28(%rax)
	movl	-24(%rbp), %ecx
	movl	%ecx, 36(%rax)
	movl	$0, 40(%rax)
	addq	$48, %rsp
	popq	%rbp
	.cfi_def_cfa %rsp, 8
	retq
.Lfunc_end1:
	.size	_ZN7textureI6float4Li1EL19cudaTextureReadMode0EEC2Ei21cudaTextureFilterMode22cudaTextureAddressMode, .Lfunc_end1-_ZN7textureI6float4Li1EL19cudaTextureReadMode0EEC2Ei21cudaTextureFilterMode22cudaTextureAddressMode
	.cfi_endproc
                                        # -- End function
	.section	.text.startup,"ax",@progbits
	.p2align	4, 0x90                         # -- Begin function __cxx_global_var_init.1
	.type	__cxx_global_var_init.1,@function
__cxx_global_var_init.1:                # @__cxx_global_var_init.1
	.cfi_startproc
# %bb.0:
	pushq	%rbp
	.cfi_def_cfa_offset 16
	.cfi_offset %rbp, -16
	movq	%rsp, %rbp
	.cfi_def_cfa_register %rbp
	leaq	txt(%rip), %rdi
	xorl	%edx, %edx
	movl	$1, %ecx
	movl	%edx, %esi
	callq	_ZN7textureIfLi1EL19cudaTextureReadMode0EEC2Ei21cudaTextureFilterMode22cudaTextureAddressMode@PLT
	popq	%rbp
	.cfi_def_cfa %rsp, 8
	retq
.Lfunc_end2:
	.size	__cxx_global_var_init.1, .Lfunc_end2-__cxx_global_var_init.1
	.cfi_endproc
                                        # -- End function
	.section	.text._ZN7textureIfLi1EL19cudaTextureReadMode0EEC2Ei21cudaTextureFilterMode22cudaTextureAddressMode,"axG",@progbits,_ZN7textureIfLi1EL19cudaTextureReadMode0EEC2Ei21cudaTextureFilterMode22cudaTextureAddressMode,comdat
	.weak	_ZN7textureIfLi1EL19cudaTextureReadMode0EEC2Ei21cudaTextureFilterMode22cudaTextureAddressMode # -- Begin function _ZN7textureIfLi1EL19cudaTextureReadMode0EEC2Ei21cudaTextureFilterMode22cudaTextureAddressMode
	.p2align	4, 0x90
	.type	_ZN7textureIfLi1EL19cudaTextureReadMode0EEC2Ei21cudaTextureFilterMode22cudaTextureAddressMode,@function
_ZN7textureIfLi1EL19cudaTextureReadMode0EEC2Ei21cudaTextureFilterMode22cudaTextureAddressMode: # @_ZN7textureIfLi1EL19cudaTextureReadMode0EEC2Ei21cudaTextureFilterMode22cudaTextureAddressMode
	.cfi_startproc
# %bb.0:
	pushq	%rbp
	.cfi_def_cfa_offset 16
	.cfi_offset %rbp, -16
	movq	%rsp, %rbp
	.cfi_def_cfa_register %rbp
	subq	$48, %rsp
	movq	%rdi, -8(%rbp)
	movl	%esi, -12(%rbp)
	movl	%edx, -16(%rbp)
	movl	%ecx, -20(%rbp)
	movq	-8(%rbp), %rax
	movq	%rax, -48(%rbp)                 # 8-byte Spill
	movl	-12(%rbp), %ecx
	movl	%ecx, (%rax)
	movl	-16(%rbp), %ecx
	movl	%ecx, 4(%rax)
	movl	-20(%rbp), %ecx
	movl	%ecx, 8(%rax)
	movl	-20(%rbp), %ecx
	movl	%ecx, 12(%rax)
	movl	-20(%rbp), %ecx
	movl	%ecx, 16(%rax)
	leaq	-40(%rbp), %rdi
	callq	_Z21cudaCreateChannelDescIfE21cudaChannelFormatDescv@PLT
	movq	-48(%rbp), %rax                 # 8-byte Reload
	movq	-40(%rbp), %rcx
	movq	%rcx, 20(%rax)
	movq	-32(%rbp), %rcx
	movq	%rcx, 28(%rax)
	movl	-24(%rbp), %ecx
	movl	%ecx, 36(%rax)
	movl	$0, 40(%rax)
	addq	$48, %rsp
	popq	%rbp
	.cfi_def_cfa %rsp, 8
	retq
.Lfunc_end3:
	.size	_ZN7textureIfLi1EL19cudaTextureReadMode0EEC2Ei21cudaTextureFilterMode22cudaTextureAddressMode, .Lfunc_end3-_ZN7textureIfLi1EL19cudaTextureReadMode0EEC2Ei21cudaTextureFilterMode22cudaTextureAddressMode
	.cfi_endproc
                                        # -- End function
	.text
	.globl	_Z29__device_stub__mergeSortFirstP6float4i # -- Begin function _Z29__device_stub__mergeSortFirstP6float4i
	.p2align	4, 0x90
	.type	_Z29__device_stub__mergeSortFirstP6float4i,@function
_Z29__device_stub__mergeSortFirstP6float4i: # @_Z29__device_stub__mergeSortFirstP6float4i
	.cfi_startproc
# %bb.0:
	pushq	%rbp
	.cfi_def_cfa_offset 16
	.cfi_offset %rbp, -16
	movq	%rsp, %rbp
	.cfi_def_cfa_register %rbp
	subq	$128, %rsp
	movq	%rdi, -8(%rbp)
	movl	%esi, -12(%rbp)
	leaq	-8(%rbp), %rax
	movq	%rax, -112(%rbp)
	leaq	-12(%rbp), %rax
	movq	%rax, -104(%rbp)
	leaq	-24(%rbp), %rdi
	leaq	-40(%rbp), %rsi
	leaq	-48(%rbp), %rdx
	leaq	-56(%rbp), %rcx
	callq	__cudaPopCallConfiguration@PLT
	movq	-48(%rbp), %r10
	movq	-56(%rbp), %rax
	movq	-24(%rbp), %rcx
	movq	%rcx, -72(%rbp)
	movl	-16(%rbp), %ecx
	movl	%ecx, -64(%rbp)
	movq	-72(%rbp), %rsi
	movl	-64(%rbp), %edx
	movq	-40(%rbp), %rcx
	movq	%rcx, -88(%rbp)
	movl	-32(%rbp), %ecx
	movl	%ecx, -80(%rbp)
	movq	-88(%rbp), %rcx
	movl	-80(%rbp), %r8d
	movq	_Z29__device_stub__mergeSortFirstP6float4i@GOTPCREL(%rip), %rdi
	leaq	-112(%rbp), %r9
	movq	%r10, (%rsp)
	movq	%rax, 8(%rsp)
	callq	cudaLaunchKernel@PLT
# %bb.1:
	addq	$128, %rsp
	popq	%rbp
	.cfi_def_cfa %rsp, 8
	retq
.Lfunc_end4:
	.size	_Z29__device_stub__mergeSortFirstP6float4i, .Lfunc_end4-_Z29__device_stub__mergeSortFirstP6float4i
	.cfi_endproc
                                        # -- End function
	.globl	_Z28__device_stub__mergeSortPassP6float4ii # -- Begin function _Z28__device_stub__mergeSortPassP6float4ii
	.p2align	4, 0x90
	.type	_Z28__device_stub__mergeSortPassP6float4ii,@function
_Z28__device_stub__mergeSortPassP6float4ii: # @_Z28__device_stub__mergeSortPassP6float4ii
	.cfi_startproc
# %bb.0:
	pushq	%rbp
	.cfi_def_cfa_offset 16
	.cfi_offset %rbp, -16
	movq	%rsp, %rbp
	.cfi_def_cfa_register %rbp
	subq	$144, %rsp
	movq	%rdi, -8(%rbp)
	movl	%esi, -12(%rbp)
	movl	%edx, -16(%rbp)
	leaq	-8(%rbp), %rax
	movq	%rax, -128(%rbp)
	leaq	-12(%rbp), %rax
	movq	%rax, -120(%rbp)
	leaq	-16(%rbp), %rax
	movq	%rax, -112(%rbp)
	leaq	-32(%rbp), %rdi
	leaq	-48(%rbp), %rsi
	leaq	-56(%rbp), %rdx
	leaq	-64(%rbp), %rcx
	callq	__cudaPopCallConfiguration@PLT
	movq	-56(%rbp), %r10
	movq	-64(%rbp), %rax
	movq	-32(%rbp), %rcx
	movq	%rcx, -80(%rbp)
	movl	-24(%rbp), %ecx
	movl	%ecx, -72(%rbp)
	movq	-80(%rbp), %rsi
	movl	-72(%rbp), %edx
	movq	-48(%rbp), %rcx
	movq	%rcx, -96(%rbp)
	movl	-40(%rbp), %ecx
	movl	%ecx, -88(%rbp)
	movq	-96(%rbp), %rcx
	movl	-88(%rbp), %r8d
	movq	_Z28__device_stub__mergeSortPassP6float4ii@GOTPCREL(%rip), %rdi
	leaq	-128(%rbp), %r9
	movq	%r10, (%rsp)
	movq	%rax, 8(%rsp)
	callq	cudaLaunchKernel@PLT
# %bb.1:
	addq	$144, %rsp
	popq	%rbp
	.cfi_def_cfa %rsp, 8
	retq
.Lfunc_end5:
	.size	_Z28__device_stub__mergeSortPassP6float4ii, .Lfunc_end5-_Z28__device_stub__mergeSortPassP6float4ii
	.cfi_endproc
                                        # -- End function
	.globl	_Z24__device_stub__mergepackPfS_ # -- Begin function _Z24__device_stub__mergepackPfS_
	.p2align	4, 0x90
	.type	_Z24__device_stub__mergepackPfS_,@function
_Z24__device_stub__mergepackPfS_:       # @_Z24__device_stub__mergepackPfS_
	.cfi_startproc
# %bb.0:
	pushq	%rbp
	.cfi_def_cfa_offset 16
	.cfi_offset %rbp, -16
	movq	%rsp, %rbp
	.cfi_def_cfa_register %rbp
	subq	$128, %rsp
	movq	%rdi, -8(%rbp)
	movq	%rsi, -16(%rbp)
	leaq	-8(%rbp), %rax
	movq	%rax, -112(%rbp)
	leaq	-16(%rbp), %rax
	movq	%rax, -104(%rbp)
	leaq	-32(%rbp), %rdi
	leaq	-48(%rbp), %rsi
	leaq	-56(%rbp), %rdx
	leaq	-64(%rbp), %rcx
	callq	__cudaPopCallConfiguration@PLT
	movq	-56(%rbp), %r10
	movq	-64(%rbp), %rax
	movq	-32(%rbp), %rcx
	movq	%rcx, -80(%rbp)
	movl	-24(%rbp), %ecx
	movl	%ecx, -72(%rbp)
	movq	-80(%rbp), %rsi
	movl	-72(%rbp), %edx
	movq	-48(%rbp), %rcx
	movq	%rcx, -96(%rbp)
	movl	-40(%rbp), %ecx
	movl	%ecx, -88(%rbp)
	movq	-96(%rbp), %rcx
	movl	-88(%rbp), %r8d
	movq	_Z24__device_stub__mergepackPfS_@GOTPCREL(%rip), %rdi
	leaq	-112(%rbp), %r9
	movq	%r10, (%rsp)
	movq	%rax, 8(%rsp)
	callq	cudaLaunchKernel@PLT
# %bb.1:
	addq	$128, %rsp
	popq	%rbp
	.cfi_def_cfa %rsp, 8
	retq
.Lfunc_end6:
	.size	_Z24__device_stub__mergepackPfS_, .Lfunc_end6-_Z24__device_stub__mergepackPfS_
	.cfi_endproc
                                        # -- End function
	.section	.text._Z21cudaCreateChannelDescI6float4E21cudaChannelFormatDescv,"axG",@progbits,_Z21cudaCreateChannelDescI6float4E21cudaChannelFormatDescv,comdat
	.weak	_Z21cudaCreateChannelDescI6float4E21cudaChannelFormatDescv # -- Begin function _Z21cudaCreateChannelDescI6float4E21cudaChannelFormatDescv
	.p2align	4, 0x90
	.type	_Z21cudaCreateChannelDescI6float4E21cudaChannelFormatDescv,@function
_Z21cudaCreateChannelDescI6float4E21cudaChannelFormatDescv: # @_Z21cudaCreateChannelDescI6float4E21cudaChannelFormatDescv
	.cfi_startproc
# %bb.0:
	pushq	%rbp
	.cfi_def_cfa_offset 16
	.cfi_offset %rbp, -16
	movq	%rsp, %rbp
	.cfi_def_cfa_register %rbp
	subq	$16, %rsp
	movq	%rdi, %rax
	movq	%rax, -16(%rbp)                 # 8-byte Spill
	movl	$32, -4(%rbp)
	movl	-4(%rbp), %esi
	movl	-4(%rbp), %edx
	movl	-4(%rbp), %ecx
	movl	-4(%rbp), %r8d
	movl	$2, %r9d
	callq	cudaCreateChannelDesc@PLT
	movq	-16(%rbp), %rax                 # 8-byte Reload
	addq	$16, %rsp
	popq	%rbp
	.cfi_def_cfa %rsp, 8
	retq
.Lfunc_end7:
	.size	_Z21cudaCreateChannelDescI6float4E21cudaChannelFormatDescv, .Lfunc_end7-_Z21cudaCreateChannelDescI6float4E21cudaChannelFormatDescv
	.cfi_endproc
                                        # -- End function
	.section	.text._Z21cudaCreateChannelDescIfE21cudaChannelFormatDescv,"axG",@progbits,_Z21cudaCreateChannelDescIfE21cudaChannelFormatDescv,comdat
	.weak	_Z21cudaCreateChannelDescIfE21cudaChannelFormatDescv # -- Begin function _Z21cudaCreateChannelDescIfE21cudaChannelFormatDescv
	.p2align	4, 0x90
	.type	_Z21cudaCreateChannelDescIfE21cudaChannelFormatDescv,@function
_Z21cudaCreateChannelDescIfE21cudaChannelFormatDescv: # @_Z21cudaCreateChannelDescIfE21cudaChannelFormatDescv
	.cfi_startproc
# %bb.0:
	pushq	%rbp
	.cfi_def_cfa_offset 16
	.cfi_offset %rbp, -16
	movq	%rsp, %rbp
	.cfi_def_cfa_register %rbp
	subq	$16, %rsp
	movq	%rdi, %rax
	movq	%rax, -16(%rbp)                 # 8-byte Spill
	movl	$32, -4(%rbp)
	movl	-4(%rbp), %esi
	xorl	%r8d, %r8d
	movl	$2, %r9d
	movl	%r8d, %edx
	movl	%r8d, %ecx
	callq	cudaCreateChannelDesc@PLT
	movq	-16(%rbp), %rax                 # 8-byte Reload
	addq	$16, %rsp
	popq	%rbp
	.cfi_def_cfa %rsp, 8
	retq
.Lfunc_end8:
	.size	_Z21cudaCreateChannelDescIfE21cudaChannelFormatDescv, .Lfunc_end8-_Z21cudaCreateChannelDescIfE21cudaChannelFormatDescv
	.cfi_endproc
                                        # -- End function
	.section	.text.startup,"ax",@progbits
	.p2align	4, 0x90                         # -- Begin function _GLOBAL__sub_I_mergesort_kernel.cu
	.type	_GLOBAL__sub_I_mergesort_kernel.cu,@function
_GLOBAL__sub_I_mergesort_kernel.cu:     # @_GLOBAL__sub_I_mergesort_kernel.cu
	.cfi_startproc
# %bb.0:
	pushq	%rbp
	.cfi_def_cfa_offset 16
	.cfi_offset %rbp, -16
	movq	%rsp, %rbp
	.cfi_def_cfa_register %rbp
	callq	__cxx_global_var_init
	callq	__cxx_global_var_init.1
	popq	%rbp
	.cfi_def_cfa %rsp, 8
	retq
.Lfunc_end9:
	.size	_GLOBAL__sub_I_mergesort_kernel.cu, .Lfunc_end9-_GLOBAL__sub_I_mergesort_kernel.cu
	.cfi_endproc
                                        # -- End function
	.text
	.p2align	4, 0x90                         # -- Begin function __cuda_register_globals
	.type	__cuda_register_globals,@function
__cuda_register_globals:                # @__cuda_register_globals
	.cfi_startproc
# %bb.0:
	subq	$40, %rsp
	.cfi_def_cfa_offset 48
	movq	%rdi, 32(%rsp)                  # 8-byte Spill
	movq	_Z29__device_stub__mergeSortFirstP6float4i@GOTPCREL(%rip), %rsi
	leaq	.L__unnamed_1(%rip), %rcx
	movl	$4294967295, %r8d               # imm = 0xFFFFFFFF
	xorl	%eax, %eax
	movl	%eax, %r9d
	movq	%rcx, %rdx
	movq	$0, (%rsp)
	movq	$0, 8(%rsp)
	movq	$0, 16(%rsp)
	movq	$0, 24(%rsp)
	callq	__cudaRegisterFunction@PLT
	movq	32(%rsp), %rdi                  # 8-byte Reload
	movq	_Z28__device_stub__mergeSortPassP6float4ii@GOTPCREL(%rip), %rsi
	leaq	.L__unnamed_2(%rip), %rcx
	movl	$4294967295, %r8d               # imm = 0xFFFFFFFF
	xorl	%eax, %eax
	movl	%eax, %r9d
	movq	%rcx, %rdx
	movq	$0, (%rsp)
	movq	$0, 8(%rsp)
	movq	$0, 16(%rsp)
	movq	$0, 24(%rsp)
	callq	__cudaRegisterFunction@PLT
	movq	32(%rsp), %rdi                  # 8-byte Reload
	movq	_Z24__device_stub__mergepackPfS_@GOTPCREL(%rip), %rsi
	leaq	.L__unnamed_3(%rip), %rcx
	movl	$4294967295, %r8d               # imm = 0xFFFFFFFF
	xorl	%eax, %eax
	movl	%eax, %r9d
	movq	%rcx, %rdx
	movq	$0, (%rsp)
	movq	$0, 8(%rsp)
	movq	$0, 16(%rsp)
	movq	$0, 24(%rsp)
	callq	__cudaRegisterFunction@PLT
	movq	32(%rsp), %rdi                  # 8-byte Reload
	leaq	tex(%rip), %rsi
	leaq	.L__unnamed_4(%rip), %rcx
	movl	$1, %r8d
	xorl	%r9d, %r9d
	movq	%rcx, %rdx
	movl	$0, (%rsp)
	callq	__cudaRegisterTexture@PLT
	movq	32(%rsp), %rdi                  # 8-byte Reload
	leaq	txt(%rip), %rsi
	leaq	.L__unnamed_5(%rip), %rcx
	movl	$1, %r8d
	xorl	%r9d, %r9d
	movq	%rcx, %rdx
	movl	$0, (%rsp)
	callq	__cudaRegisterTexture@PLT
	movq	32(%rsp), %rdi                  # 8-byte Reload
	leaq	constStartAddr(%rip), %rsi
	leaq	.L__unnamed_6(%rip), %rcx
	xorl	%r8d, %r8d
	movl	$4100, %r9d                     # imm = 0x1004
	movq	%rcx, %rdx
	movl	$1, (%rsp)
	movl	$0, 8(%rsp)
	callq	__cudaRegisterVar@PLT
	movq	32(%rsp), %rdi                  # 8-byte Reload
	leaq	finalStartAddr(%rip), %rsi
	leaq	.L__unnamed_7(%rip), %rcx
	xorl	%r8d, %r8d
	movl	$4100, %r9d                     # imm = 0x1004
	movq	%rcx, %rdx
	movl	$1, (%rsp)
	movl	$0, 8(%rsp)
	callq	__cudaRegisterVar@PLT
	movq	32(%rsp), %rdi                  # 8-byte Reload
	leaq	nullElems(%rip), %rsi
	leaq	.L__unnamed_8(%rip), %rcx
	xorl	%r8d, %r8d
	movl	$4096, %r9d                     # imm = 0x1000
	movq	%rcx, %rdx
	movl	$1, (%rsp)
	movl	$0, 8(%rsp)
	callq	__cudaRegisterVar@PLT
	addq	$40, %rsp
	.cfi_def_cfa_offset 8
	retq
.Lfunc_end10:
	.size	__cuda_register_globals, .Lfunc_end10-__cuda_register_globals
	.cfi_endproc
                                        # -- End function
	.p2align	4, 0x90                         # -- Begin function __cuda_module_ctor
	.type	__cuda_module_ctor,@function
__cuda_module_ctor:                     # @__cuda_module_ctor
	.cfi_startproc
# %bb.0:
	pushq	%rax
	.cfi_def_cfa_offset 16
	leaq	__cuda_fatbin_wrapper(%rip), %rdi
	callq	__cudaRegisterFatBinary@PLT
	movq	%rax, %rdi
	movq	%rdi, (%rsp)                    # 8-byte Spill
	movq	%rdi, __cuda_gpubin_handle(%rip)
	callq	__cuda_register_globals
	movq	(%rsp), %rdi                    # 8-byte Reload
	callq	__cudaRegisterFatBinaryEnd@PLT
	leaq	__cuda_module_dtor(%rip), %rdi
	callq	atexit@PLT
	popq	%rax
	.cfi_def_cfa_offset 8
	retq
.Lfunc_end11:
	.size	__cuda_module_ctor, .Lfunc_end11-__cuda_module_ctor
	.cfi_endproc
                                        # -- End function
	.p2align	4, 0x90                         # -- Begin function __cuda_module_dtor
	.type	__cuda_module_dtor,@function
__cuda_module_dtor:                     # @__cuda_module_dtor
	.cfi_startproc
# %bb.0:
	pushq	%rax
	.cfi_def_cfa_offset 16
	movq	__cuda_gpubin_handle(%rip), %rdi
	callq	__cudaUnregisterFatBinary@PLT
	popq	%rax
	.cfi_def_cfa_offset 8
	retq
.Lfunc_end12:
	.size	__cuda_module_dtor, .Lfunc_end12-__cuda_module_dtor
	.cfi_endproc
                                        # -- End function
	.type	tex,@object                     # @tex
	.local	tex
	.comm	tex,124,4
	.type	txt,@object                     # @txt
	.local	txt
	.comm	txt,124,4
	.type	constStartAddr,@object          # @constStartAddr
	.local	constStartAddr
	.comm	constStartAddr,4100,16
	.type	finalStartAddr,@object          # @finalStartAddr
	.local	finalStartAddr
	.comm	finalStartAddr,4100,16
	.type	nullElems,@object               # @nullElems
	.local	nullElems
	.comm	nullElems,4096,16
	.type	.L__unnamed_1,@object           # @0
	.section	.rodata.str1.1,"aMS",@progbits,1
.L__unnamed_1:
	.asciz	"_Z14mergeSortFirstP6float4i"
	.size	.L__unnamed_1, 28

	.type	.L__unnamed_2,@object           # @1
.L__unnamed_2:
	.asciz	"_Z13mergeSortPassP6float4ii"
	.size	.L__unnamed_2, 28

	.type	.L__unnamed_3,@object           # @2
.L__unnamed_3:
	.asciz	"_Z9mergepackPfS_"
	.size	.L__unnamed_3, 17

	.type	.L__unnamed_4,@object           # @3
.L__unnamed_4:
	.asciz	"tex"
	.size	.L__unnamed_4, 4

	.type	.L__unnamed_5,@object           # @4
.L__unnamed_5:
	.asciz	"txt"
	.size	.L__unnamed_5, 4

	.type	.L__unnamed_6,@object           # @5
.L__unnamed_6:
	.asciz	"constStartAddr"
	.size	.L__unnamed_6, 15

	.type	.L__unnamed_7,@object           # @6
.L__unnamed_7:
	.asciz	"finalStartAddr"
	.size	.L__unnamed_7, 15

	.type	.L__unnamed_8,@object           # @7
.L__unnamed_8:
	.asciz	"nullElems"
	.size	.L__unnamed_8, 10

	.type	.L__unnamed_9,@object           # @8
	.section	.nv_fatbin,"a",@progbits
	.p2align	3
.L__unnamed_9:
