; ModuleID = 'vecadd.hip.host.bc'
source_filename = "vecadd.hip"
target datalayout = "e-m:e-p270:32:32-p271:32:32-p272:64:64-i64:64-f80:128-n8:16:32:64-S128"
target triple = "x86_64-unknown-linux-gnu"

%struct.dim3 = type { i32, i32, i32 }
%struct.ihipStream_t = type opaque

$_ZSt3sinIiEN9__gnu_cxx11__enable_ifIXsr12__is_integerIT_EE7__valueEdE6__typeES2_ = comdat any

$_ZSt3cosIiEN9__gnu_cxx11__enable_ifIXsr12__is_integerIT_EE7__valueEdE6__typeES2_ = comdat any

$_ZN4dim3C2Ejjj = comdat any

@_Z6vecAddPdS_S_i = dso_local constant void (double*, double*, double*, i32)* @_Z21__device_stub__vecAddPdS_S_i, align 8
@.str = private unnamed_addr constant [18 x i8] c"final result: %f\0A\00", align 1, !dbg !0
@0 = private unnamed_addr constant [17 x i8] c"_Z6vecAddPdS_S_i\00", align 1
@1 = private constant [40409 x i8] c"__CLANG_OFFLOAD_BUNDLE__\02\00\00\00\00\00\00\00\00\10\00\00\00\00\00\00\00\00\00\00\00\00\00\00\19\00\00\00\00\00\00\00host-x86_64-unknown-linux\00\10\00\00\00\00\00\00\D8\8D\00\00\00\00\00\00\1F\00\00\00\00\00\00\00hipv4-amdgcn-amd-amdhsa--gfx803\00\00\00\00\00\00\00\00\00\00\00\00\00\00\00\00\00\00\00\00\00\00\00\00\00\00\00\00\00\00\00\00\00\00\00\00\00\00\00\00\00\00\00\00\00\00\00\00\00\00\00\00\00\00\00\00\00\00\00\00\00\00\00\00\00\00\00\00\00\00\00\00\00\00\00\00\00\00\00\00\00\00\00\00\00\00\00\00\00\00\00\00\00\00\00\00\00\00\00\00\00\00\00\00\00\00\00\00\00\00\00\00\00\00\00\00\00\00\00\00\00\00\00\00\00\00\00\00\00\00\00\00\00\00\00\00\00\00\00\00\00\00\00\00\00\00\00\00\00\00\00\00\00\00\00\00\00\00\00\00\00\00\00\00\00\00\00\00\00\00\00\00\00\00\00\00\00\00\00\00\00\00\00\00\00\00\00\00\00\00\00\00\00\00\00\00\00\00\00\00\00\00\00\00\00\00\00\00\00\00\00\00\00\00\00\00\00\00\00\00\00\00\00\00\00\00\00\00\00\00\00\00\00\00\00\00\00\00\00\00\00\00\00\00\00\00\00\00\00\00\00\00\00\00\00\00\00\00\00\00\00\00\00\00\00\00\00\00\00\00\00\00\00\00\00\00\00\00\00\00\00\00\00\00\00\00\00\00\00\00\00\00\00\00\00\00\00\00\00\00\00\00\00\00\00\00\00\00\00\00\00\00\00\00\00\00\00\00\00\00\00\00\00\00\00\00\00\00\00\00\00\00\00\00\00\00\00\00\00\00\00\00\00\00\00\00\00\00\00\00\00\00\00\00\00\00\00\00\00\00\00\00\00\00\00\00\00\00\00\00\00\00\00\00\00\00\00\00\00\00\00\00\00\00\00\00\00\00\00\00\00\00\00\00\00\00\00\00\00\00\00\00\00\00\00\00\00\00\00\00\00\00\00\00\00\00\00\00\00\00\00\00\00\00\00\00\00\00\00\00\00\00\00\00\00\00\00\00\00\00\00\00\00\00\00\00\00\00\00\00\00\00\00\00\00\00\00\00\00\00\00\00\00\00\00\00\00\00\00\00\00\00\00\00\00\00\00\00\00\00\00\00\00\00\00\00\00\00\00\00\00\00\00\00\00\00\00\00\00\00\00\00\00\00\00\00\00\00\00\00\00\00\00\00\00\00\00\00\00\00\00\00\00\00\00\00\00\00\00\00\00\00\00\00\00\00\00\00\00\00\00\00\00\00\00\00\00\00\00\00\00\00\00\00\00\00\00\00\00\00\00\00\00\00\00\00\00\00\00\00\00\00\00\00\00\00\00\00\00\00\00\00\00\00\00\00\00\00\00\00\00\00\00\00\00\00\00\00\00\00\00\00\00\00\00\00\00\00\00\00\00\00\00\00\00\00\00\00\00\00\00\00\00\00\00\00\00\00\00\00\00\00\00\00\00\00\00\00\00\00\00\00\00\00\00\00\00\00\00\00\00\00\00\00\00\00\00\00\00\00\00\00\00\00\00\00\00\00\00\00\00\00\00\00\00\00\00\00\00\00\00\00\00\00\00\00\00\00\00\00\00\00\00\00\00\00\00\00\00\00\00\00\00\00\00\00\00\00\00\00\00\00\00\00\00\00\00\00\00\00\00\00\00\00\00\00\00\00\00\00\00\00\00\00\00\00\00\00\00\00\00\00\00\00\00\00\00\00\00\00\00\00\00\00\00\00\00\00\00\00\00\00\00\00\00\00\00\00\00\00\00\00\00\00\00\00\00\00\00\00\00\00\00\00\00\00\00\00\00\00\00\00\00\00\00\00\00\00\00\00\00\00\00\00\00\00\00\00\00\00\00\00\00\00\00\00\00\00\00\00\00\00\00\00\00\00\00\00\00\00\00\00\00\00\00\00\00\00\00\00\00\00\00\00\00\00\00\00\00\00\00\00\00\00\00\00\00\00\00\00\00\00\00\00\00\00\00\00\00\00\00\00\00\00\00\00\00\00\00\00\00\00\00\00\00\00\00\00\00\00\00\00\00\00\00\00\00\00\00\00\00\00\00\00\00\00\00\00\00\00\00\00\00\00\00\00\00\00\00\00\00\00\00\00\00\00\00\00\00\00\00\00\00\00\00\00\00\00\00\00\00\00\00\00\00\00\00\00\00\00\00\00\00\00\00\00\00\00\00\00\00\00\00\00\00\00\00\00\00\00\00\00\00\00\00\00\00\00\00\00\00\00\00\00\00\00\00\00\00\00\00\00\00\00\00\00\00\00\00\00\00\00\00\00\00\00\00\00\00\00\00\00\00\00\00\00\00\00\00\00\00\00\00\00\00\00\00\00\00\00\00\00\00\00\00\00\00\00\00\00\00\00\00\00\00\00\00\00\00\00\00\00\00\00\00\00\00\00\00\00\00\00\00\00\00\00\00\00\00\00\00\00\00\00\00\00\00\00\00\00\00\00\00\00\00\00\00\00\00\00\00\00\00\00\00\00\00\00\00\00\00\00\00\00\00\00\00\00\00\00\00\00\00\00\00\00\00\00\00\00\00\00\00\00\00\00\00\00\00\00\00\00\00\00\00\00\00\00\00\00\00\00\00\00\00\00\00\00\00\00\00\00\00\00\00\00\00\00\00\00\00\00\00\00\00\00\00\00\00\00\00\00\00\00\00\00\00\00\00\00\00\00\00\00\00\00\00\00\00\00\00\00\00\00\00\00\00\00\00\00\00\00\00\00\00\00\00\00\00\00\00\00\00\00\00\00\00\00\00\00\00\00\00\00\00\00\00\00\00\00\00\00\00\00\00\00\00\00\00\00\00\00\00\00\00\00\00\00\00\00\00\00\00\00\00\00\00\00\00\00\00\00\00\00\00\00\00\00\00\00\00\00\00\00\00\00\00\00\00\00\00\00\00\00\00\00\00\00\00\00\00\00\00\00\00\00\00\00\00\00\00\00\00\00\00\00\00\00\00\00\00\00\00\00\00\00\00\00\00\00\00\00\00\00\00\00\00\00\00\00\00\00\00\00\00\00\00\00\00\00\00\00\00\00\00\00\00\00\00\00\00\00\00\00\00\00\00\00\00\00\00\00\00\00\00\00\00\00\00\00\00\00\00\00\00\00\00\00\00\00\00\00\00\00\00\00\00\00\00\00\00\00\00\00\00\00\00\00\00\00\00\00\00\00\00\00\00\00\00\00\00\00\00\00\00\00\00\00\00\00\00\00\00\00\00\00\00\00\00\00\00\00\00\00\00\00\00\00\00\00\00\00\00\00\00\00\00\00\00\00\00\00\00\00\00\00\00\00\00\00\00\00\00\00\00\00\00\00\00\00\00\00\00\00\00\00\00\00\00\00\00\00\00\00\00\00\00\00\00\00\00\00\00\00\00\00\00\00\00\00\00\00\00\00\00\00\00\00\00\00\00\00\00\00\00\00\00\00\00\00\00\00\00\00\00\00\00\00\00\00\00\00\00\00\00\00\00\00\00\00\00\00\00\00\00\00\00\00\00\00\00\00\00\00\00\00\00\00\00\00\00\00\00\00\00\00\00\00\00\00\00\00\00\00\00\00\00\00\00\00\00\00\00\00\00\00\00\00\00\00\00\00\00\00\00\00\00\00\00\00\00\00\00\00\00\00\00\00\00\00\00\00\00\00\00\00\00\00\00\00\00\00\00\00\00\00\00\00\00\00\00\00\00\00\00\00\00\00\00\00\00\00\00\00\00\00\00\00\00\00\00\00\00\00\00\00\00\00\00\00\00\00\00\00\00\00\00\00\00\00\00\00\00\00\00\00\00\00\00\00\00\00\00\00\00\00\00\00\00\00\00\00\00\00\00\00\00\00\00\00\00\00\00\00\00\00\00\00\00\00\00\00\00\00\00\00\00\00\00\00\00\00\00\00\00\00\00\00\00\00\00\00\00\00\00\00\00\00\00\00\00\00\00\00\00\00\00\00\00\00\00\00\00\00\00\00\00\00\00\00\00\00\00\00\00\00\00\00\00\00\00\00\00\00\00\00\00\00\00\00\00\00\00\00\00\00\00\00\00\00\00\00\00\00\00\00\00\00\00\00\00\00\00\00\00\00\00\00\00\00\00\00\00\00\00\00\00\00\00\00\00\00\00\00\00\00\00\00\00\00\00\00\00\00\00\00\00\00\00\00\00\00\00\00\00\00\00\00\00\00\00\00\00\00\00\00\00\00\00\00\00\00\00\00\00\00\00\00\00\00\00\00\00\00\00\00\00\00\00\00\00\00\00\00\00\00\00\00\00\00\00\00\00\00\00\00\00\00\00\00\00\00\00\00\00\00\00\00\00\00\00\00\00\00\00\00\00\00\00\00\00\00\00\00\00\00\00\00\00\00\00\00\00\00\00\00\00\00\00\00\00\00\00\00\00\00\00\00\00\00\00\00\00\00\00\00\00\00\00\00\00\00\00\00\00\00\00\00\00\00\00\00\00\00\00\00\00\00\00\00\00\00\00\00\00\00\00\00\00\00\00\00\00\00\00\00\00\00\00\00\00\00\00\00\00\00\00\00\00\00\00\00\00\00\00\00\00\00\00\00\00\00\00\00\00\00\00\00\00\00\00\00\00\00\00\00\00\00\00\00\00\00\00\00\00\00\00\00\00\00\00\00\00\00\00\00\00\00\00\00\00\00\00\00\00\00\00\00\00\00\00\00\00\00\00\00\00\00\00\00\00\00\00\00\00\00\00\00\00\00\00\00\00\00\00\00\00\00\00\00\00\00\00\00\00\00\00\00\00\00\00\00\00\00\00\00\00\00\00\00\00\00\00\00\00\00\00\00\00\00\00\00\00\00\00\00\00\00\00\00\00\00\00\00\00\00\00\00\00\00\00\00\00\00\00\00\00\00\00\00\00\00\00\00\00\00\00\00\00\00\00\00\00\00\00\00\00\00\00\00\00\00\00\00\00\00\00\00\00\00\00\00\00\00\00\00\00\00\00\00\00\00\00\00\00\00\00\00\00\00\00\00\00\00\00\00\00\00\00\00\00\00\00\00\00\00\00\00\00\00\00\00\00\00\00\00\00\00\00\00\00\00\00\00\00\00\00\00\00\00\00\00\00\00\00\00\00\00\00\00\00\00\00\00\00\00\00\00\00\00\00\00\00\00\00\00\00\00\00\00\00\00\00\00\00\00\00\00\00\00\00\00\00\00\00\00\00\00\00\00\00\00\00\00\00\00\00\00\00\00\00\00\00\00\00\00\00\00\00\00\00\00\00\00\00\00\00\00\00\00\00\00\00\00\00\00\00\00\00\00\00\00\00\00\00\00\00\00\00\00\00\00\00\00\00\00\00\00\00\00\00\00\00\00\00\00\00\00\00\00\00\00\00\00\00\00\00\00\00\00\00\00\00\00\00\00\00\00\00\00\00\00\00\00\00\00\00\00\00\00\00\00\00\00\00\00\00\00\00\00\00\00\00\00\00\00\00\00\00\00\00\00\00\00\00\00\00\00\00\00\00\00\00\00\00\00\00\00\00\00\00\00\00\00\00\00\00\00\00\00\00\00\00\00\00\00\00\00\00\00\00\00\00\00\00\00\00\00\00\00\00\00\00\00\00\00\00\00\00\00\00\00\00\00\00\00\00\00\00\00\00\00\00\00\00\00\00\00\00\00\00\00\00\00\00\00\00\00\00\00\00\00\00\00\00\00\00\00\00\00\00\00\00\00\00\00\00\00\00\00\00\00\00\00\00\00\00\00\00\00\00\00\00\00\00\00\00\00\00\00\00\00\00\00\00\00\00\00\00\00\00\00\00\00\00\00\00\00\00\00\00\00\00\00\00\00\00\00\00\00\00\00\00\00\00\00\00\00\00\00\00\00\00\00\00\00\00\00\00\00\00\00\00\00\00\00\00\00\00\00\00\00\00\00\00\00\00\00\00\00\00\00\00\00\00\00\00\00\00\00\00\00\00\00\00\00\00\00\00\00\00\00\00\00\00\00\00\00\00\00\00\00\00\00\00\00\00\00\00\00\00\00\00\00\00\00\00\00\00\00\00\00\00\00\00\00\00\00\00\00\00\00\00\00\00\00\00\00\00\00\00\00\00\00\00\00\00\00\00\00\00\00\00\00\00\00\00\00\00\00\00\00\00\00\00\00\00\00\00\00\00\00\00\00\00\00\00\00\00\00\00\00\00\00\00\00\00\00\00\00\00\00\00\00\00\00\00\00\00\00\00\00\00\00\00\00\00\00\00\00\00\00\00\00\00\00\00\00\00\00\00\00\00\00\00\00\00\00\00\00\00\00\00\00\00\00\00\00\00\00\00\00\00\00\00\00\00\00\00\00\00\00\00\00\00\00\00\00\00\00\00\00\00\00\00\00\00\00\00\00\00\00\00\00\00\00\00\00\00\00\00\00\00\00\00\00\00\00\00\00\00\00\00\00\00\00\00\00\00\00\00\00\00\00\00\00\00\00\00\00\00\00\00\00\00\00\00\00\00\00\00\00\00\00\00\00\00\00\00\00\00\00\00\00\00\00\00\00\00\00\00\00\00\00\00\00\00\00\00\00\00\00\00\00\00\00\00\00\00\00\00\00\00\00\00\00\00\00\00\00\00\00\00\00\00\00\00\00\00\00\00\00\00\00\00\00\00\00\00\00\00\00\00\00\00\00\00\00\00\00\00\00\00\00\00\00\00\00\00\00\00\00\00\00\00\00\00\00\00\00\00\00\00\00\00\00\00\00\00\00\00\00\00\00\00\00\00\00\00\00\00\00\00\00\00\00\00\00\00\00\00\00\00\00\00\00\00\00\00\00\00\00\00\00\00\00\00\00\00\00\00\00\00\00\00\00\00\00\00\00\00\00\00\00\00\00\00\00\00\00\00\00\00\00\00\00\00\00\00\00\00\00\00\00\00\00\00\00\00\00\00\00\00\00\00\00\00\00\00\00\00\00\00\00\00\00\00\00\00\00\00\00\00\00\00\00\00\00\00\00\00\00\00\00\00\00\00\00\00\00\00\00\00\00\00\00\00\00\00\00\00\00\00\00\00\00\00\00\00\00\00\00\00\00\00\00\00\00\00\00\00\00\00\00\00\00\00\00\00\00\00\00\00\00\00\00\00\00\00\00\00\00\00\00\00\00\00\00\00\00\00\00\00\00\00\00\00\00\00\00\00\00\00\00\00\00\00\00\00\00\00\00\00\00\00\00\00\00\00\00\00\00\00\00\00\00\00\00\00\00\00\00\00\00\00\00\00\00\00\00\00\00\00\00\00\00\00\00\00\00\00\00\00\00\00\00\00\00\00\00\00\00\00\00\00\00\00\00\00\00\00\00\00\00\00\00\00\00\00\00\00\00\00\00\00\00\00\00\00\00\00\00\00\00\00\00\00\00\00\00\00\00\00\00\00\00\00\00\00\00\00\00\00\00\00\00\00\00\00\00\00\00\00\00\00\00\00\00\00\00\00\00\00\00\00\00\00\00\00\00\00\00\00\00\00\00\00\00\00\00\00\00\00\00\00\00\00\00\00\00\00\00\00\00\00\00\00\00\00\00\00\00\00\00\00\00\00\00\00\00\00\00\00\00\00\00\00\00\00\00\00\00\00\00\00\00\00\00\00\00\00\00\00\00\00\00\00\00\00\00\00\00\00\00\00\00\00\00\00\00\00\00\00\00\00\00\00\00\00\00\00\00\00\00\00\00\00\00\00\00\00\00\00\00\00\00\00\00\00\00\00\00\00\00\00\00\00\00\00\00\00\00\00\00\00\00\00\00\00\00\00\00\00\00\00\00\00\00\00\00\00\00\00\00\00\00\00\00\00\00\00\00\00\00\00\00\00\00\00\00\00\00\00\00\00\00\00\00\00\00\00\00\00\00\00\00\00\00\00\00\00\00\00\00\00\00\00\00\00\00\00\00\00\00\00\00\00\00\00\00\00\00\00\00\00\00\00\00\00\00\00\00\00\00\00\00\00\00\00\00\00\00\00\00\00\00\00\00\00\00\00\00\00\00\00\00\00\00\00\00\00\00\00\00\00\00\00\00\00\00\00\00\00\00\00\00\00\00\00\00\00\00\00\00\00\00\00\00\00\00\00\00\00\00\00\00\00\00\00\00\00\00\00\00\00\00\00\00\00\00\00\00\00\00\00\00\00\00\00\00\00\00\00\00\00\00\00\00\00\00\00\00\00\00\00\00\00\00\00\00\00\00\00\00\00\00\00\00\00\00\00\00\00\00\00\00\00\00\00\00\00\00\00\00\00\00\00\00\00\00\00\00\00\00\00\00\00\00\00\00\00\00\00\00\00\00\00\00\00\00\00\00\00\00\00\00\00\00\00\00\00\00\00\00\00\00\00\00\00\00\00\00\00\00\00\00\00\00\00\00\00\00\00\00\00\00\00\00\00\00\00\00\00\00\00\00\00\00\00\00\00\00\00\00\00\00\00\00\00\00\00\00\00\00\00\00\00\00\00\00\00\00\00\00\00\00\00\00\00\00\00\00\00\00\00\00\00\00\00\00\00\00\00\00\00\00\00\00\00\00\00\00\00\00\00\00\00\00\00\00\00\00\00\00\00\00\00\00\00\00\00\00\00\00\00\00\00\00\00\00\00\00\00\00\00\00\00\00\00\00\00\00\00\00\00\00\00\00\00\00\00\00\00\00\00\00\00\00\00\00\00\00\00\00\00\00\00\00\00\00\00\00\00\00\00\00\00\00\00\00\00\00\00\00\00\00\00\00\00\00\00\00\00\00\00\00\00\00\00\00\00\00\00\00\00\00\00\00\00\00\00\00\00\00\00\00\00\00\00\00\00\00\00\00\00\00\00\00\00\00\00\00\00\00\00\00\00\00\00\00\00\00\00\00\00\00\00\00\00\00\00\00\00\00\00\00\00\00\00\00\00\00\00\00\00\00\00\00\00\00\00\00\00\00\00\00\00\00\00\00\7FELF\02\01\01@\02\00\00\00\00\00\00\00\03\00\E0\00\01\00\00\00\00\00\00\00\00\00\00\00@\00\00\00\00\00\00\00\18\88\00\00\00\00\00\00*\00\00\00@\008\00\08\00@\00\17\00\15\00\06\00\00\00\04\00\00\00@\00\00\00\00\00\00\00@\00\00\00\00\00\00\00@\00\00\00\00\00\00\00\C0\01\00\00\00\00\00\00\C0\01\00\00\00\00\00\00\08\00\00\00\00\00\00\00\01\00\00\00\04\00\00\00\00\00\00\00\00\00\00\00\00\00\00\00\00\00\00\00\00\00\00\00\00\00\00\00\01\06\00\00\00\00\00\00\01\06\00\00\00\00\00\00\00\10\00\00\00\00\00\00\01\00\00\00\05\00\00\00\00\10\00\00\00\00\00\00\00\10\00\00\00\00\00\00\00\10\00\00\00\00\00\00|\00\00\00\00\00\00\00|\00\00\00\00\00\00\00\00\10\00\00\00\00\00\00\01\00\00\00\06\00\00\00\00 \00\00\00\00\00\00\00 \00\00\00\00\00\00\00 \00\00\00\00\00\00p\00\00\00\00\00\00\00p\00\00\00\00\00\00\00\00\10\00\00\00\00\00\00\02\00\00\00\06\00\00\00\00 \00\00\00\00\00\00\00 \00\00\00\00\00\00\00 \00\00\00\00\00\00p\00\00\00\00\00\00\00p\00\00\00\00\00\00\00\08\00\00\00\00\00\00\00R\E5td\04\00\00\00\00 \00\00\00\00\00\00\00 \00\00\00\00\00\00\00 \00\00\00\00\00\00p\00\00\00\00\00\00\00\00\10\00\00\00\00\00\00\01\00\00\00\00\00\00\00Q\E5td\06\00\00\00\00\00\00\00\00\00\00\00\00\00\00\00\00\00\00\00\00\00\00\00\00\00\00\00\00\00\00\00\00\00\00\00\00\00\00\00\00\00\00\00\00\00\00\00\00\00\00\00\04\00\00\00\04\00\00\00\00\02\00\00\00\00\00\00\00\02\00\00\00\00\00\00\00\02\00\00\00\00\00\00\80\02\00\00\00\00\00\00\80\02\00\00\00\00\00\00\04\00\00\00\00\00\00\00\07\00\00\00k\02\00\00 \00\00\00AMDGPU\00\00\83\AEamdhsa.kernels\91\8F\A5.args\94\84\AE.address_space\A6global\A7.offset\00\A5.size\08\AB.value_kind\ADglobal_buffer\84\AE.address_space\A6global\A7.offset\08\A5.size\08\AB.value_kind\ADglobal_buffer\84\AE.address_space\A6global\A7.offset\10\A5.size\08\AB.value_kind\ADglobal_buffer\83\A7.offset\18\A5.size\04\AB.value_kind\A8by_value\B9.group_segment_fixed_size\00\B6.kernarg_segment_align\08\B5.kernarg_segment_size\1C\A9.language\A8OpenCL C\B1.language_version\92\02\00\B8.max_flat_workgroup_size\CD\04\00\A5.name\B0_Z6vecAddPdS_S_i\BB.private_segment_fixed_size\00\AB.sgpr_count\08\B1.sgpr_spill_count\00\A7.symbol\B3_Z6vecAddPdS_S_i.kd\AB.vgpr_count\05\B1.vgpr_spill_count\00\AF.wavefront_size@\ADamdhsa.target\B9amdgcn-amd-amdhsa--gfx803\AEamdhsa.version\92\01\01\00\00\00\00\00\00\00\00\00\00\00\00\00\00\00\00\00\00\00\00\00\00\00\00\00\01\00\00\00\12\03\07\00\00\10\00\00\00\00\00\00|\00\00\00\00\00\00\00\12\00\00\00\11\03\06\00\C0\05\00\00\00\00\00\00@\00\00\00\00\00\00\00&\00\00\00!\03\06\00\00\06\00\00\00\00\00\00\01\00\00\00\00\00\00\00\01\00\00\00\01\00\00\00\01\00\00\00\1A\00\00\00\00\04\08\10\08\00\00\02\01\00\00\00\9C\14fs\F8\F0\F3\8C\CB\97QN\04\00\00\00\04\00\00\00\02\00\00\00\03\00\00\00\00\00\00\00\00\00\00\00\00\00\00\00\00\00\00\00\00\00\00\00\01\00\00\00\00_Z6vecAddPdS_S_i\00_Z6vecAddPdS_S_i.kd\00_ZN17__HIP_CoordinatesI15__HIP_ThreadIdxE1xE\00\00\00\00\00\00\00\00\00\00\00\00\00\00\00\00\00\00\00\00\00\00\00\00\00\00\00\00\00\00\00\00\00\00\00\00\00\00\00\00\00\00\00\00\00\00\00\00\00\00\00\00\00\00\00\00\00\00\00\00\00\00\00\00\00\00\00\00\00\00\1C\00\00\00\00\00\00\00@\0A\00\00\00\00\00\00\00\00\00\00\00\00\00\00\00\00\00\00\00\00\00\00\00\00\00\00\00\00\00\00\01\00\AC\00\8C\00\00\00\09\00\00\00\00\00\00\00\00\00\00\00\00\00\00\00\00\00\00\00\00\00\00\00\00\00\00\00\00\00\00\00\00\00\00\00\00\00\00\00\00\00\00\00\00\00\00\00\00\00\00\00\00\00\00\00\00\00\00\00\00\00\00\00\00\00\00\00\00\00\00\00\00\00\00\00\00\00\00\00\00\00\00\00\00\00\00\00\00\00\00\00\00\00\00\00\00\00\00\00\00\00\00\00\00\00\00\00\00\00\00\00\00\00\00\00\00\00\00\00\00\00\00\00\00\00\00\00\00\00\00\00\00\00\00\00\00\00\00\00\00\00\00\00\00\00\00\00\00\00\00\00\00\00\00\00\00\00\00\00\00\00\00\00\00\00\00\00\00\00\00\00\00\00\00\00\00\00\00\00\00\00\00\00\00\00\00\00\00\00\00\00\00\00\00\00\00\00\00\00\00\00\00\00\00\00\00\00\00\00\00\00\00\00\00\00\00\00\00\00\00\00\00\00\00\00\00\00\00\00\00\00\00\00\00\00\00\00\00\00\00\00\00\00\00\00\00\00\00\00\00\00\00\00\00\00\00\00\00\00\00\00\00\00\00\00\00\00\00\00\00\00\00\00\00\00\00\00\00\00\00\00\00\00\00\00\00\00\00\00\00\00\00\00\00\00\00\00\00\00\00\00\00\00\00\00\00\00\00\00\00\00\00\00\00\00\00\00\00\00\00\00\00\00\00\00\00\00\00\00\00\00\00\00\00\00\00\00\00\00\00\00\00\00\00\00\00\00\00\00\00\00\00\00\00\00\00\00\00\00\00\00\00\00\00\00\00\00\00\00\00\00\00\00\00\00\00\00\00\00\00\00\00\00\00\00\00\00\00\00\00\00\00\00\00\00\00\00\00\00\00\00\00\00\00\00\00\00\00\00\00\00\00\00\00\00\00\00\00\00\00\00\00\00\00\00\00\00\00\00\00\00\00\00\00\00\00\00\00\00\00\00\00\00\00\00\00\00\00\00\00\00\00\00\00\00\00\00\00\00\00\00\00\00\00\00\00\00\00\00\00\00\00\00\00\00\00\00\00\00\00\00\00\00\00\00\00\00\00\00\00\00\00\00\00\00\00\00\00\00\00\00\00\00\00\00\00\00\00\00\00\00\00\00\00\00\00\00\00\00\00\00\00\00\00\00\00\00\00\00\00\00\00\00\00\00\00\00\00\00\00\00\00\00\00\00\00\00\00\00\00\00\00\00\00\00\00\00\00\00\00\00\00\00\00\00\00\00\00\00\00\00\00\00\00\00\00\00\00\00\00\00\00\00\00\00\00\00\00\00\00\00\00\00\00\00\00\00\00\00\00\00\00\00\00\00\00\00\00\00\00\00\00\00\00\00\00\00\00\00\00\00\00\00\00\00\00\00\00\00\00\00\00\00\00\00\00\00\00\00\00\00\00\00\00\00\00\00\00\00\00\00\00\00\00\00\00\00\00\00\00\00\00\00\00\00\00\00\00\00\00\00\00\00\00\00\00\00\00\00\00\00\00\00\00\00\00\00\00\00\00\00\00\00\00\00\00\00\00\00\00\00\00\00\00\00\00\00\00\00\00\00\00\00\00\00\00\00\00\00\00\00\00\00\00\00\00\00\00\00\00\00\00\00\00\00\00\00\00\00\00\00\00\00\00\00\00\00\00\00\00\00\00\00\00\00\00\00\00\00\00\00\00\00\00\00\00\00\00\00\00\00\00\00\00\00\00\00\00\00\00\00\00\00\00\00\00\00\00\00\00\00\00\00\00\00\00\00\00\00\00\00\00\00\00\00\00\00\00\00\00\00\00\00\00\00\00\00\00\00\00\00\00\00\00\00\00\00\00\00\00\00\00\00\00\00\00\00\00\00\00\00\00\00\00\00\00\00\00\00\00\00\00\00\00\00\00\00\00\00\00\00\00\00\00\00\00\00\00\00\00\00\00\00\00\00\00\00\00\00\00\00\00\00\00\00\00\00\00\00\00\00\00\00\00\00\00\00\00\00\00\00\00\00\00\00\00\00\00\00\00\00\00\00\00\00\00\00\00\00\00\00\00\00\00\00\00\00\00\00\00\00\00\00\00\00\00\00\00\00\00\00\00\00\00\00\00\00\00\00\00\00\00\00\00\00\00\00\00\00\00\00\00\00\00\00\00\00\00\00\00\00\00\00\00\00\00\00\00\00\00\00\00\00\00\00\00\00\00\00\00\00\00\00\00\00\00\00\00\00\00\00\00\00\00\00\00\00\00\00\00\00\00\00\00\00\00\00\00\00\00\00\00\00\00\00\00\00\00\00\00\00\00\00\00\00\00\00\00\00\00\00\00\00\00\00\00\00\00\00\00\00\00\00\00\00\00\00\00\00\00\00\00\00\00\00\00\00\00\00\00\00\00\00\00\00\00\00\00\00\00\00\00\00\00\00\00\00\00\00\00\00\00\00\00\00\00\00\00\00\00\00\00\00\00\00\00\00\00\00\00\00\00\00\00\00\00\00\00\00\00\00\00\00\00\00\00\00\00\00\00\00\00\00\00\00\00\00\00\00\00\00\00\00\00\00\00\00\00\00\00\00\00\00\00\00\00\00\00\00\00\00\00\00\00\00\00\00\00\00\00\00\00\00\00\00\00\00\00\00\00\00\00\00\00\00\00\00\00\00\00\00\00\00\00\00\00\00\00\00\00\00\00\00\00\00\00\00\00\00\00\00\00\00\00\00\00\00\00\00\00\00\00\00\00\00\00\00\00\00\00\00\00\00\00\00\00\00\00\00\00\00\00\00\00\00\00\00\00\00\00\00\00\00\00\00\00\00\00\00\00\00\00\00\00\00\00\00\00\00\00\00\00\00\00\00\00\00\00\00\00\00\00\00\00\00\00\00\00\00\00\00\00\00\00\00\00\00\00\00\00\00\00\00\00\00\00\00\00\00\00\00\00\00\00\00\00\00\00\00\00\00\00\00\00\00\00\00\00\00\00\00\00\00\00\00\00\00\00\00\00\00\00\00\00\00\00\00\00\00\00\00\00\00\00\00\00\00\00\00\00\00\00\00\00\00\00\00\00\00\00\00\00\00\00\00\00\00\00\00\00\00\00\00\00\00\00\00\00\00\00\00\00\00\00\00\00\00\00\00\00\00\00\00\00\00\00\00\00\00\00\00\00\00\00\00\00\00\00\00\00\00\00\00\00\00\00\00\00\00\00\00\00\00\00\00\00\00\00\00\00\00\00\00\00\00\00\00\00\00\00\00\00\00\00\00\00\00\00\00\00\00\00\00\00\00\00\00\00\00\00\00\00\00\00\00\00\00\00\00\00\00\00\00\00\00\00\00\00\00\00\00\00\00\00\00\00\00\00\00\00\00\00\00\00\00\00\00\00\00\00\00\00\00\00\00\00\00\00\00\00\00\00\00\00\00\00\00\00\00\00\00\00\00\00\00\00\00\00\00\00\00\00\00\00\00\00\00\00\00\00\00\00\00\00\00\00\00\00\00\00\00\00\00\00\00\00\00\00\00\00\00\00\00\00\00\00\00\00\00\00\00\00\00\00\00\00\00\00\00\00\00\00\00\00\00\00\00\00\00\00\00\00\00\00\00\00\00\00\00\00\00\00\00\00\00\00\00\00\00\00\00\00\00\00\00\00\00\00\00\00\00\00\00\00\00\00\00\00\00\00\00\00\00\00\00\00\00\00\00\00\00\00\00\00\00\00\00\00\00\00\00\00\00\00\00\00\00\00\00\00\00\00\00\00\00\00\00\00\00\00\00\00\00\00\00\00\00\00\00\00\00\00\00\00\00\00\00\00\00\00\00\00\00\00\00\00\00\00\00\00\00\00\00\00\00\00\00\00\00\00\00\00\00\00\00\00\00\00\00\00\00\00\00\00\00\00\00\00\00\00\00\00\00\00\00\00\00\00\00\00\00\00\00\00\00\00\00\00\00\00\00\00\00\00\00\00\00\00\00\00\00\00\00\00\00\00\00\00\00\00\00\00\00\00\00\00\00\00\00\00\00\00\00\00\00\00\00\00\00\00\00\00\00\00\00\00\00\00\00\00\00\00\00\00\00\00\00\00\00\00\00\00\00\00\00\00\00\00\00\00\00\00\00\00\00\00\00\00\00\00\00\00\00\00\00\00\00\00\00\00\00\00\00\00\00\00\00\00\00\00\00\00\00\00\00\00\00\00\00\00\00\00\00\00\00\00\00\00\00\00\00\00\00\00\00\00\00\00\00\00\00\00\00\00\00\00\00\00\00\00\00\00\00\00\00\00\00\00\00\00\00\00\00\00\00\00\00\00\00\00\00\00\00\00\00\00\00\00\00\00\00\00\00\00\00\00\00\00\00\00\00\00\00\00\00\00\00\00\00\00\00\00\00\00\00\00\00\00\00\00\00\00\00\00\00\00\00\00\00\00\00\00\00\00\00\00\00\00\00\00\00\00\00\00\00\00\00\00\00\00\00\00\00\00\00\00\00\00\00\00\00\00\00\00\00\00\00\00\00\00\00\00\00\00\00\00\00\00\00\00\00\00\00\00\00\00\00\00\00\00\00\00\00\00\00\00\00\00\00\00\00\00\00\00\00\00\00\00\00\00\00\00\00\00\00\00\00\00\00\00\00\00\00\00\00\00\00\00\00\00\00\00\00\00\00\00\00\00\00\00\00\00\00\00\00\00\00\00\00\00\00\00\00\00\00\00\00\00\00\00\00\00\00\00\00\00\00\00\00\00\00\00\00\00\00\00\00\00\00\00\00\00\00\00\00\00\00\00\00\00\00\00\00\00\00\00\00\00\00\00\00\00\00\00\00\00\00\00\00\00\00\00\00\00\00\00\00\00\00\00\00\00\00\00\00\00\00\00\00\00\00\00\00\00\00\00\00\00\00\00\00\00\00\00\00\00\00\00\00\00\00\00\00\00\00\00\00\00\00\00\00\00\00\00\00\00\00\00\00\00\00\00\00\00\00\00\00\00\00\00\00\00\00\00\00\00\00\00\00\00\00\00\00\00\00\00\00\00\00\00\00\00\00\00\00\00\00\00\00\00\00\00\00\00\00\00\00\00\00\00\00\00\00\00\00\00\00\00\00\00\00\00\00\00\00\00\00\00\00\00\00\00\00\00\00\00\00\00\00\00\00\00\00\00\00\00\00\00\00\00\00\00\00\00\00\00\00\00\00\00\00\00\00\00\00\00\00\00\00\00\00\00\00\00\00\00\00\00\00\00\00\00\00\00\00\00\00\00\00\00\00\00\00\00\00\00\00\00\00\00\00\00\00\00\00\00\00\00\00\00\00\00\00\00\00\00\00\00\00\00\00\00\00\00\00\00\00\00\00\00\00\00\00\00\00\00\00\00\00\00\00\00\00\00\00\00\00\00\00\00\00\00\00\00\00\00\00\00\00\00\00\00\00\00\00\00\00\00\00\00\00\00\00\00\00\00\00\00\00\00\00\00\00\00\00\00\00\00\00\00\00\00\00\00\00\00\00\00\00\00\00\00\00\00\00\00\00\00\00\00\00\00\00\00\00\00\00\00\00\00\00\00\00\00\00\00\00\00\00\00\00\00\00\00\00\00\00\00\00\00\00\00\00\00\00\00\00\00\00\00\00\00\00\00\00\00\00\00\00\00\00\00\00\00\00\00\00\00\00\00\00\00\00\00\00\00\00\00\00\00\00\00\00\00\00\00\00\00\00\00\00\00\00\00\00\00\00\00\00\00\00\00\00\00\00\00\00\00\00\00\00\00\00\00\00\00\00\02\00\02\C0\18\00\00\00\7F\00\8C\BF\00\00\88}j \80\BE\18\00\88\BF\02\00\0A\C0\00\00\00\00\02\01\06\C0\10\00\00\00\83\00\08$\7F\00\8C\BF\03\02\02~\02\08\002\80\02\028\01\02\06~\00\08\042\80\06\068\00\00T\DC\02\00\00\02\00\00T\DC\00\00\00\00p\0F\8C\BF\00\00\80\D2\02\01\02\00\05\02\06~\04\08\042\80\06\068\00\00t\DC\02\00\00\00\00\00\81\BF\00\00\00\00\00\00\00\00\00\00\00\00\00\00\00\00\00\00\00\00\00\00\00\00\00\00\00\00\00\00\00\00\00\00\00\00\00\00\00\00\00\00\00\00\00\00\00\00\00\00\00\00\00\00\00\00\00\00\00\00\00\00\00\00\00\00\00\00\00\00\00\00\00\00\00\00\00\00\00\00\00\00\00\00\00\00\00\00\00\00\00\00\00\00\00\00\00\00\00\00\00\00\00\00\00\00\00\00\00\00\00\00\00\00\00\00\00\00\00\00\00\00\00\00\00\00\00\00\00\00\00\00\00\00\00\00\00\00\00\00\00\00\00\00\00\00\00\00\00\00\00\00\00\00\00\00\00\00\00\00\00\00\00\00\00\00\00\00\00\00\00\00\00\00\00\00\00\00\00\00\00\00\00\00\00\00\00\00\00\00\00\00\00\00\00\00\00\00\00\00\00\00\00\00\00\00\00\00\00\00\00\00\00\00\00\00\00\00\00\00\00\00\00\00\00\00\00\00\00\00\00\00\00\00\00\00\00\00\00\00\00\00\00\00\00\00\00\00\00\00\00\00\00\00\00\00\00\00\00\00\00\00\00\00\00\00\00\00\00\00\00\00\00\00\00\00\00\00\00\00\00\00\00\00\00\00\00\00\00\00\00\00\00\00\00\00\00\00\00\00\00\00\00\00\00\00\00\00\00\00\00\00\00\00\00\00\00\00\00\00\00\00\00\00\00\00\00\00\00\00\00\00\00\00\00\00\00\00\00\00\00\00\00\00\00\00\00\00\00\00\00\00\00\00\00\00\00\00\00\00\00\00\00\00\00\00\00\00\00\00\00\00\00\00\00\00\00\00\00\00\00\00\00\00\00\00\00\00\00\00\00\00\00\00\00\00\00\00\00\00\00\00\00\00\00\00\00\00\00\00\00\00\00\00\00\00\00\00\00\00\00\00\00\00\00\00\00\00\00\00\00\00\00\00\00\00\00\00\00\00\00\00\00\00\00\00\00\00\00\00\00\00\00\00\00\00\00\00\00\00\00\00\00\00\00\00\00\00\00\00\00\00\00\00\00\00\00\00\00\00\00\00\00\00\00\00\00\00\00\00\00\00\00\00\00\00\00\00\00\00\00\00\00\00\00\00\00\00\00\00\00\00\00\00\00\00\00\00\00\00\00\00\00\00\00\00\00\00\00\00\00\00\00\00\00\00\00\00\00\00\00\00\00\00\00\00\00\00\00\00\00\00\00\00\00\00\00\00\00\00\00\00\00\00\00\00\00\00\00\00\00\00\00\00\00\00\00\00\00\00\00\00\00\00\00\00\00\00\00\00\00\00\00\00\00\00\00\00\00\00\00\00\00\00\00\00\00\00\00\00\00\00\00\00\00\00\00\00\00\00\00\00\00\00\00\00\00\00\00\00\00\00\00\00\00\00\00\00\00\00\00\00\00\00\00\00\00\00\00\00\00\00\00\00\00\00\00\00\00\00\00\00\00\00\00\00\00\00\00\00\00\00\00\00\00\00\00\00\00\00\00\00\00\00\00\00\00\00\00\00\00\00\00\00\00\00\00\00\00\00\00\00\00\00\00\00\00\00\00\00\00\00\00\00\00\00\00\00\00\00\00\00\00\00\00\00\00\00\00\00\00\00\00\00\00\00\00\00\00\00\00\00\00\00\00\00\00\00\00\00\00\00\00\00\00\00\00\00\00\00\00\00\00\00\00\00\00\00\00\00\00\00\00\00\00\00\00\00\00\00\00\00\00\00\00\00\00\00\00\00\00\00\00\00\00\00\00\00\00\00\00\00\00\00\00\00\00\00\00\00\00\00\00\00\00\00\00\00\00\00\00\00\00\00\00\00\00\00\00\00\00\00\00\00\00\00\00\00\00\00\00\00\00\00\00\00\00\00\00\00\00\00\00\00\00\00\00\00\00\00\00\00\00\00\00\00\00\00\00\00\00\00\00\00\00\00\00\00\00\00\00\00\00\00\00\00\00\00\00\00\00\00\00\00\00\00\00\00\00\00\00\00\00\00\00\00\00\00\00\00\00\00\00\00\00\00\00\00\00\00\00\00\00\00\00\00\00\00\00\00\00\00\00\00\00\00\00\00\00\00\00\00\00\00\00\00\00\00\00\00\00\00\00\00\00\00\00\00\00\00\00\00\00\00\00\00\00\00\00\00\00\00\00\00\00\00\00\00\00\00\00\00\00\00\00\00\00\00\00\00\00\00\00\00\00\00\00\00\00\00\00\00\00\00\00\00\00\00\00\00\00\00\00\00\00\00\00\00\00\00\00\00\00\00\00\00\00\00\00\00\00\00\00\00\00\00\00\00\00\00\00\00\00\00\00\00\00\00\00\00\00\00\00\00\00\00\00\00\00\00\00\00\00\00\00\00\00\00\00\00\00\00\00\00\00\00\00\00\00\00\00\00\00\00\00\00\00\00\00\00\00\00\00\00\00\00\00\00\00\00\00\00\00\00\00\00\00\00\00\00\00\00\00\00\00\00\00\00\00\00\00\00\00\00\00\00\00\00\00\00\00\00\00\00\00\00\00\00\00\00\00\00\00\00\00\00\00\00\00\00\00\00\00\00\00\00\00\00\00\00\00\00\00\00\00\00\00\00\00\00\00\00\00\00\00\00\00\00\00\00\00\00\00\00\00\00\00\00\00\00\00\00\00\00\00\00\00\00\00\00\00\00\00\00\00\00\00\00\00\00\00\00\00\00\00\00\00\00\00\00\00\00\00\00\00\00\00\00\00\00\00\00\00\00\00\00\00\00\00\00\00\00\00\00\00\00\00\00\00\00\00\00\00\00\00\00\00\00\00\00\00\00\00\00\00\00\00\00\00\00\00\00\00\00\00\00\00\00\00\00\00\00\00\00\00\00\00\00\00\00\00\00\00\00\00\00\00\00\00\00\00\00\00\00\00\00\00\00\00\00\00\00\00\00\00\00\00\00\00\00\00\00\00\00\00\00\00\00\00\00\00\00\00\00\00\00\00\00\00\00\00\00\00\00\00\00\00\00\00\00\00\00\00\00\00\00\00\00\00\00\00\00\00\00\00\00\00\00\00\00\00\00\00\00\00\00\00\00\00\00\00\00\00\00\00\00\00\00\00\00\00\00\00\00\00\00\00\00\00\00\00\00\00\00\00\00\00\00\00\00\00\00\00\00\00\00\00\00\00\00\00\00\00\00\00\00\00\00\00\00\00\00\00\00\00\00\00\00\00\00\00\00\00\00\00\00\00\00\00\00\00\00\00\00\00\00\00\00\00\00\00\00\00\00\00\00\00\00\00\00\00\00\00\00\00\00\00\00\00\00\00\00\00\00\00\00\00\00\00\00\00\00\00\00\00\00\00\00\00\00\00\00\00\00\00\00\00\00\00\00\00\00\00\00\00\00\00\00\00\00\00\00\00\00\00\00\00\00\00\00\00\00\00\00\00\00\00\00\00\00\00\00\00\00\00\00\00\00\00\00\00\00\00\00\00\00\00\00\00\00\00\00\00\00\00\00\00\00\00\00\00\00\00\00\00\00\00\00\00\00\00\00\00\00\00\00\00\00\00\00\00\00\00\00\00\00\00\00\00\00\00\00\00\00\00\00\00\00\00\00\00\00\00\00\00\00\00\00\00\00\00\00\00\00\00\00\00\00\00\00\00\00\00\00\00\00\00\00\00\00\00\00\00\00\00\00\00\00\00\00\00\00\00\00\00\00\00\00\00\00\00\00\00\00\00\00\00\00\00\00\00\00\00\00\00\00\00\00\00\00\00\00\00\00\00\00\00\00\00\00\00\00\00\00\00\00\00\00\00\00\00\00\00\00\00\00\00\00\00\00\00\00\00\00\00\00\00\00\00\00\00\00\00\00\00\00\00\00\00\00\00\00\00\00\00\00\00\00\00\00\00\00\00\00\00\00\00\00\00\00\00\00\00\00\00\00\00\00\00\00\00\00\00\00\00\00\00\00\00\00\00\00\00\00\00\00\00\00\00\00\00\00\00\00\00\00\00\00\00\00\00\00\00\00\00\00\00\00\00\00\00\00\00\00\00\00\00\00\00\00\00\00\00\00\00\00\00\00\00\00\00\00\00\00\00\00\00\00\00\00\00\00\00\00\00\00\00\00\00\00\00\00\00\00\00\00\00\00\00\00\00\00\00\00\00\00\00\00\00\00\00\00\00\00\00\00\00\00\00\00\00\00\00\00\00\00\00\00\00\00\00\00\00\00\00\00\00\00\00\00\00\00\00\00\00\00\00\00\00\00\00\00\00\00\00\00\00\00\00\00\00\00\00\00\00\00\00\00\00\00\00\00\00\00\00\00\00\00\00\00\00\00\00\00\00\00\00\00\00\00\00\00\00\00\00\00\00\00\00\00\00\00\00\00\00\00\00\00\00\00\00\00\00\00\00\00\00\00\00\00\00\00\00\00\00\00\00\00\00\00\00\00\00\00\00\00\00\00\00\00\00\00\00\00\00\00\00\00\00\00\00\00\00\00\00\00\00\00\00\00\00\00\00\00\00\00\00\00\00\00\00\00\00\00\00\00\00\00\00\00\00\00\00\00\00\00\00\00\00\00\00\00\00\00\00\00\00\00\00\00\00\00\00\00\00\00\00\00\00\00\00\00\00\00\00\00\00\00\00\00\00\00\00\00\00\00\00\00\00\00\00\00\00\00\00\00\00\00\00\00\00\00\00\00\00\00\00\00\00\00\00\00\00\00\00\00\00\00\00\00\00\00\00\00\00\00\00\00\00\00\00\00\00\00\00\00\00\00\00\00\00\00\00\00\00\00\00\00\00\00\00\00\00\00\00\00\00\00\00\00\00\00\00\00\00\00\00\00\00\00\00\00\00\00\00\00\00\00\00\00\00\00\00\00\00\00\00\00\00\00\00\00\00\00\00\00\00\00\00\00\00\00\00\00\00\00\00\00\00\00\00\00\00\00\00\00\00\00\00\00\00\00\00\00\00\00\00\00\00\00\00\00\00\00\00\00\00\00\00\00\00\00\00\00\00\00\00\00\00\00\00\00\00\00\00\00\00\00\00\00\00\00\00\00\00\00\00\00\00\00\00\00\00\00\00\00\00\00\00\00\00\00\00\00\00\00\00\00\00\00\00\00\00\00\00\00\00\00\00\00\00\00\00\00\00\00\00\00\00\00\00\00\00\00\00\00\00\00\00\00\00\00\00\00\00\00\00\00\00\00\00\00\00\00\00\00\00\00\00\00\00\00\00\00\00\00\00\00\00\00\00\00\00\00\00\00\00\00\00\00\00\00\00\00\00\00\00\00\00\00\00\00\00\00\00\00\00\00\00\00\00\00\00\00\00\00\00\00\00\00\00\00\00\00\00\00\00\00\00\00\00\00\00\00\00\00\00\00\00\00\00\00\00\00\00\00\00\00\00\00\00\00\00\00\00\00\00\00\00\00\00\00\00\00\00\00\00\00\00\00\00\00\00\00\00\00\00\00\00\00\00\00\00\00\00\00\00\00\00\00\00\00\00\00\00\00\00\00\00\00\00\00\00\00\00\00\00\00\00\00\00\00\00\00\00\00\00\00\00\00\00\00\00\00\00\00\00\00\00\00\00\00\00\00\00\00\00\00\00\00\00\00\00\00\00\00\00\00\00\00\00\00\00\00\00\00\00\00\00\00\00\00\00\00\00\00\00\00\00\00\00\00\00\00\00\00\00\00\00\00\00\00\00\00\00\00\00\00\00\00\00\00\00\00\00\00\00\00\00\00\00\00\00\00\00\00\00\00\00\00\00\00\00\00\00\00\00\00\00\00\00\00\00\00\00\00\00\00\00\00\00\00\00\00\00\00\00\00\00\00\00\00\00\00\00\00\00\00\00\00\00\00\00\00\00\00\00\00\00\00\00\00\00\00\00\00\00\00\00\00\00\00\00\00\00\00\00\00\00\00\00\00\00\00\00\00\00\00\00\00\00\00\00\00\00\00\00\00\00\00\00\00\00\00\00\00\00\00\00\00\00\00\00\00\00\00\00\00\00\00\00\00\00\00\00\00\00\00\00\00\00\00\00\00\00\00\00\00\00\00\00\00\00\00\00\00\00\00\00\00\00\00\00\00\00\00\00\00\00\00\00\00\00\00\00\00\00\00\00\00\00\00\00\00\00\00\00\00\00\00\00\00\00\00\00\00\00\00\00\00\00\00\00\00\00\00\00\00\00\00\00\00\00\00\00\00\00\00\00\00\00\00\00\00\00\00\00\00\00\00\00\00\00\00\00\00\00\00\00\00\00\00\00\00\00\00\00\00\00\00\00\00\00\00\00\00\00\00\00\00\00\00\00\00\00\00\00\00\00\00\00\00\00\00\00\00\00\00\00\00\00\00\00\00\00\00\00\00\00\00\00\00\00\00\00\00\00\00\00\00\00\00\00\00\00\00\00\00\00\00\00\00\00\00\00\00\00\00\00\00\00\00\00\00\00\00\00\00\00\00\00\00\00\00\00\00\00\00\00\00\00\00\00\00\00\00\00\00\00\00\00\00\00\00\00\00\00\00\00\00\00\00\00\00\00\00\00\00\00\00\00\00\00\00\00\00\00\00\00\00\00\00\00\00\00\00\00\00\00\00\00\00\00\00\00\00\00\00\00\00\00\00\00\00\00\00\00\00\00\00\00\00\00\00\00\00\00\00\00\00\00\00\00\00\00\00\00\00\00\00\00\00\00\00\00\00\00\00\00\00\00\00\00\00\00\00\00\00\00\00\00\00\00\00\00\00\00\00\00\00\00\00\00\00\00\00\00\00\00\00\00\00\00\00\00\00\00\00\00\00\00\00\00\00\00\00\00\00\00\00\00\00\00\00\00\00\00\00\00\00\00\00\00\00\00\00\00\00\00\00\00\00\00\00\00\00\00\00\00\00\00\00\00\00\00\00\00\00\00\00\00\00\00\00\00\00\00\00\00\00\00\00\00\00\00\00\00\00\00\00\00\00\00\00\00\00\00\00\00\00\00\00\00\00\00\00\00\00\00\00\00\00\00\00\00\00\00\00\00\00\00\00\00\00\00\00\00\00\00\00\00\00\00\00\00\00\00\00\00\00\00\00\00\00\00\00\00\00\00\00\00\00\00\00\00\00\00\00\00\00\00\00\00\00\00\00\00\00\00\00\00\00\00\00\00\00\00\00\00\00\00\00\00\00\00\00\00\00\00\00\00\00\00\00\00\00\00\00\00\00\00\00\00\00\00\00\00\00\00\00\00\00\00\00\00\00\00\00\00\00\00\00\00\00\00\00\00\00\00\00\00\00\00\00\00\00\00\00\00\00\00\00\00\00\00\00\00\00\00\00\00\00\00\00\00\00\00\00\00\00\00\00\00\00\00\00\00\00\00\00\00\00\00\00\00\00\00\00\00\00\00\00\00\00\00\00\00\00\00\00\00\00\00\00\00\00\00\00\00\00\00\00\00\00\00\00\00\00\00\00\00\00\00\00\00\00\00\00\00\00\00\00\00\00\00\00\00\00\00\00\00\00\00\00\00\00\00\00\00\00\00\00\00\00\00\00\00\00\00\00\00\00\00\00\00\00\00\00\00\00\00\00\00\00\00\00\00\00\00\00\00\00\00\00\00\00\00\00\00\00\00\00\00\00\00\00\00\00\00\00\00\00\00\00\00\00\00\00\00\00\00\00\00\00\00\00\00\00\00\00\00\00\00\00\00\00\00\00\00\00\00\00\00\00\00\00\00\00\00\00\00\00\00\00\00\00\00\00\00\00\00\00\00\00\00\00\00\00\00\00\00\00\00\00\00\00\00\00\00\00\00\00\00\00\00\00\00\00\00\00\00\00\00\00\00\00\00\00\00\00\00\00\00\00\00\00\00\00\00\00\00\00\00\00\00\00\00\00\00\00\00\00\00\00\00\00\00\00\00\00\00\00\00\00\00\00\00\00\00\00\00\00\00\00\00\00\00\00\00\00\00\00\00\00\00\00\00\00\00\00\00\00\00\00\00\00\00\00\00\00\00\00\00\00\00\00\00\00\00\00\00\00\00\00\00\00\00\00\00\00\00\00\00\00\00\00\00\00\00\00\00\00\00\00\00\00\00\00\00\00\00\00\00\00\00\00\00\00\00\00\00\00\00\00\00\00\00\00\00\00\00\00\00\00\00\00\00\00\00\00\00\00\00\00\00\00\00\00\00\00\00\00\00\00\00\00\00\00\00\00\00\00\00\00\00\00\00\00\00\00\00\00\00\00\00\00\00\00\00\00\00\00\00\00\00\00\00\00\00\00\00\00\00\00\00\00\00\00\00\00\00\00\00\00\00\00\00\00\00\00\00\00\00\00\00\00\00\00\00\00\00\00\00\00\00\00\00\00\00\00\00\00\00\00\00\00\00\00\00\00\00\00\00\00\00\00\00\00\00\00\00\00\00\00\00\00\00\00\00\00\00\00\00\00\00\00\00\00\00\00\00\00\00\00\00\00\00\00\00\00\00\00\00\00\00\00\00\00\00\00\00\00\00\00\00\00\00\00\00\00\00\00\00\00\00\00\00\00\00\00\00\00\00\00\00\00\00\00\00\00\00\00\00\00\00\00\00\00\00\00\00\00\00\00\00\00\00\00\00\00\00\00\00\00\00\00\00\00\00\00\00\00\00\00\00\00\00\00\00\00\00\00\00\00\00\00\00\00\00\00\00\00\00\00\00\00\00\00\00\00\00\00\00\00\00\00\00\00\00\00\00\00\00\00\00\00\00\00\00\00\00\00\00\00\00\00\00\00\00\00\00\00\00\00\00\00\00\00\00\00\00\00\00\00\00\00\00\00\00\00\00\00\00\00\00\00\00\00\00\00\00\00\00\00\00\00\00\00\00\00\00\00\00\00\00\00\00\00\00\00\00\00\00\00\00\00\00\00\00\00\00\00\00\00\00\00\00\00\00\00\00\00\06\00\00\00\00\00\00\00\80\04\00\00\00\00\00\00\0B\00\00\00\00\00\00\00\18\00\00\00\00\00\00\00\05\00\00\00\00\00\00\000\05\00\00\00\00\00\00\0A\00\00\00\00\00\00\00S\00\00\00\00\00\00\00\F5\FE\FFo\00\00\00\00\E0\04\00\00\00\00\00\00\04\00\00\00\00\00\00\00\08\05\00\00\00\00\00\00\00\00\00\00\00\00\00\00\00\00\00\00\00\00\00\00\01\11\01%%\13\05\03%r\17\10\17\1B%\89|%\11\1B\12\06s\17t\17\00\00\024\00\03%I\13:\0B;\05\02\18n%\00\00\03&\00I\13\00\00\04\13\016\0B\03%\0B\0B:\0B;\05\00\00\05/\00I\13\03%\00\00\06\0D\00\03%I\13:\0B;\05?\19<\19\00\00\07.\01n%\03%:\0B;\05I\13<\19?\19\00\00\08\05\00I\134\19\00\00\09\16\00I\13\03%:\0B;\05\00\00\0A\05\00I\13\00\00\0B\16\00I\13\03%:\0B;\0B\00\00\0C$\00\03%>\0B\0B\0B\00\00\0D\0F\00I\13\00\00\0E\0D\00\03%I\13:\0B;\058\0B\00\00\0F.\01\03%:\0B;\05<\19?\19\00\00\104\00G\13\02\18n%\00\00\119\01\03%\00\00\12\04\01I\13\03%\0B\0B:\0B;\0B\00\00\13(\00\03%\1C\0F\00\00\14\08\00:\0B;\0B\18\13\00\00\15.\01n%\03%:\0B;\0BI\13<\19?\19\00\00\16\08\00:\0B;\05\18\13\00\00\174\00\03&I\13:\0B;\0B<\19n&\00\00\189\00\03%\00\00\19\02\00\03%<\19\00\00\1A.\01n%\03%:\0B;\0B<\19?\19\87\01\19\00\00\1B\16\00I\13\03&:\0B;\05\00\00\1C.\01\03%:\0B;\05I\13<\19?\19\00\00\1D.\01\03%:\0B;\0BI\13<\19?\19\00\00\1E\13\00<\19\00\00\1F\13\016\0B\0B\0B:\0B;\0B\00\00 \0D\00\03%I\13:\0B;\0B8\0B\00\00!.\00\03%:\0B;\05<\19?\19\87\01\19\00\00\22\15\00\00\00#\0F\00\00\00$&\00\00\00%\15\01I\13\00\00&.\01\03%:\0B;\05<\19?\19\87\01\19\00\00'7\00I\13\00\00(.\00\03%:\0B;\05I\13<\19?\19\00\00):\00:\0B;\0B\18\13\00\00*.\01n%\03%:\0B;\0BI\13<\19\00\00+.\01n&\03%:\0B;\0BI\13<\19\00\00,.\01n&\03&:\0B;\0BI\13<\19\00\00-$\00\03&>\0B\0B\0B\00\00..\01n&\03%:\0B;\05I\13<\19\00\00/.\01n&\03&:\0B;\05I\13<\19\00\000\16\00I\13\03&:\0B;\0B\00\001\0D\00\03&I\13:\0B;\0B8\0B\00\002\17\016\0B\0B\0B:\0B;\0B\00\003\01\01I\13\00\004!\00I\137\0B\00\005$\00\03&\0B\0B>\0B\00\006.\01\03&:\0B;\05I\13<\19?\19\00\007\13\016\0B\03&\0B\0B:\0B;\0B\00\008\13\00\03&<\19\00\009\16\00\03&:\0B;\0B\00\00:\18\00\00\00;.\01n&\03&:\0B;\05I\13<\19?\19\00\00<.\00\03&:\0B;\05I\13<\19?\19\00\00=\16\00I\13\03&\00\00>.\01\03&:\0B;\0BI\13<\19?\19\00\00?.\00\03&:\0B;\0BI\13<\19?\19\00\00@.\01\03&:\0B;\05<\19?\19\00\00A.\01G\13 !\01d\13\00\00B\05\00\03&I\134\19\00\00C\05\00\03%:\0B;\05I\13\00\00D.\01\11\1B\12\06z\19n&\03&:\0B;\0B?\19\00\00E\1D\011\13U#X\0BY\0BW\0B\00\00F\1D\001\13U#X\0BY\05W\0B\00\00\00\F06\00\00\05\00\01\08\00\00\00\00\01\00\1A\00\01\08\00\00\00\00\00\00\00\02\03\00|\00\00\00\08\00\00\00\0C\00\00\00\02\043\00\00\00\01p\01\00\1B\038\00\00\00\04\05\1A\01\01(\01\05\C2\00\00\00\0B\06\0C\FD\00\00\00\01/\01\04\05\10\01\01+\01\07\0D\0E\01+\01f\00\00\00\08\02\01\00\00\00\00\09\DF\00\00\00\0F\01)\01\06\11\07\01\00\00\010\01\04\05\13\01\01,\01\07\12\0E\01,\01f\00\00\00\08\0C\01\00\00\00\00\06\14\11\01\00\00\011\01\04\05\16\01\01-\01\07\15\0E\01-\01f\00\00\00\08\16\01\00\00\00\00\07\17\18\013\01\1B\01\00\00\08i\01\00\00\00\00\04\05\0A\01\01\15\01\07\05\06\01\17\01\DF\00\00\00\08\F3\00\00\00\0A\DF\00\00\00\00\00\0B\E7\00\00\00\09\03\1A\0B\EF\00\00\00\08\02*\0C\07\07\04\0D\F8\00\00\00\03\C2\00\00\00\03N\00\00\00\0D\FD\00\00\00\03x\00\00\00\0D\07\01\00\00\03\99\00\00\00\0D\11\01\00\00\09$\01\00\00\19\04\AD\03\04\05\19\0C\04\A6\03\0E\0C\DF\00\00\00\04\A7\03\00\0E\11\DF\00\00\00\04\A8\03\04\0E\14\DF\00\00\00\04\A9\03\08\0F\19\04\AB\03\08d\01\00\00\0A\DF\00\00\00\0A\DF\00\00\00\0A\DF\00\00\00\00\00\0D$\01\00\00\0D3\00\00\00\10E\00\00\00\0F\03\00\06\00\00\00\00\00\00\9F\94\08\10\00\E1\1C\11\1D\12\EF\00\00\00!\04\051\13\1E\00\13\1F\01\13 \02\00\14\0B\C8\D2\1B\00\00\14\0B\CE\F2\1B\00\00\14\0B\D2\FD\1B\00\00\14\0B\D8\0C\1C\00\00\14\0B\E3 \1C\00\00\14\0B\E4/\1C\00\00\14\0B\E5G\1C\00\00\14\0B\E7c\1C\00\00\14\0B\E8v\1C\00\00\15\DB\BB\0B\D5\D2\1B\00\00\0A\82\15\00\00\0A\82\15\00\00\00\14\17\FB\B3-\00\00\16\17\04\01\C8-\00\00\16\17\05\01\E2-\00\00\14!,\00\0E\00\00\14!-\09\0E\00\00\14'\AF\E93\00\00\14'\B0\044\00\00\14'\B1 4\00\00\14'\B274\00\00\14'\B3V4\00\00\17\91\02s6\00\00\055\92\02\00\11\22\14\074\D0\10\00\00\14\09S\E3\10\00\00\14\09f\F5\10\00\00\14\09y\03\11\00\00\14\09\8C\11\11\00\00\14\09\A1$\11\00\00\14\09\B42\11\00\00\14\09\C7@\11\00\00\14\09\DAN\11\00\00\14\09\ED\\\11\00\00\16\09\00\01j\11\00\00\16\09\13\01x\11\00\00\16\09(\01\8B\11\00\00\16\09;\01\A3\11\00\00\16\09N\01\B6\11\00\00\16\09a\01\C4\11\00\00\16\09t\01\D2\11\00\00\16\09\80\01\EA\11\00\00\16\09\A5\01\FD\11\00\00\16\09\B8\01\0B\12\00\00\16\09\CB\01\19\12\00\00\16\09\DE\01'\12\00\00\16\09\F1\015\12\00\00\16\09)\04C\12\00\00\16\09*\04K\12\00\00\16\09-\04W\12\00\00\16\09.\04e\12\00\00\16\09/\04s\12\00\00\16\091\04\85\12\00\00\16\092\04\93\12\00\00\16\093\04\A1\12\00\00\16\095\04\AF\12\00\00\16\096\04\BD\12\00\00\16\097\04\CB\12\00\00\16\099\04\D9\12\00\00\16\09:\04\E7\12\00\00\16\09;\04\F5\12\00\00\16\09=\04\03\13\00\00\16\09>\04\16\13\00\00\16\09?\04)\13\00\00\16\09A\04<\13\00\00\16\09B\04J\13\00\00\16\09C\04X\13\00\00\16\09E\04f\13\00\00\16\09F\04t\13\00\00\16\09G\04\82\13\00\00\16\09I\04\90\13\00\00\16\09J\04\9E\13\00\00\16\09K\04\AC\13\00\00\16\09M\04\BA\13\00\00\16\09N\04\C8\13\00\00\16\09O\04\D6\13\00\00\16\09Q\04\E4\13\00\00\16\09R\04\F8\13\00\00\16\09S\04\0C\14\00\00\16\09U\04 \14\00\00\16\09V\049\14\00\00\16\09W\04R\14\00\00\16\09Y\04k\14\00\00\16\09Z\04\7F\14\00\00\16\09[\04\93\14\00\00\16\09]\04\A7\14\00\00\16\09^\04\BB\14\00\00\16\09_\04\CF\14\00\00\16\09a\04\E3\14\00\00\16\09b\04\F6\14\00\00\16\09c\04\09\15\00\00\16\09e\04\1C\15\00\00\16\09f\04+\15\00\00\16\09g\04:\15\00\00\16\09i\04I\15\00\00\16\09j\04W\15\00\00\16\09k\04e\15\00\00\16\09n\04s\15\00\00\16\09o\04\86\15\00\00\16\09p\04\95\15\00\00\16\09r\04\A4\15\00\00\16\09s\04\B3\15\00\00\16\09t\04\C2\15\00\00\16\09w\04\D1\15\00\00\16\09x\04\DF\15\00\00\16\09y\04\ED\15\00\00\16\09{\04\FB\15\00\00\16\09|\04\09\16\00\00\16\09}\04\17\16\00\00\16\09\7F\04%\16\00\00\16\09\80\043\16\00\00\16\09\81\04A\16\00\00\16\09\83\04O\16\00\00\16\09\84\04b\16\00\00\16\09\85\04q\16\00\00\16\09\87\04\80\16\00\00\16\09\88\04\8F\16\00\00\16\09\89\04\9E\16\00\00\16\09\8B\04\AD\16\00\00\16\09\8C\04\C9\16\00\00\16\09\8D\04\D7\16\00\00\16\09\8F\04\E5\16\00\00\16\09\90\04\F4\16\00\00\16\09\91\04\03\17\00\00\16\09\93\04\12\17\00\00\16\09\94\04&\17\00\00\16\09\95\04:\17\00\00\16\09\97\04N\17\00\00\16\09\98\04b\17\00\00\16\09\99\04v\17\00\00\16\09\9B\04\8A\17\00\00\16\09\9C\04\9E\17\00\00\16\09\9D\04\B2\17\00\00\16\09\9F\04\C6\17\00\00\16\09\A0\04\DF\17\00\00\16\09\A1\04\F8\17\00\00\16\09\A3\04\11\18\00\00\16\09\A4\04 \18\00\00\16\09\A5\04/\18\00\00\16\09\A7\04>\18\00\00\16\09\A8\04M\18\00\00\16\09\A9\04\\\18\00\00\16\09\AB\04k\18\00\00\16\09\AC\04\7F\18\00\00\16\09\AD\04\93\18\00\00\16\09\AF\04\A7\18\00\00\16\09\B0\04\BB\18\00\00\16\09\B1\04\CF\18\00\00\16\09\B3\04\E3\18\00\00\16\09\B4\04\F1\18\00\00\16\09\B5\04\FF\18\00\00\16\09\B7\04\0D\19\00\00\16\09\B8\04\1C\19\00\00\16\09\B9\04+\19\00\00\14\0B\7F:\19\00\00\14\0B\80C\19\00\00\14\0B\82c\19\00\00\14\0B\86h\19\00\00\14\0B\89}\19\00\00\14\0B\8C\8C\19\00\00\14\0B\8D\9A\19\00\00\14\0B\8E\A9\19\00\00\14\0B\8F\B8\19\00\00\14\0B\90\0B\1A\00\00\14\0B\91\1F\1A\00\00\14\0B\923\1A\00\00\14\0B\93>\1A\00\00\14\0B\94I\1A\00\00\14\0B\95]\1A\00\00\14\0B\96l\1A\00\00\14\0B\97\80\1A\00\00\14\0B\99\8F\1A\00\00\14\0B\9A\A3\1A\00\00\14\0B\9B\CF\1A\00\00\14\0B\9D\E8\1A\00\00\14\0B\A0\02\1B\00\00\14\0B\A3\0D\1B\00\00\14\0B\A4\16\1B\00\00\14\0B\A5*\1B\00\00\14\0B\A65\1B\00\00\14\0B\A7R\1B\00\00\14\0B\A8j\1B\00\00\14\0B\A9\82\1B\00\00\14\0B\AB\91\1B\00\00\14\0B\AC\BE\1B\00\00\14\0B\F0\D2\1B\00\00\14\0B\F2\F2\1B\00\00\14\0B\F4\FD\1B\00\00\14\0B\F5\D8\01\00\00\14\0B\F6\0C\1C\00\00\14\0B\F8 \1C\00\00\14\0B\F9c\1C\00\00\14\0B\FA/\1C\00\00\14\0B\FBG\1C\00\00\14\0B\FCv\1C\00\00\15\DC#\07O\81\12\00\00\0A\81\12\00\00\00\18\DE\11\DF\19\E0\14\11I\8B\07\00\00\00\14\119z\07\00\00\1A\E1\E2\11E\0Az\07\00\00\00\14\12\C8s\1D\00\00\14\12\C9\82\1D\00\00\14\12\CA\91\1D\00\00\14\12\CB\A0\1D\00\00\14\12\CC\AF\1D\00\00\14\12\CD\BE\1D\00\00\14\12\CE\CD\1D\00\00\14\12\CF\E1\1D\00\00\14\12\D0\F0\1D\00\00\14\12\D1\FF\1D\00\00\14\12\D2\0E\1E\00\00\14\12\D3\22\1E\00\00\14\12\D41\1E\00\00\14\12\D5@\1E\00\00\14\12\D6O\1E\00\00\14\12\D7^\1E\00\00\14\12\D8m\1E\00\00\14\12\D9|\1E\00\00\14\12\DA\8B\1E\00\00\14\12\DB\9A\1E\00\00\14\12\DC\AE\1E\00\00\14\12\DD\BD\1E\00\00\14\12\DE\D6\1E\00\00\14\12\DF\EA\1E\00\00\14\12\E0\FE\1E\00\00\14\12\E1\12\1F\00\00\14\12\E2!\1F\00\00\14\12\E35\1F\00\00\14\12\E4I\1F\00\00\14\12\E5Y\1F\00\00\14\12\E6o\1F\00\00\14\12\E7\85\1F\00\00\14\12\E8\9B\1F\00\00\14\12\E9\AC\1F\00\00\14\12\EA\C2\1F\00\00\14\12\EB\D8\1F\00\00\14\12\EC\EE\1F\00\00\14\12\ED\FF\1F\00\00\14\12\EE\10 \00\00\14\12\EF& \00\00\14\12\F06 \00\00\14\12\F1K \00\00\14\12\F2[ \00\00\14\12\F3k \00\00\14\12\F4{ \00\00\14\12\F5\8B \00\00\14\12\F6\9B \00\00\14\12\F7\AB \00\00\14\12\F8\BB \00\00\14\12\F9\CB \00\00\14\12\FA\DB \00\00\14\12\FB\EB \00\00\14\12\FC\FB \00\00\14\12\FD\15!\00\00\14\12\FE%!\00\00\14\12\FF5!\00\00\16\12\00\01E!\00\00\16\12\01\01Z!\00\00\16\12\02\01o!\00\00\16\12\03\01\84!\00\00\16\12\04\01\9E!\00\00\16\12\05\01\AE!\00\00\16\12\06\01\BE!\00\00\16\12\07\01\D3!\00\00\16\12\08\01\E8!\00\00\16\12\09\01\F9!\00\00\16\12\0A\01\09\22\00\00\16\12\0B\01\19\22\00\00\16\12\0C\01)\22\00\00\16\12\0D\019\22\00\00\16\12\0E\01I\22\00\00\16\12\0F\01Y\22\00\00\16\14\D9\02i\22\00\00\16\14\DA\02z\22\00\00\16\14\DB\02\8A\22\00\00\16\14\DC\02\9B\22\00\00\16\14\DD\02\AB\22\00\00\16\14\DE\02\C1\22\00\00\16\14\DF\02\D2\22\00\00\16\14\E0\02\E2\22\00\00\16\14\E1\02\F2\22\00\00\16\14\E2\02\03#\00\00\16\14\E3\02\18#\00\00\16\14\E4\02)#\00\00\16\14\E5\02:#\00\00\16\14\E6\02J#\00\00\16\14\E7\02Z#\00\00\16\14\E8\02j#\00\00\16\14\E9\02{#\00\00\16\14\EA\02\8C#\00\00\16\14\EB\02\9E#\00\00\16\14\EC\02\B4#\00\00\16\14\ED\02\C6#\00\00\16\14\EE\02\E1#\00\00\16\14\EF\02\F7#\00\00\16\14\F0\02\0D$\00\00\16\14\F1\02$$\00\00\16\14\F2\02;$\00\00\16\14\F3\02Q$\00\00\16\14\F4\02b$\00\00\16\14\F5\02y$\00\00\16\14\F6\02\8A$\00\00\16\14\F7\02\9B$\00\00\16\14\F8\02\AC$\00\00\16\14\F9\02\BE$\00\00\16\14\FA\02\CF$\00\00\16\14\FB\02\E0$\00\00\16\14\FC\02\F1$\00\00\16\14\FD\02\03%\00\00\16\14\FE\02\14%\00\00\16\14\FF\02%%\00\00\16\14\00\03<%\00\00\16\14\01\03M%\00\00\16\14\03\03c%\00\00\16\14\04\03z%\00\00\16\14\05\03\90%\00\00\16\14\06\03\AB%\00\00\16\14\07\03\BC%\00\00\16\14\08\03\CD%\00\00\16\14\09\03\E3%\00\00\16\14\0A\03\F9%\00\00\16\14\0B\03\0B&\00\00\16\14\0C\03\1D&\00\00\16\14\0D\03/&\00\00\16\14\0E\03A&\00\00\16\14\0F\03S&\00\00\16\14\10\03d&\00\00\14\17@u&\00\00\14\17\8D\CC&\00\00\14\17\8F\D5&\00\00\14\17\90\E5&\00\00\14\17\91\88(\00\00\14\17\92\A7(\00\00\14\17\93\BC(\00\00\14\17\94\D1(\00\00\14\17\95\E6(\00\00\14\17\96\FC(\00\00\14\17\97\14)\00\00\14\17\98$)\00\00\14\17\99.)\00\00\14\17\9AR)\00\00\14\17\9Bq)\00\00\14\17\9C\8B)\00\00\14\17\9D\B4)\00\00\14\17\9E\C9)\00\00\14\17\A0\D9)\00\00\14\17\A2\F4)\00\00\14\17\A3\0C*\00\00\14\17\A4!*\00\00\14\17\A6K*\00\00\14\17\A9g*\00\00\14\17\AC\86*\00\00\14\17\AE\A2*\00\00\14\17\B0\B7*\00\00\14\17\B2\CE*\00\00\14\17\B3\E8*\00\00\14\17\B4\FC*\00\00\14\17\B5\10+\00\00\14\17\B6$+\00\00\14\17\B78+\00\00\14\17\B8L+\00\00\14\17\B9}+\00\00\14\17\BA\8C+\00\00\14\17\BB\A5+\00\00\14\17\BC\BE+\00\00\14\17\BD\D7+\00\00\14\17\BE\00,\00\00\14\17\BF\14,\00\00\14\17\C13,\00\00\14\17\C3H,\00\00\14\17\C4a,\00\00\14\17\C5{,\00\00\14\17\C6\95,\00\00\14\17\C7\AE,\00\00\14\17\C8\BE,\00\00\14\17\C9\D8,\00\00\14\17\CA\F2,\00\00\14\17\CB\0C-\00\00\14\17\CC&-\00\00\14\17\CD7-\00\00\14\17\CEJ-\00\00\14\17\CF^-\00\00\14\17\D0r-\00\00\14\17\D1\86-\00\00\14\17\D2\9A-\00\00\16\17\0B\01\B3-\00\00\16\17\0C\01\C8-\00\00\16\17\0D\01\E2-\00\00\16\17\1B\013,\00\00\16\17\1E\01K*\00\00\16\17!\01\86*\00\00\16\17$\01\B7*\00\00\16\17(\01\B3-\00\00\16\17)\01\C8-\00\00\16\17*\01\E2-\00\00\14\1E/\FC-\00\00\14\1E0\0E.\00\00\14\1E1%.\00\00\14\1E27.\00\00\14\1E4I.\00\00\14\1E5R.\00\00\14\1E6[.\00\00\14\1E7d.\00\00\14\1E9m.\00\00\14\1E:\7F.\00\00\14\1E;\91.\00\00\14\1E<\A3.\00\00\14\1E>\B5.\00\00\14\1E?\C7.\00\00\14\1EA\D0.\00\00\14\1EB\E7.\00\00\14\1EC\DF\00\00\00\14\1ED\F9.\00\00\14\1EF\0B/\00\00\14\1EG\14/\00\00\14\1EH\1D/\00\00\14\1EI&/\00\00\14\1EK//\00\00\14\1ELA/\00\00\14\1EMS/\00\00\14\1ENe/\00\00\14\1EPw/\00\00\14\1EQ\89/\00\00\09\E9\19\00\00\B8 \02\01\1B^\16\00\00&\02 \03\01\14\225\92/\00\00\14\226\95/\00\00\14\227\A9/\00\00\14%@\B7/\00\00\14%A\C6/\00\00\14%B\D5/\00\00\14%C\E4/\00\00\14%D\F3/\00\00\14%E\020\00\00\14%F\110\00\00\14%G 0\00\00\14%H/0\00\00\14%I>0\00\00\14%JM0\00\00\14%K\\0\00\00\14%Lk0\00\00\14%Wz0\00\00\14'b\890\00\00\14'c\920\00\00\14'e\A70\00\00\14'f\B80\00\00\14'g\C70\00\00\14'h\D70\00\00\14'i\E70\00\00\14'j\F60\00\00\14'k\061\00\00\14'l*1\00\00\14'mD1\00\00\14'nX1\00\00\14'on1\00\00\14'p\831\00\00\14'q\981\00\00\14'r\BC1\00\00\14's\D51\00\00\14't\ED1\00\00\14'u\072\00\00\14'v&2\00\00\14'w62\00\00\14'xZ2\00\00\14'yj2\00\00\14'|s2\00\00\14'~\832\00\00\14'\7F\8F2\00\00\14'\80\A02\00\00\14'\81\B52\00\00\14'\82\C42\00\00\14'\83\D42\00\00\14'\84\E32\00\00\14'\85\F72\00\00\14'\86\033\00\00\14'\87\163\00\00\14'\88'3\00\00\14'\89F3\00\00\14'\8A\\3\00\00\14'\8Bt3\00\00\14'\8D}3\00\00\14'\8F\8C3\00\00\14'\90\A13\00\00\14'\91\BB3\00\00\14'\92\CF3\00\00\14'\B9\E93\00\00\14'\BA\044\00\00\14'\BB 4\00\00\14'\BC74\00\00\14'\BDV4\00\00\14,Rr4\00\00\14,S\854\00\00\14,T\CC&\00\00\14,V\8E4\00\00\14,W\9D4\00\00\14,Y\AC4\00\00\14,[\BB4\00\00\14,\\\CA4\00\00\14,]\DE4\00\00\14,^\ED4\00\00\14,_\FC4\00\00\14,`\0B5\00\00\14,a\1A5\00\00\14,b)5\00\00\14,c85\00\00\14,dG5\00\00\14,eV5\00\00\14,fj5\00\00\14,gy5\00\00\14,h\885\00\00\14,i\975\00\00\14/<\A65\00\00\14/=\B85\00\00\14/>z+\00\00\14/@\CA5\00\00\14/A\D35\00\00\14/B\E75\00\00\14/C\FB5\00\00\14/D\0F6\00\00\14/E\1E6\00\00\14/F76\00\00\14/GF6\00\00\14/HU6\00\00\142V\86\01\00\00\142W4\02\00\00\00\1C#\06H\03\DF\10\00\00\0A\DF\10\00\00\00\0C$\05\04\1D%\085\F1\10\00\00\0A\F1\10\00\00\00\0C&\04\08\1D'\087\F1\10\00\00\0A\F1\10\00\00\00\1D(\089\F1\10\00\00\0A\F1\10\00\00\00\1D)\08;\F1\10\00\00\0A\F1\10\00\00\0A\F1\10\00\00\00\1D*\08\9F\F1\10\00\00\0A\F1\10\00\00\00\1D+\08>\F1\10\00\00\0A\F1\10\00\00\00\1D,\08G\F1\10\00\00\0A\F1\10\00\00\00\1D-\08_\F1\10\00\00\0A\F1\10\00\00\00\1D.\08\A2\F1\10\00\00\0A\F1\10\00\00\00\1D/\08\A5\F1\10\00\00\0A\F1\10\00\00\00\1D0\08\A8\F1\10\00\00\0A\F1\10\00\00\0A\F1\10\00\00\00\1D1\08b\F1\10\00\00\0A\F1\10\00\00\0A\9E\11\00\00\00\0D\DF\10\00\00\1D2\08e\F1\10\00\00\0A\F1\10\00\00\0A\DF\10\00\00\00\1D3\08h\F1\10\00\00\0A\F1\10\00\00\00\1D4\08k\F1\10\00\00\0A\F1\10\00\00\00\1D5\08n\F1\10\00\00\0A\F1\10\00\00\0A\E5\11\00\00\00\0D\F1\10\00\00\1D6\08\8C\F1\10\00\00\0A\F1\10\00\00\0A\F1\10\00\00\00\1D7\08@\F1\10\00\00\0A\F1\10\00\00\00\1D8\08I\F1\10\00\00\0A\F1\10\00\00\00\1D9\08\8F\F1\10\00\00\0A\F1\10\00\00\00\1D:\08B\F1\10\00\00\0A\F1\10\00\00\00\1D;\08K\F1\10\00\00\0A\F1\10\00\00\00\0B\F1\10\00\00<\0A\96\0BS\12\00\00>\0A\95\0C=\04\04\1D?\08U\F1\10\00\00\0A\F1\10\00\00\00\1D@\08US\12\00\00\0AS\12\00\00\00\1DA\08U\81\12\00\00\0A\81\12\00\00\00\0CB\04\08\1DC\08W\F1\10\00\00\0A\F1\10\00\00\00\1DD\08WS\12\00\00\0AS\12\00\00\00\1DE\08W\81\12\00\00\0A\81\12\00\00\00\1DF\08Y\F1\10\00\00\0A\F1\10\00\00\00\1DG\08YS\12\00\00\0AS\12\00\00\00\1DH\08Y\81\12\00\00\0A\81\12\00\00\00\1DI\08\98\F1\10\00\00\0A\F1\10\00\00\00\1DJ\08\98S\12\00\00\0AS\12\00\00\00\1DK\08\98\81\12\00\00\0A\81\12\00\00\00\1DL\08\C4\F1\10\00\00\0A\F1\10\00\00\0A\F1\10\00\00\00\1DM\08\C4S\12\00\00\0AS\12\00\00\0AS\12\00\00\00\1DN\08\C4\81\12\00\00\0A\81\12\00\00\0A\81\12\00\00\00\1DO\08\E4\F1\10\00\00\0A\F1\10\00\00\00\1DP\08\E4S\12\00\00\0AS\12\00\00\00\1DQ\08\E4\81\12\00\00\0A\81\12\00\00\00\1DR\08\E5\F1\10\00\00\0A\F1\10\00\00\00\1DS\08\E5S\12\00\00\0AS\12\00\00\00\1DT\08\E5\81\12\00\00\0A\81\12\00\00\00\1DU\08\82\F1\10\00\00\0A\F1\10\00\00\00\1DV\08\82S\12\00\00\0AS\12\00\00\00\1DW\08\82\81\12\00\00\0A\81\12\00\00\00\1DX\08w\F1\10\00\00\0A\F1\10\00\00\00\1DY\08wS\12\00\00\0AS\12\00\00\00\1DZ\08w\81\12\00\00\0A\81\12\00\00\00\1C[\08F\01\F1\10\00\00\0A\F1\10\00\00\0A\F1\10\00\00\00\1C\\\08F\01S\12\00\00\0AS\12\00\00\0AS\12\00\00\00\1C]\08F\01\81\12\00\00\0A\81\12\00\00\0A\81\12\00\00\00\1C^\08O\01\F1\10\00\00\0A\F1\10\00\00\0A\F1\10\00\00\0A\F1\10\00\00\00\1C_\08O\01S\12\00\00\0AS\12\00\00\0AS\12\00\00\0AS\12\00\00\00\1C`\08O\01\81\12\00\00\0A\81\12\00\00\0A\81\12\00\00\0A\81\12\00\00\00\1Ca\08I\01\F1\10\00\00\0A\F1\10\00\00\0A\F1\10\00\00\00\1Cb\08I\01S\12\00\00\0AS\12\00\00\0AS\12\00\00\00\1Cc\08I\01\81\12\00\00\0A\81\12\00\00\0A\81\12\00\00\00\1Cd\08L\01\F1\10\00\00\0A\F1\10\00\00\0A\F1\10\00\00\00\1Ce\08L\01S\12\00\00\0AS\12\00\00\0AS\12\00\00\00\1Cf\08L\01\81\12\00\00\0A\81\12\00\00\0A\81\12\00\00\00\1Dg\08\93\F1\10\00\00\0A\F1\10\00\00\0A\F1\10\00\00\00\1Dh\08\93S\12\00\00\0AS\12\00\00\0AS\12\00\00\00\1Di\08\93\81\12\00\00\0A\81\12\00\00\0A\81\12\00\00\00\1Cj\08\18\01\DF\10\00\00\0A\F1\10\00\00\00\1Ck\08\18\01\DF\10\00\00\0AS\12\00\00\00\1Cl\08\18\01\DF\10\00\00\0A\81\12\00\00\00\1Dm\08\E6\F1\10\00\00\0A\F1\10\00\00\00\1Dn\08\E6S\12\00\00\0AS\12\00\00\00\1Do\08\E6\81\12\00\00\0A\81\12\00\00\00\1Cp\08<\01\82\15\00\00\0A\F1\10\00\00\00\0Cq\05\08\1Cr\08<\01\82\15\00\00\0AS\12\00\00\00\1Cs\08<\01\82\15\00\00\0A\81\12\00\00\00\1Ct\08B\01\82\15\00\00\0A\F1\10\00\00\00\1Cu\08B\01\82\15\00\00\0AS\12\00\00\00\1Cv\08B\01\82\15\00\00\0A\81\12\00\00\00\1Dw\08z\F1\10\00\00\0A\F1\10\00\00\00\1Dx\08zS\12\00\00\0AS\12\00\00\00\1Dy\08z\81\12\00\00\0A\81\12\00\00\00\1Dz\08\85\F1\10\00\00\0A\F1\10\00\00\00\1D{\08\85S\12\00\00\0AS\12\00\00\00\1D|\08\85\81\12\00\00\0A\81\12\00\00\00\1D}\08}\F1\10\00\00\0A\F1\10\00\00\00\1D~\08}S\12\00\00\0AS\12\00\00\00\1D\7F\08}\81\12\00\00\0A\81\12\00\00\00\1C\80\08:\01^\16\00\00\0A\F1\10\00\00\00\0C\81\05\08\1C\82\08:\01^\16\00\00\0AS\12\00\00\00\1C\83\08:\01^\16\00\00\0A\81\12\00\00\00\1C\84\08@\01^\16\00\00\0A\F1\10\00\00\00\1C\85\08@\01^\16\00\00\0AS\12\00\00\00\1C\86\08@\01^\16\00\00\0A\81\12\00\00\00\1D\87\08\C9\F1\10\00\00\0A\BB\16\00\00\00\0D\C0\16\00\00\03\C5\16\00\00\0C\88\06\01\1D\89\08\C9S\12\00\00\0A\BB\16\00\00\00\1D\8A\08\C9\81\12\00\00\0A\BB\16\00\00\00\1C\8B\08&\01\F1\10\00\00\0A\F1\10\00\00\00\1C\8C\08&\01S\12\00\00\0AS\12\00\00\00\1C\8D\08&\01\81\12\00\00\0A\81\12\00\00\00\1C\8E\08\03\01\F1\10\00\00\0A\F1\10\00\00\0A\F1\10\00\00\00\1C\8F\08\03\01S\12\00\00\0AS\12\00\00\0AS\12\00\00\00\1C\90\08\03\01\81\12\00\00\0A\81\12\00\00\0A\81\12\00\00\00\1C\91\08\05\01\F1\10\00\00\0A\F1\10\00\00\0A\81\12\00\00\00\1C\92\08\05\01S\12\00\00\0AS\12\00\00\0A\81\12\00\00\00\1C\93\08\05\01\81\12\00\00\0A\81\12\00\00\0A\81\12\00\00\00\1C\94\08\10\01\F1\10\00\00\0A\F1\10\00\00\0A\F1\10\00\00\00\1C\95\08\10\01S\12\00\00\0AS\12\00\00\0AS\12\00\00\00\1C\96\08\10\01\81\12\00\00\0A\81\12\00\00\0A\81\12\00\00\00\1C\97\083\01\F1\10\00\00\0A\F1\10\00\00\0A\F1\10\00\00\0A\9E\11\00\00\00\1C\98\083\01S\12\00\00\0AS\12\00\00\0AS\12\00\00\0A\9E\11\00\00\00\1C\99\083\01\81\12\00\00\0A\81\12\00\00\0A\81\12\00\00\0A\9E\11\00\00\00\1C\9A\08\00\01\F1\10\00\00\0A\F1\10\00\00\00\1C\9B\08\00\01S\12\00\00\0AS\12\00\00\00\1C\9C\08\00\01\81\12\00\00\0A\81\12\00\00\00\1C\9D\08*\01\F1\10\00\00\0A\F1\10\00\00\00\1C\9E\08*\01S\12\00\00\0AS\12\00\00\00\1C\9F\08*\01\81\12\00\00\0A\81\12\00\00\00\1C\A0\08\22\01\F1\10\00\00\0A\F1\10\00\00\0A^\16\00\00\00\1C\A1\08\22\01S\12\00\00\0AS\12\00\00\0A^\16\00\00\00\1C\A2\08\22\01\81\12\00\00\0A\81\12\00\00\0A^\16\00\00\00\1C\A3\08\14\01\F1\10\00\00\0A\F1\10\00\00\0A\DF\10\00\00\00\1C\A4\08\14\01S\12\00\00\0AS\12\00\00\0A\DF\10\00\00\00\1C\A5\08\14\01\81\12\00\00\0A\81\12\00\00\0A\DF\10\00\00\00\1D\A6\08\EB\F1\10\00\00\0A\F1\10\00\00\00\1D\A7\08\EBS\12\00\00\0AS\12\00\00\00\1D\A8\08\EB\81\12\00\00\0A\81\12\00\00\00\1C\A9\08.\01\F1\10\00\00\0A\F1\10\00\00\00\1C\AA\08.\01S\12\00\00\0AS\12\00\00\00\1C\AB\08.\01\81\12\00\00\0A\81\12\00\00\00\0BB\19\00\00\AC\06>\1E\0BK\19\00\00\AF\06F\1F\05\10\06B \AD^\16\00\00\06D\00 \AE^\16\00\00\06E\08\00!\B0\06O\02\1C\B1\06S\02\DF\10\00\00\0Aw\19\00\00\00\0D|\19\00\00\22\1C\B2\06X\02\DF\10\00\00\0Aw\19\00\00\00\1D\B3\0C\19\F1\10\00\00\0A\BB\16\00\00\00\1C\B4\06i\01\DF\10\00\00\0A\BB\16\00\00\00\1C\B5\06n\01^\16\00\00\0A\BB\16\00\00\00\1D\B6\0D\14\DA\19\00\00\0A\DB\19\00\00\0A\DB\19\00\00\0A\E1\19\00\00\0A\E1\19\00\00\0A\ED\19\00\00\00#\0D\E0\19\00\00$\0B\E9\19\00\00\B8\0E.\0C\B7\07\08\09\F6\19\00\00\B9\06(\03\0D\FB\19\00\00%\DF\10\00\00\0A\DB\19\00\00\0A\DB\19\00\00\00\1C\BA\06\1E\02\DA\19\00\00\0A\E1\19\00\00\0A\E1\19\00\00\00\1C\BB\06T\03:\19\00\00\0A\DF\10\00\00\0A\DF\10\00\00\00&\BC\06i\02\0A\DF\10\00\00\00\0F\BD\065\02\0A\DA\19\00\00\00\1C\BE\06z\02X\1A\00\00\0A\BB\16\00\00\00\0D\C5\16\00\00\1C\BF\06I\03^\16\00\00\0A^\16\00\00\00\1C\C0\06V\03C\19\00\00\0A^\16\00\00\0A^\16\00\00\00\1C\C1\06\1B\02\DA\19\00\00\0A\E1\19\00\00\00\1C\C2\06\9A\03\DF\10\00\00\0A\BB\16\00\00\0A\E1\19\00\00\00\1C\C3\06\A5\03\E1\19\00\00\0A\BC\1A\00\00\0A\CA\1A\00\00\0A\E1\19\00\00\00'\C1\1A\00\00\0D\C6\1A\00\00\0C\C4\05\04'\BB\16\00\00\1C\C5\06\9D\03\DF\10\00\00\0A\BC\1A\00\00\0A\CA\1A\00\00\0A\E1\19\00\00\00\0F\C6\06>\03\0A\DA\19\00\00\0A\E1\19\00\00\0A\E1\19\00\00\0A\ED\19\00\00\00&\C7\06o\02\0A\DF\10\00\00\00(\C8\06\C5\01\DF\10\00\00\1C\C9\06&\02\DA\19\00\00\0A\DA\19\00\00\0A\E1\19\00\00\00\0F\CA\06\C7\01\0A\EF\00\00\00\00\1D\CB\06u\F1\10\00\00\0A\CA\1A\00\00\0AH\1B\00\00\00'M\1B\00\00\0DX\1A\00\00\1D\CC\06\B0^\16\00\00\0A\CA\1A\00\00\0AH\1B\00\00\0A\DF\10\00\00\00\1D\CD\06\B4\E9\19\00\00\0A\CA\1A\00\00\0AH\1B\00\00\0A\DF\10\00\00\00\1C\CE\06\10\03\DF\10\00\00\0A\BB\16\00\00\00\1C\CF\06\A8\03\E1\19\00\00\0A\AA\1B\00\00\0A\AF\1B\00\00\0A\E1\19\00\00\00'X\1A\00\00'\B4\1B\00\00\0D\B9\1B\00\00\03\C6\1A\00\00\1C\D0\06\A1\03\DF\10\00\00\0AX\1A\00\00\0A\C6\1A\00\00\00\0B\DA\1B\00\00\D1\06P\1F\05\10\06L \AD\82\15\00\00\06N\00 \AE\82\15\00\00\06O\08\00&\D2\06u\02\0A\DF\10\00\00\00\1C\D3\06L\03\82\15\00\00\0A\82\15\00\00\00\1C\D4\06Z\03\D2\1B\00\00\0A\82\15\00\00\0A\82\15\00\00\00\1C\D5\06u\01\82\15\00\00\0A\BB\16\00\00\00\1D\D6\06\C8\82\15\00\00\0A\CA\1A\00\00\0AH\1B\00\00\0A\DF\10\00\00\00\1D\D7\06\CD_\1C\00\00\0A\CA\1A\00\00\0AH\1B\00\00\0A\DF\10\00\00\00\0C\D8\07\08\1D\D9\06{S\12\00\00\0A\CA\1A\00\00\0AH\1B\00\00\00\1D\DA\06~\81\12\00\00\0A\CA\1A\00\00\0AH\1B\00\00\00\14\0F&c\19\00\00\14\0F'h\19\00\00\14\0F(3\1A\00\00\14\0F+}\19\00\00\14\0F.\02\1B\00\00\14\0F3:\19\00\00\14\0F4C\19\00\00\14\0F6g\07\00\00\14\0F7\8C\19\00\00\14\0F8\9A\19\00\00\14\0F9\A9\19\00\00\14\0F:\B8\19\00\00\14\0F;\0B\1A\00\00\14\0F<\D8\01\00\00\14\0F=>\1A\00\00\14\0F>I\1A\00\00\14\0F?]\1A\00\00\14\0F@l\1A\00\00\14\0FA\80\1A\00\00\14\0FC\8F\1A\00\00\14\0FD\A3\1A\00\00\14\0FE\CF\1A\00\00\14\0FG\E8\1A\00\00\14\0FH\0D\1B\00\00\14\0FI\16\1B\00\00\14\0FJ*\1B\00\00\14\0FK5\1B\00\00\14\0FLR\1B\00\00\14\0FMj\1B\00\00\14\0FN\82\1B\00\00\14\0FP\91\1B\00\00\14\0FQ\BE\1B\00\00\11\DD)\10:v\07\00\00\00*\E3#\12\1C\F1\10\00\00\0A\F1\10\00\00\00*\E4%\12 S\12\00\00\0AS\12\00\00\00*\E5?\12\22S\12\00\00\0AS\12\00\00\00*\E6'\12$S\12\00\00\0AS\12\00\00\00*\E7C\12&S\12\00\00\0AS\12\00\00\00*\E8(\12*S\12\00\00\0AS\12\00\00\00*\E9)\12(S\12\00\00\0AS\12\00\00\0AS\12\00\00\00*\EAF\12,S\12\00\00\0AS\12\00\00\00*\EBI\12.S\12\00\00\0AS\12\00\00\00*\EC*\120S\12\00\00\0AS\12\00\00\00*\EDL\122S\12\00\00\0AS\12\00\00\0AS\12\00\00\00*\EE+\124S\12\00\00\0AS\12\00\00\00*\EF,\126S\12\00\00\0AS\12\00\00\00*\F0O\12:S\12\00\00\0AS\12\00\00\00*\F1R\128S\12\00\00\0AS\12\00\00\00*\F2-\12>S\12\00\00\0AS\12\00\00\00*\F3U\12<S\12\00\00\0AS\12\00\00\00*\F4X\12@S\12\00\00\0AS\12\00\00\00*\F5.\12BS\12\00\00\0AS\12\00\00\00*\F6[\12DS\12\00\00\0AS\12\00\00\0AS\12\00\00\00*\F7/\12FS\12\00\00\0AS\12\00\00\00*\F8^\12HS\12\00\00\0AS\12\00\00\0AS\12\00\00\0AS\12\00\00\00*\F9a\12JS\12\00\00\0AS\12\00\00\0AS\12\00\00\00*\FAd\12LS\12\00\00\0AS\12\00\00\0AS\12\00\00\00*\FB0\12NS\12\00\00\0AS\12\00\00\0AS\12\00\00\00*\FC\FD\12P\DF\10\00\00\0AS\12\00\00\00*\FE1\12RS\12\00\00\0AS\12\00\00\0A\9E\11\00\00\00*\FFg\12TS\12\00\00\0AS\12\00\00\0AS\12\00\00\00+\00\01j\12V\DF\10\00\00\0AS\12\00\00\00,\01\01\02\01\12[j\1F\00\00\0AS\12\00\00\00-\03\01\02\01,\04\01\05\01\12_j\1F\00\00\0AS\12\00\00\0AS\12\00\00\00,\06\01\07\01\12^j\1F\00\00\0AS\12\00\00\0AS\12\00\00\00,\08\01\09\01\12dj\1F\00\00\0AS\12\00\00\00,\0A\01\0B\01\12hj\1F\00\00\0AS\12\00\00\0AS\12\00\00\00,\0C\01\0D\01\12gj\1F\00\00\0AS\12\00\00\0AS\12\00\00\00,\0E\01\0F\01\12jj\1F\00\00\0AS\12\00\00\0AS\12\00\00\00,\10\01\11\01\12oj\1F\00\00\0AS\12\00\00\00,\12\01\13\01\12qj\1F\00\00\0AS\12\00\00\00,\14\01\15\01\12sj\1F\00\00\0AS\12\00\00\0AS\12\00\00\00+\16\01\BF\12t^\16\00\00\0A^\16\00\00\00+\17\012\12vS\12\00\00\0AS\12\00\00\0A\DF\10\00\00\00+\18\01m\12xS\12\00\00\0AS\12\00\00\00+\19\01\D3\12y\82\15\00\00\0A\82\15\00\00\00+\1A\01p\12{\82\15\00\00\0AS\12\00\00\00+\1B\013\12\85S\12\00\00\0AS\12\00\00\00+\1C\014\12}S\12\00\00\0AS\12\00\00\00+\1D\01w\12\7FS\12\00\00\0AS\12\00\00\00+\1E\01z\12\81S\12\00\00\0AS\12\00\00\00+\1F\01}\12\83S\12\00\00\0AS\12\00\00\00+ \01\80\12\87^\16\00\00\0AS\12\00\00\00+!\01\84\12\89^\16\00\00\0AS\12\00\00\00+\22\01t\12\8A\82\15\00\00\0AS\12\00\00\00+#\015\12\8CS\12\00\00\0AS\12\00\00\0A\10!\00\00\00\0DS\12\00\00+$\01\87\12\8D\F1\10\00\00\0A\BB\16\00\00\00+%\01\89\12\8ES\12\00\00\0A\BB\16\00\00\00+&\01\8B\12\90S\12\00\00\0AS\12\00\00\00+'\01\8E\12\92S\12\00\00\0AS\12\00\00\0AS\12\00\00\00+(\016\12\96S\12\00\00\0AS\12\00\00\0A\DF\10\00\00\00+)\01\94\12\98S\12\00\00\0AS\12\00\00\0AS\12\00\00\00+*\01\97\12\9AS\12\00\00\0AS\12\00\00\0AS\12\00\00\0A\9E\11\00\00\00++\01\9A\12\9CS\12\00\00\0AS\12\00\00\00+,\01\9D\12\9ES\12\00\00\0AS\12\00\00\00+-\01\A0\12\A0S\12\00\00\0AS\12\00\00\0A^\16\00\00\00+.\01\A3\12\A2S\12\00\00\0AS\12\00\00\0A\DF\10\00\00\00,/\010\01\12\A7j\1F\00\00\0AS\12\00\00\00+1\017\12\A9S\12\00\00\0AS\12\00\00\00+2\018\12\ABS\12\00\00\0AS\12\00\00\00+3\019\12\ADS\12\00\00\0AS\12\00\00\00+4\01:\12\AFS\12\00\00\0AS\12\00\00\00+5\01;\12\B1S\12\00\00\0AS\12\00\00\00+6\01\A6\12\B3S\12\00\00\0AS\12\00\00\00+7\01\A9\12\B5S\12\00\00\0AS\12\00\00\00,8\019\01\13\BCS\12\00\00\0AS\12\00\00\00+:\01@\13\BFS\12\00\00\0AS\12\00\00\00,;\01<\01\13\C2S\12\00\00\0AS\12\00\00\00+=\01D\13\C5S\12\00\00\0AS\12\00\00\00,>\01?\01\13\C8S\12\00\00\0AS\12\00\00\0AS\12\00\00\00,@\01A\01\13\CBS\12\00\00\0AS\12\00\00\00+B\01G\13\CES\12\00\00\0AS\12\00\00\00+C\01J\13\D1S\12\00\00\0AS\12\00\00\00,D\01E\01\13\D4S\12\00\00\0AS\12\00\00\00+F\01M\13\D7S\12\00\00\0AS\12\00\00\0AS\12\00\00\00,G\01H\01\13\DAS\12\00\00\0AS\12\00\00\00,I\01J\01\13\DDS\12\00\00\0AS\12\00\00\00+K\01S\13\E9S\12\00\00\0AS\12\00\00\00+L\01P\13\F2S\12\00\00\0AS\12\00\00\00+M\01V\13\FBS\12\00\00\0AS\12\00\00\00,N\01O\01\13\FES\12\00\00\0AS\12\00\00\00.P\01Y\13\01\01S\12\00\00\0AS\12\00\00\00/Q\01R\01\13\04\01S\12\00\00\0AS\12\00\00\00.S\01\\\13\07\01S\12\00\00\0AS\12\00\00\0AS\12\00\00\00/T\01U\01\13\0D\01S\12\00\00\0AS\12\00\00\00.V\01_\13\10\01S\12\00\00\0AS\12\00\00\0AS\12\00\00\0AS\12\00\00\00.W\01b\13\15\01S\12\00\00\0AS\12\00\00\0AS\12\00\00\00.X\01e\13\18\01S\12\00\00\0AS\12\00\00\0AS\12\00\00\00/Y\01Z\01\13\1B\01S\12\00\00\0AS\12\00\00\0AS\12\00\00\00/[\01\\\01\13\1E\01S\12\00\00\0AS\12\00\00\0A\9E\11\00\00\00.]\01h\13+\01S\12\00\00\0AS\12\00\00\0AS\12\00\00\00.^\01k\13.\01\DF\10\00\00\0AS\12\00\00\00/_\01`\01\13U\01S\12\00\00\0AS\12\00\00\0A\DF\10\00\00\00.a\01n\13X\01S\12\00\00\0AS\12\00\00\00.b\01r\13[\01\82\15\00\00\0AS\12\00\00\00.c\01u\13^\01\82\15\00\00\0AS\12\00\00\00/d\01e\01\13a\01S\12\00\00\0AS\12\00\00\00.f\01x\13d\01S\12\00\00\0AS\12\00\00\00.g\01{\13g\01S\12\00\00\0AS\12\00\00\00.h\01~\13m\01S\12\00\00\0AS\12\00\00\00/i\01j\01\13p\01S\12\00\00\0AS\12\00\00\00.k\01\82\13s\01^\16\00\00\0AS\12\00\00\00.l\01\85\13v\01^\16\00\00\0AS\12\00\00\00/m\01n\01\13y\01S\12\00\00\0AS\12\00\00\0A\10!\00\00\00.o\01\8C\13\9D\01S\12\00\00\0AS\12\00\00\00.p\01\8F\13\A0\01S\12\00\00\0AS\12\00\00\0AS\12\00\00\00/q\01r\01\13\C1\01S\12\00\00\0AS\12\00\00\0AS\12\00\00\00.s\01\95\13\DA\01S\12\00\00\0AS\12\00\00\0AS\12\00\00\00.t\01\98\13\DF\01S\12\00\00\0AS\12\00\00\0AS\12\00\00\0A\9E\11\00\00\00.u\01\9B\13\EF\01S\12\00\00\0AS\12\00\00\00.v\01\9E\13\08\02S\12\00\00\0AS\12\00\00\00.w\01\A1\13\0E\02S\12\00\00\0AS\12\00\00\0A^\16\00\00\00.x\01\A4\13\14\02S\12\00\00\0AS\12\00\00\0A\DF\10\00\00\00/y\01z\01\130\02S\12\00\00\0AS\12\00\00\00/{\01|\01\133\02S\12\00\00\0AS\12\00\00\00/}\01~\01\139\02S\12\00\00\0AS\12\00\00\00/\7F\01\80\01\13<\02S\12\00\00\0AS\12\00\00\00/\81\01\82\01\13?\02S\12\00\00\0AS\12\00\00\00.\83\01\A7\13B\02S\12\00\00\0AS\12\00\00\00.\84\01\AA\13E\02S\12\00\00\0AS\12\00\00\000~&\00\00\8B\01\16\060\87&\00\00\8A\01\15\15\1F\05\08\15\0D1\85\01\DF\10\00\00\15\0F\001\86\01\A0&\00\00\15\14\042\05\04\15\101\87\01\EF\00\00\00\15\12\001\88\01\BB&\00\00\15\13\00\00\003\C5\16\00\004\C7&\00\00\04\005\89\01\08\070\EF\00\00\00\8C\01\18\146\8D\01\19>\01\CC&\00\00\0A\DF\10\00\00\006\8E\01\19\D6\02\CC&\00\00\0A\F5&\00\00\00\0D\FA&\00\000\03'\00\00\B5\01\1B\057\05\B4\01\D8\1A11\8F\01\DF\10\00\00\1A3\001\90\01X\1A\00\00\1A6\081\91\01X\1A\00\00\1A7\101\92\01X\1A\00\00\1A8\181\93\01X\1A\00\00\1A9 1\94\01X\1A\00\00\1A:(1\95\01X\1A\00\00\1A;01\96\01X\1A\00\00\1A<81\97\01X\1A\00\00\1A=@1\98\01X\1A\00\00\1A@H1\99\01X\1A\00\00\1AAP1\9A\01X\1A\00\00\1ABX1\9B\01-(\00\00\1AD`1\9D\015(\00\00\1AFh1\9E\01\DF\10\00\00\1AHp1\9F\01\DF\10\00\00\1AIt1\A0\01:(\00\00\1AJx1\A2\01C(\00\00\1AM\801\A4\01H(\00\00\1AN\821\A6\01M(\00\00\1AO\831\A7\01Y(\00\00\1AQ\881\A9\01c(\00\00\1AY\901\AB\01l(\00\00\1A[\981\AD\01t(\00\00\1A\\\A01\AF\015(\00\00\1A]\A81\B0\01\DA\19\00\00\1A^\B01\B1\01\E1\19\00\00\1A_\B81\B2\01\DF\10\00\00\1A`\C01\B3\01|(\00\00\1Ab\C4\00\0D2(\00\008\9C\01\0D\03'\00\000^\16\00\00\A1\01\02\98-\A3\01\07\02-\A5\01\06\013\C5\16\00\004\C7&\00\00\01\00\0D^(\00\009\A8\01\1A+0^\16\00\00\AA\01\02\99\0Dq(\00\008\AC\01\0Dy(\00\008\AE\013\C5\16\00\004\C7&\00\00\14\006\B6\01\19\F3\02\C1\1A\00\00\0A\BC\1A\00\00\0A\DF\10\00\00\0A\A2(\00\00\00'\F5&\00\006\B7\01\19\E4\02\CC&\00\00\0A\C6\1A\00\00\0A\F5&\00\00\006\B8\01\19\FA\02\DF\10\00\00\0A\AF\1B\00\00\0A\A2(\00\00\006\B9\01\19=\02\DF\10\00\00\0A\F5&\00\00\0A\DF\10\00\00\006\BA\01\19D\02\DF\10\00\00\0A\A2(\00\00\0A\AF\1B\00\00:\00;\BB\01\BC\01\19\80\02\DF\10\00\00\0A\A2(\00\00\0A\AF\1B\00\00:\006\BD\01\19\D7\02\CC&\00\00\0A\F5&\00\00\00<\BE\01\19\DD\02\CC&\00\006\BF\01\19I\01\E1\19\00\00\0A\CA\1A\00\00\0A\E1\19\00\00\0AH)\00\00\00'M)\00\00\0Du&\00\006\C0\01\19(\01\E1\19\00\00\0A\BC\1A\00\00\0A\CA\1A\00\00\0A\E1\19\00\00\0AH)\00\00\006\C1\01\19$\01\DF\10\00\00\0A\81)\00\00\00\0D\86)\00\00\03u&\00\006\C2\01\19Q\01\E1\19\00\00\0A\BC\1A\00\00\0A\AA)\00\00\0A\E1\19\00\00\0AH)\00\00\00'\AF)\00\00\0D\BB\16\00\006\C3\01\19\E5\02\CC&\00\00\0A\C6\1A\00\00\0A\F5&\00\00\006\C4\01\19\EB\02\CC&\00\00\0A\C6\1A\00\00\006\C5\01\19N\02\DF\10\00\00\0A\BC\1A\00\00\0A\E1\19\00\00\0A\AF\1B\00\00:\00;\C6\01\C7\01\19\87\02\DF\10\00\00\0A\AF\1B\00\00\0A\AF\1B\00\00:\006\C8\01\19\02\03\CC&\00\00\0A\CC&\00\00\0A\F5&\00\00\006\C9\01\19V\02\DF\10\00\00\0A\A2(\00\00\0A\AF\1B\00\00\0A;*\00\00\000D*\00\00\CB\01\1C =X\1A\00\00\CA\01;\CC\01\CD\01\19\B5\02\DF\10\00\00\0A\A2(\00\00\0A\AF\1B\00\00\0A;*\00\00\006\CE\01\19c\02\DF\10\00\00\0A\BC\1A\00\00\0A\E1\19\00\00\0A\AF\1B\00\00\0A;*\00\00\00;\CF\01\D0\01\19\BC\02\DF\10\00\00\0A\AF\1B\00\00\0A\AF\1B\00\00\0A;*\00\00\006\D1\01\19^\02\DF\10\00\00\0A\AF\1B\00\00\0A;*\00\00\00;\D2\01\D3\01\19\B9\02\DF\10\00\00\0A\AF\1B\00\00\0A;*\00\00\006\D4\01\19-\01\E1\19\00\00\0A\AA\1B\00\00\0A\C6\1A\00\00\0AH)\00\00\00>\D5\01\19a\C1\1A\00\00\0A\BC\1A\00\00\0A\AF\1B\00\00\00>\D6\01\19j\DF\10\00\00\0A\B4\1B\00\00\0A\B4\1B\00\00\00>\D7\01\19\83\DF\10\00\00\0A\B4\1B\00\00\0A\B4\1B\00\00\00>\D8\01\19W\C1\1A\00\00\0A\BC\1A\00\00\0A\AF\1B\00\00\00>\D9\01\19\BB\E1\19\00\00\0A\B4\1B\00\00\0A\B4\1B\00\00\006\DA\01\19B\03\E1\19\00\00\0A\BC\1A\00\00\0A\E1\19\00\00\0A\AF\1B\00\00\0Ak+\00\00\00'p+\00\00\0Du+\00\00\03z+\00\008\DB\01>\DC\01\19\DE\E1\19\00\00\0A\B4\1B\00\00\00>\DD\01\19e\C1\1A\00\00\0A\BC\1A\00\00\0A\AF\1B\00\00\0A\E1\19\00\00\00>\DE\01\19m\DF\10\00\00\0A\B4\1B\00\00\0A\B4\1B\00\00\0A\E1\19\00\00\00>\DF\01\19\\\C1\1A\00\00\0A\BC\1A\00\00\0A\AF\1B\00\00\0A\E1\19\00\00\006\E0\01\19W\01\E1\19\00\00\0A\AA\1B\00\00\0A\F6+\00\00\0A\E1\19\00\00\0AH)\00\00\00'\FB+\00\00\0D\B4\1B\00\00>\E1\01\19\BF\E1\19\00\00\0A\B4\1B\00\00\0A\B4\1B\00\00\006\E2\01\19y\01\F1\10\00\00\0A\AF\1B\00\00\0A),\00\00\00'.,\00\00\0D\C1\1A\00\006\E3\01\19~\01S\12\00\00\0A\AF\1B\00\00\0A),\00\00\00>\E4\01\19\D9\C1\1A\00\00\0A\BC\1A\00\00\0A\AF\1B\00\00\0A),\00\00\006\E5\01\19\AC\01^\16\00\00\0A\AF\1B\00\00\0A),\00\00\0A\DF\10\00\00\006\E6\01\19\B1\01\E9\19\00\00\0A\AF\1B\00\00\0A),\00\00\0A\DF\10\00\00\00>\E7\01\19\87\E1\19\00\00\0A\BC\1A\00\00\0A\AF\1B\00\00\0A\E1\19\00\00\006\E8\01\19D\01\DF\10\00\00\0A\CC&\00\00\006\E9\01\19\02\01\DF\10\00\00\0A\B4\1B\00\00\0A\B4\1B\00\00\0A\E1\19\00\00\006\EA\01\19\06\01\C1\1A\00\00\0A\BC\1A\00\00\0A\AF\1B\00\00\0A\E1\19\00\00\006\EB\01\19\0B\01\C1\1A\00\00\0A\C1\1A\00\00\0A\B4\1B\00\00\0A\E1\19\00\00\006\EC\01\19\0F\01\C1\1A\00\00\0A\C1\1A\00\00\0A\C6\1A\00\00\0A\E1\19\00\00\006\ED\01\19K\02\DF\10\00\00\0A\AF\1B\00\00:\00;\EE\01\EF\01\19\84\02\DF\10\00\00\0A\AF\1B\00\00:\00>\F0\01\19\A4\C1\1A\00\00\0A\B4\1B\00\00\0A\C6\1A\00\00\00>\F1\01\19\C9\C1\1A\00\00\0A\B4\1B\00\00\0A\B4\1B\00\00\00>\F2\01\19\AE\C1\1A\00\00\0A\B4\1B\00\00\0A\C6\1A\00\00\00>\F3\01\19\D4\C1\1A\00\00\0A\B4\1B\00\00\0A\B4\1B\00\00\00>\F4\01\19\FD\C1\1A\00\00\0A\B4\1B\00\00\0A\C6\1A\00\00\0A\E1\19\00\00\006\F5\01\19\80\01\81\12\00\00\0A\AF\1B\00\00\0A),\00\00\006\F6\01\19\B9\01\82\15\00\00\0A\AF\1B\00\00\0A),\00\00\0A\DF\10\00\00\006\F7\01\19\C0\01_\1C\00\00\0A\AF\1B\00\00\0A),\00\00\0A\DF\10\00\00\000\05.\00\00\F9\01\1D\180H(\00\00\F8\01\02%0\17.\00\00\FC\01\1D\190 .\00\00\FB\01\02'-\FA\01\05\020..\00\00\FE\01\1D\1A0\DF\10\00\00\FD\01\02)0@.\00\00\00\02\1D\1B0^\16\00\00\FF\01\02,0H(\00\00\01\02\1F:0^\16\00\00\02\02\1F<0^\16\00\00\03\02\1F=0^\16\00\00\04\02\1F>0v.\00\00\06\02\1F+0\05.\00\00\05\02\0240\88.\00\00\08\02\1F,0\17.\00\00\07\02\0260\9A.\00\00\0A\02\1F-0..\00\00\09\02\0280\AC.\00\00\0C\02\1F.0@.\00\00\0B\02\02:0\BE.\00\00\0E\02\1Fe0^\16\00\00\0D\02\02H0^\16\00\00\0F\02\1FW0\D9.\00\00\12\02\03\180\E2.\00\00\11\02\02&-\10\02\08\010\F0.\00\00\14\02\03\190C(\00\00\13\02\02(0\02/\00\00\16\02\03\1B0\E9\19\00\00\15\02\02-0\E2.\00\00\17\02\1FG0\E9\19\00\00\18\02\1FI0\E9\19\00\00\19\02\1FJ0\E9\19\00\00\1A\02\1FK08/\00\00\1C\02\1F10\D9.\00\00\1B\02\0250J/\00\00\1E\02\1F20\F0.\00\00\1D\02\0270\\/\00\00 \02\1F30\E7\00\00\00\1F\02\0290n/\00\00\22\02\1F40\02/\00\00!\02\02;0\80/\00\00$\02\1Ff0\E9\19\00\00#\02\02I0\E9\19\00\00%\02\1FZ8'\02>(\02#zX\1A\00\00\0A\DF\10\00\00\0A\BB\16\00\00\00?)\02#}\B2/\00\00\0D\92/\00\00>*\02$l\DF\10\00\00\0A\DF\10\00\00\00>+\02$m\DF\10\00\00\0A\DF\10\00\00\00>,\02$n\DF\10\00\00\0A\DF\10\00\00\00>-\02$o\DF\10\00\00\0A\DF\10\00\00\00>.\02$q\DF\10\00\00\0A\DF\10\00\00\00>/\02$p\DF\10\00\00\0A\DF\10\00\00\00>0\02$r\DF\10\00\00\0A\DF\10\00\00\00>1\02$s\DF\10\00\00\0A\DF\10\00\00\00>2\02$t\DF\10\00\00\0A\DF\10\00\00\00>3\02$u\DF\10\00\00\0A\DF\10\00\00\00>4\02$v\DF\10\00\00\0A\DF\10\00\00\00>5\02$z\DF\10\00\00\0A\DF\10\00\00\00>6\02$}\DF\10\00\00\0A\DF\10\00\00\00>7\02$\82\DF\10\00\00\0A\DF\10\00\00\000\03'\00\008\02&\070\9B0\00\00;\02)T0\A40\00\00:\02(\0E89\02@<\02)\F5\02\0A\B30\00\00\00\0D\890\00\00>=\02)\D5\DF\10\00\00\0A\B30\00\00\006>\02)\F7\02\DF\10\00\00\0A\B30\00\00\006?\02)\F9\02\DF\10\00\00\0A\B30\00\00\00>@\02)\DA\DF\10\00\00\0A\B30\00\00\006A\02)\E5\01\DF\10\00\00\0A\B30\00\00\006B\02)\DB\02\DF\10\00\00\0A\1B1\00\00\0A 1\00\00\00'\B30\00\00'%1\00\00\0D\920\00\006C\02)4\02X\1A\00\00\0A\AA\1B\00\00\0A\DF\10\00\00\0A\1B1\00\00\00>D\02)\F6\B30\00\00\0A\CA\1A\00\00\0A\CA\1A\00\00\006E\02)F\01\DF\10\00\00\0A\1B1\00\00\0A\CA\1A\00\00:\006F\02)\09\02\DF\10\00\00\0A\DF\10\00\00\0A\B30\00\00\006G\02)r\02\DF\10\00\00\0A\CA\1A\00\00\0A\1B1\00\00\006H\02)\86\02\E1\19\00\00\0A\B71\00\00\0A\E1\19\00\00\0A\E1\19\00\00\0A\1B1\00\00\00'\DA\19\00\00>I\02)\FC\B30\00\00\0A\CA\1A\00\00\0A\CA\1A\00\00\0A\1B1\00\00\00;J\02K\02)\97\01\DF\10\00\00\0A\1B1\00\00\0A\CA\1A\00\00:\006L\02)\AC\02\DF\10\00\00\0A\B30\00\00\0A^\16\00\00\0A\DF\10\00\00\006M\02)\E0\02\DF\10\00\00\0A\B30\00\00\0A\1C2\00\00\00\0D!2\00\00\03\920\00\006N\02)\B1\02^\16\00\00\0A\B30\00\00\006O\02)\8C\02\E1\19\00\00\0AU2\00\00\0A\E1\19\00\00\0A\E1\19\00\00\0A\1B1\00\00\00'\DB\19\00\006P\02)\E6\01\DF\10\00\00\0A\B30\00\00\00?Q\02*/\DF\10\00\006R\02)A\02X\1A\00\00\0AX\1A\00\00\00@S\02)\07\03\0A\BB\16\00\00\006T\02)L\01\DF\10\00\00\0A\CA\1A\00\00:\006U\02)\0A\02\DF\10\00\00\0A\DF\10\00\00\0A\B30\00\00\00>V\02*R\DF\10\00\00\0A\DF\10\00\00\006W\02)x\02\DF\10\00\00\0A\BB\16\00\00\00>X\02)\92\DF\10\00\00\0A\BB\16\00\00\00>Y\02)\94\DF\10\00\00\0A\BB\16\00\00\0A\BB\16\00\00\00@Z\02)\B6\02\0A\B30\00\00\00;[\02\\\02)\9A\01\DF\10\00\00\0A\CA\1A\00\00:\00@]\02)0\01\0A\1B1\00\00\0A\AA\1B\00\00\006^\02)4\01\DF\10\00\00\0A\1B1\00\00\0A\AA\1B\00\00\0A\DF\10\00\00\0A\E1\19\00\00\006_\02)N\01\DF\10\00\00\0A\AA\1B\00\00\0A\CA\1A\00\00:\00;`\02a\02)\9C\01\DF\10\00\00\0A\CA\1A\00\00\0A\CA\1A\00\00:\00?b\02)\AD\B30\00\00>c\02)\BBX\1A\00\00\0AX\1A\00\00\006d\02)\7F\02\DF\10\00\00\0A\DF\10\00\00\0A\B30\00\00\006e\02)U\01\DF\10\00\00\0A\1B1\00\00\0A\CA\1A\00\00\0A;*\00\00\00>f\02*'\DF\10\00\00\0A\CA\1A\00\00\0A;*\00\00\006g\02)]\01\DF\10\00\00\0A\AA\1B\00\00\0A\CA\1A\00\00\0A;*\00\00\006h\02)b\01\DF\10\00\00\0A\AA\1B\00\00\0A\E1\19\00\00\0A\CA\1A\00\00:\00;i\02j\02)\C3\01\DF\10\00\00\0A\1B1\00\00\0A\CA\1A\00\00\0A;*\00\00\00;k\02l\02)\C8\01\DF\10\00\00\0A\CA\1A\00\00\0A;*\00\00\006m\02)f\01\DF\10\00\00\0A\AA\1B\00\00\0A\E1\19\00\00\0A\CA\1A\00\00\0A;*\00\00\00;n\02o\02)\CB\01\DF\10\00\00\0A\CA\1A\00\00\0A\CA\1A\00\00\0A;*\00\00\000{4\00\00p\02+0\0D\804\00\00\03..\00\000\E9\19\00\00q\02-&>r\02-_\DF\10\00\00\0A\CC&\00\00\00>s\02-e\DF\10\00\00\0A\CC&\00\00\00>t\02-\92\DF\10\00\00\0A\CC&\00\00\00>u\02-h\DF\10\00\00\0A\CC&\00\00\00>v\02-\9F\DF\10\00\00\0A\CC&\00\00\0A\854\00\00\00>w\02-l\DF\10\00\00\0A\CC&\00\00\00>x\02-p\DF\10\00\00\0A\CC&\00\00\00>y\02-u\DF\10\00\00\0A\CC&\00\00\00>z\02-x\DF\10\00\00\0A\CC&\00\00\00>{\02-}\DF\10\00\00\0A\CC&\00\00\00>|\02-\82\DF\10\00\00\0A\CC&\00\00\00>}\02-\87\DF\10\00\00\0A\CC&\00\00\00>~\02-\8C\DF\10\00\00\0A\CC&\00\00\00>\7F\02+7\CC&\00\00\0A\CC&\00\00\0Ar4\00\00\00>\80\02-\A6\CC&\00\00\0A\CC&\00\00\00>\81\02-\A9\CC&\00\00\0A\CC&\00\00\00>\82\02+4r4\00\00\0A\BB\16\00\00\00>\83\02-\9B\854\00\00\0A\BB\16\00\00\000\AF5\00\00\85\02.\070^\16\00\00\84\02\02\9C0\C15\00\00\87\020\070^\16\00\00\86\02\02\A0?\88\021H\A65\00\00>\89\021N\F1\10\00\00\0A\B85\00\00\0A\B85\00\00\00>\8A\021R\B85\00\00\0A\F65\00\00\00\0Dz+\00\00>\8B\021K\B85\00\00\0A\0A6\00\00\00\0D\B85\00\00>\8C\021\8BX\1A\00\00\0Ap+\00\00\00>\8D\021\8EX\1A\00\00\0A-6\00\00\00\0D26\00\00\03\B85\00\00>\8E\021w\F65\00\00\0A-6\00\00\00>\8F\021{\F65\00\00\0A-6\00\00\00>\90\021X\E1\19\00\00\0A\AA\1B\00\00\0A\E1\19\00\00\0A\CA\1A\00\00\0Ak+\00\00\00\03\86\01\00\00+\93\02#\12\1E\DF\10\00\00\0A\DF\10\00\00\00\143&x6\00\00\143A\9B\1F\00\00\143B\EE\1F\00\00A\C9\00\00\00\A66\00\00B\94\02\B76\00\00C\0C\01\17\01\DF\00\00\00\00\0D\F8\00\00\00AU\00\00\00\C56\00\00B\94\02\CD6\00\00\00\0D\FD\00\00\00D\00|\00\00\00\95\02\96\024\08E\BC6\00\00\004\0A\0EF\9D6\00\00\01\01+\01M\00\00\00\1E\00\00\00\05\00\08\00\02\00\00\00\08\00\00\00\0F\00\00\00\04\00\08\04\18(\00\04\00\08\04\18(\00`\0A\00\00\05\00\00\00~\13\00\00\17\02\00\00\F6\0C\00\00\9C\04\00\00\B2\06\00\00\BC\06\00\00R\15\00\00\84\00\00\00\FB\16\00\00\EE\0A\00\00\F6\09\00\00\A8\04\00\00#\0D\00\00\91\00\00\00\A5\14\00\00K\01\00\00\D4\0D\00\00C\10\00\00\04\09\00\00\1F\0C\00\00\F7\0A\00\00M\01\00\00\22\16\00\00\06\0A\00\00%\0D\00\00\C5\11\00\00#\0C\00\00F\0C\00\00\22\02\00\00\CA\11\00\00Y\0E\00\00:\0A\00\00\CE\10\00\00\83\17\00\003\0D\00\00\06\17\00\00\1B\18\00\00]\15\00\00\BB\14\00\00\CE\03\00\00\00\00\00\00\9A\07\00\00\C1\12\00\00&\16\00\00\AA\04\00\00\0A\17\00\00C\0A\00\00\13\03\00\00\FF\05\00\00\02\19\00\00T\08\00\00\D8\0D\00\00\05\00\00\00\C6\12\00\00E\10\00\00\CB\12\00\008\05\00\00\81\01\00\00*\16\00\00.\16\00\00c\0E\00\00\0E\17\00\00l\0E\00\00\C2\14\00\00\1F\18\00\00\D4\11\00\00\F9\0A\00\007\0D\00\008\09\00\00t\0E\00\00\86\01\00\00\CF\12\00\00?\09\00\00F\09\00\00\04\14\00\00\D6\06\00\00t\0F\00\00\05\0B\00\00I\10\00\003\16\00\00\AF\04\00\00&\18\00\00H\0A\00\00\DB\11\00\00\08\19\00\00S\10\00\00\0A\14\00\00\90\17\00\00+\18\00\00\0E\19\00\00\C8\14\00\00O\02\00\00\96\17\00\00\0F\0B\00\00{\0E\00\00=\0D\00\007\16\00\00\9C\17\00\00\04\06\00\00\CF\14\00\00b\15\00\00B\0D\00\00\15\19\00\00\A1\17\00\00\D6\12\00\00}\0F\00\00T\0C\00\00\B4\04\00\00\84\0F\00\00\D3\03\00\00T\02\00\00=\05\00\00g\15\00\00<\16\00\00\DA\03\00\00K\09\00\00Z\08\00\00b\08\00\00\D8\10\00\001\18\00\00\8B\0F\00\00\8C\01\00\00\7F\0E\00\00S\09\00\00\0A\06\00\00\E2\03\00\00k\08\00\00\A0\07\00\00E\05\00\00\1B\19\00\00X\10\00\00\0B\00\00\00K\05\00\00_\10\00\00\10\06\00\00\DC\06\00\00\93\01\00\00\84\0E\00\00\15\0B\00\007\18\00\00A\18\00\00\E7\03\00\00\F2\03\00\00 \19\00\00n\15\00\00\FC\03\00\00Y\09\00\00\E1\10\00\00Z\0C\00\00\18\06\00\00\14\17\00\00\89\0E\00\00e\09\00\00\E1\11\00\00d\0C\00\00\A7\17\00\00i\0C\00\00\D5\14\00\00g\10\00\00\90\0E\00\00#\06\00\00R\05\00\00q\08\00\00+\19\00\00\E9\11\00\00\DD\12\00\00\12\00\00\00m\09\00\00o\0C\00\00\ED\10\00\00\DB\14\00\00\19\03\00\00n\10\00\00+\06\00\00\BB\04\00\00\10\14\00\00\98\01\00\00\A6\07\00\00\E0\06\00\00\17\14\00\00M\0A\00\00y\15\00\00\E2\14\00\00\F3\10\00\00\92\0F\00\00\F1\11\00\00\\\02\00\00u\09\00\00\E5\12\00\00[\05\00\00\19\00\00\00\EA\14\00\00\07\04\00\00\AD\17\00\00t\10\00\000\06\00\002\19\00\00L\18\00\00~\15\00\009\06\00\00D\06\00\00\FF\11\00\00\84\15\00\00\C5\00\00\00\DC\0D\00\00\9E\01\00\00\99\0F\00\00\1C\14\00\00c\02\00\00\EE\06\00\00\E3\0D\00\00\97\0E\00\00\A6\01\00\00\BF\04\00\00\07\12\00\00\EF\14\00\00\0F\12\00\00\F8\14\00\00\C5\04\00\00%\14\00\00\CD\04\00\00j\02\00\00\A0\0F\00\00\1A\0B\00\00\A8\0F\00\00`\05\00\00\CC\00\00\00*\0B\00\00H\0D\00\00v\02\00\00\81\02\00\00F\16\00\00R\0A\00\00\EA\12\00\00\0C\04\00\00 \03\00\00\17\04\00\00\AD\07\00\00\9D\0E\00\003\0B\00\00\1F\17\00\00\01\11\00\00Q\16\00\00\B6\0F\00\00\F6\06\00\00\A6\0E\00\00*\03\00\00\BC\07\00\00w\0C\00\00\8B\02\00\00\F6\12\00\00\01\07\00\00z\08\00\00\8B\08\00\00\B4\17\00\00\96\02\00\00\B0\0E\00\00!\04\00\005\03\00\00S\18\00\00\8A\15\00\00\82\0C\00\00\BB\0E\00\00\01\13\00\00=\0B\00\00\A2\02\00\00\D1\0E\00\00H\0B\00\00\9C\05\00\00\DE\00\00\00X\18\00\00\22\12\00\000\12\00\00\0C\07\00\00\10\13\00\00\8C\0C\00\00\DE\0E\00\00\C0\0F\00\00 \00\00\00:\14\00\00O\0B\00\00\C1\17\00\00\CC\0F\00\00F\14\00\00:\19\00\00m\18\00\00R\0D\00\00\CC\17\00\00I\06\00\00\EA\00\00\00O\14\00\00\9A\15\00\00\\\0A\00\00(\17\00\00x\18\00\00>\03\00\00\0B\11\00\00/\04\00\00\D6\17\00\00z\10\00\00\D7\04\00\00\15\11\00\00\E9\0D\00\00Z\16\00\00\\\0D\00\00E\19\00\00\\\14\00\00;\12\00\00?\04\00\00E\12\00\00\AC\01\00\00\96\08\00\00*\00\00\00N\19\00\005\00\00\00H\04\00\00T\19\00\00\C7\07\00\00g\0A\00\00\A1\08\00\00d\0D\00\00y\09\00\00\E2\04\00\00\A8\02\00\00\A6\15\00\00g\16\00\00f\14\00\00\D8\0F\00\00\F6\0D\00\00\F6\00\00\00\1E\13\00\00\A8\08\00\00A\00\00\00\B8\01\00\00\7F\09\00\00Z\19\00\00\F1\0E\00\00\87\18\00\00T\06\00\00m\16\00\00S\04\00\00#\11\00\00\B3\02\00\00\92\18\00\00\95\0C\00\00_\19\00\00K\00\00\00\84\10\00\00t\0A\00\00\FF\14\00\00\AF\05\00\00\9E\18\00\00[\0B\00\00b\0B\00\00\89\09\00\00\01\01\00\00o\0B\00\00\FD\0E\00\00\FB\0D\00\00\E2\0F\00\00\A1\0C\00\00k\19\00\00y\16\00\00\D3\07\00\00\12\07\00\00\04\0F\00\00u\19\00\004\17\00\00\11\0F\00\00\AC\0C\00\00*\11\00\00/\11\00\00\C3\01\00\00N\03\00\00\ED\0F\00\00\D3\01\00\00E\17\00\00~\16\00\00\96\09\00\00o\0D\00\00\88\16\00\00Q\00\00\00\EE\04\00\00\0F\01\00\00\F9\0F\00\00\B1\15\00\00\19\01\00\00\E2\01\00\00{\0B\00\00\E5\17\00\00{\19\00\00Y\03\00\00Z\06\00\00{\0A\00\00\92\10\00\00\DF\07\00\00\BB\05\00\00\8E\16\00\00\94\16\00\00\9B\09\00\00\87\0B\00\00$\13\00\00\8F\0A\00\00\B3\08\00\00z\0D\00\00_\03\00\00\94\0B\00\001\13\00\00\BF\02\00\00\FE\0F\00\00\B7\0C\00\00_\04\00\00A\11\00\00\ED\17\00\00S\17\00\00\1F\07\00\00\F4\04\00\00\07\0E\00\00O\12\00\00\BC\15\00\00\CD\02\00\00\0F\0E\00\00h\04\00\00m\03\00\00a\06\00\00\DC\02\00\00\0C\15\00\00L\11\00\00s\03\00\00\C2\08\00\00U\11\00\00\AB\18\00\00\16\15\00\00\0E\10\00\00\A1\0B\00\00\E9\07\00\00\B9\18\00\00[\12\00\00c\11\00\00\A2\09\00\00\F4\17\00\00\9E\10\00\00\83\19\00\00\F2\07\00\00#\0F\00\00\8C\19\00\00\C2\18\00\00\C4\0C\00\00\9B\16\00\00\FB\17\00\00\A4\10\00\00'\07\00\00\A9\09\00\00\03\18\00\00\03\08\00\00b\12\00\00\A3\16\00\00\15\10\00\00l\06\00\00j\11\00\00\9D\0A\00\00j\12\00\00\AF\0A\00\00-\07\00\00=\13\00\00\CB\0C\00\00\AB\16\00\00\1F\01\00\00?\07\00\00[\17\00\00\BC\16\00\00\EF\01\00\00r\04\00\00\C2\05\00\00F\13\00\00\C3\16\00\00\00\05\00\00y\11\00\00+\0F\00\00'\01\00\00y\04\00\00\CB\15\00\00\B2\09\00\00\C6\16\00\00\\\00\00\00G\07\00\00\83\04\00\00\D2\15\00\00\1B\0E\00\00b\17\00\00\B9\09\00\00\88\0D\00\00\CD\16\00\00\E4\02\00\00\81\11\00\00\C1\09\00\00c\00\00\00\A7\0B\00\00\14\08\00\00\07\05\00\00\CA\05\00\00\F7\01\00\00\CD\08\00\00\91\11\00\00\1C\08\00\00v\14\00\00~\06\00\00\EC\02\00\00s\12\00\00\1F\10\00\00\DA\15\00\00)\10\00\00!\0E\00\00{\12\00\00\D5\16\00\00j\17\00\00)\0E\00\00\0C\18\00\00\E2\15\00\00%\08\00\00O\13\00\00\CB\18\00\00N\07\00\00}\14\00\00\D5\08\00\00\91\0D\00\00\D4\0C\00\00\9A\11\00\00\9C\0D\00\00\EF\15\00\00\D2\05\00\00\92\19\00\00\AE\10\00\00\87\12\00\00\\\07\00\006\0E\00\00\F6\02\00\00\AF\0B\00\00\AA\0D\00\00\E3\08\00\00\B9\0A\00\00\C7\0A\00\00\DB\18\00\005\08\00\00/\01\00\00#\15\00\00\DD\0C\00\00C\0E\00\00\EC\0C\00\00e\07\00\00\BD\0B\00\00\0E\05\00\00\C8\09\00\00\F9\15\00\00\92\12\00\00\8D\14\00\00\84\06\00\00\B7\10\00\004\15\00\00\C7\0B\00\00\D2\09\00\00\8C\06\00\003\10\00\00\7F\03\00\00\A3\11\00\00\FF\01\00\00\E2\16\00\00\DA\05\00\00\14\05\00\00\95\14\00\00\E2\05\00\00\CF\0B\00\00\07\02\00\00w\17\00\00\DA\09\00\00\87\03\00\00\04\03\00\00\8E\03\00\00\EB\05\00\00\B8\0D\00\00\9A\12\00\00\BE\0D\00\00\D8\0A\00\00<\15\00\00\BF\10\00\00;\10\00\00]\13\00\00F\08\00\00o\07\00\00\EA\16\00\00\9F\14\00\003\0F\00\00\C6\0D\00\00u\07\00\00~\17\00\00M\08\00\00>\01\00\00\F3\05\00\00j\00\00\00\19\05\00\00B\15\00\00\DE\0A\00\00\F8\05\00\00\A0\12\00\00E\01\00\00\94\06\00\00\0B\03\00\00\D6\0B\00\00\9B\06\00\00\AB\06\00\00:\0F\00\00B\0F\00\00}\07\00\00\04\16\00\00\84\07\00\00\CB\0D\00\00\8C\07\00\00\EA\18\00\00m\13\00\00\AC\11\00\00\1E\05\00\00\F3\08\00\00\DF\09\00\00\8B\04\00\00O\0E\00\00I\15\00\00\DE\0B\00\00u\13\00\00\93\04\00\00\0D\16\00\00r\00\00\00\E5\0A\00\00\C5\10\00\00I\0F\00\00\F2\16\00\00%\05\00\00\9D\19\00\00\E7\0B\00\00\AF\12\00\00\A6\19\00\00R\0F\00\00\F0\0B\00\00\B9\12\00\00\FD\08\00\00.\05\00\00[\0F\00\00\BC\11\00\00\F9\0B\00\00\F0\09\00\00{\00\00\00\FB\18\00\00\95\07\00\00\B0\19\00\00\B8\19\00\00\16\16\00\00\94\03\00\00\9E\03\00\00\00\0C\00\00\A7\03\00\00\16\0C\00\00\1D\16\00\00c\0F\00\00\10\02\00\00atan\00log10\00lrintl\00tgamma\00getenv\00_ZL4labsl\00_ZL5acosff\00_ZL6acoshff\00_ZL4erfff\00fmodf\00_ZL5sqrtff\00wcstok\00wcschr\00putchar\00iswctype\00difftime\00unsigned int\00_ZNK17__HIP_CoordinatesI15__HIP_ThreadIdxE3__XcvjEv\00strtod\00rethrow_exception\00islessequal\00_ZL6lroundf\00_ZL5coshff\00_ZL8llroundff\00_ZL4tanff\00tanhf\00vwscanf\00wcsncpy\00uint_least32_t\00printf\00scanf\00R\00_ZNK17__HIP_CoordinatesI15__HIP_ThreadIdxE3__ZcvjEv\00sqrt\00atanh\00log1pl\00char\00abort\00strtoul\00lldiv\00_ZL6tgammaf\00_ZL5exp2ff\00_ZL7remquofffPi\00_ZL8scalblnffl\00_ZL7tgammaff\00wcscoll\00wcstold\00tolower\00clearerr\00vecAdd\00vecadd.hip\00_ZN17__HIP_CoordinatesI15__HIP_ThreadIdxE1xE\00fdim\00lgammaf\00calloc\00wctomb\00__gnu_debug\00_ZL5acoshf\00_ZL4asinf\00_ZL4fmaxff\00_ZL5hypotff\00isinf\00_ZL5cbrtff\00_ZL4fmaffff\00_IO_save_base\00_vtable_offset\00_offset\00wprintf\00__int16_t\00uint_fast16_t\00fflush\00setvbuf\00floor\00truncl\00_ZL4cbrtf\00_ZL4fdimff\00isfinite\00_ZL9nextafterff\00_ZL5rintff\00__wch\00_IO_write_end\00_lock\00_IO_codecvt\00isupper\00ferror\00fgetc\00localtime\00strftime\00_ZN9__gnu_cxxL21__default_lock_policyE\00asin\00lgamma\00llrintf\00logb\00nearbyintl\00nextafter\00nexttoward\00ldiv\00_ZL5atanhf\00_ZL4ceilf\00_ZL8isfinitef\00_ZL9remainderff\00_ZL3tanf\00_ZL5asinff\00_ZL6floorff\00_markers\00_shortbuf\00wcscpy\00wcsrtombs\00wcstoul\00vsscanf\00iswblank\00[llvm:v0.0]\00F\00cosh\00erff\00ilogbf\00rem\00atoll\00strtold\00_ZSt3abse\00_ZL5roundf\00_ZL6atanhff\00sqrtf\00_old_offset\00wcslen\00wcsstr\00lconv\00FILE\00puts\00vscanf\00iswpunct\00__clock_t\00sinh\00lgammal\00lrint\00lround\00scalblnf\00free\00_ZSt17rethrow_exceptionNSt15__exception_ptr13exception_ptrE\00_ZL11islessequalff\00_ZL6ilogbff\00wint_t\00wcscspn\00wmemchr\00uint8_t\00isblank\00__fpos_t\00fgetpos\00putc\00rewind\00fmod\00fmaxf\00log2l\00lroundl\00remainderf\00scalbln\00quot\00mbstowcs\00quick_exit\00rand\00_ZL5lrintf\00fabsf\00__wchb\00_IO_lock_t\00__builtin_va_list\00short\00iscntrl\00ispunct\00setbuf\00__isoc99_sscanf\00sscanf\00threadIdx\00_ZNK15__HIP_ThreadIdxclEj\00cbrtl\00nan\00at_quick_exit\00lldiv_t\00_ZL5expm1f\00_ZL4fmodff\00isnan\00_ZL7lroundff\00_flags2\00putwc\00__isoc99_vswscanf\00wcrtomb\00wcstol\00int_least32_t\00uint64_t\00uintptr_t\00fseek\00getchar\00ungetc\00vprintf\00snprintf\00time\00atan2\00logbl\00atexit\00_ZL8copysignff\00_ZL5floorf\00_ZL6asinhff\00_ZL6lrintff\00mbstate_t\00_unused2\00__isoc99_fwscanf\00__isoc99_swscanf\00wcsrchr\00__int8_t\00__int_least16_t\00__uint_least32_t\00fscanf\00perror\00ldexp\00llround\00llroundf\00logbf\00scalblnl\00_ZL10fpclassifyf\00fpclassify\00_ZL5truncf\00atan2f\00_ZL5erfcff\00_IO_write_base\00_wide_data\00wcstoll\00int_least64_t\00__uint_least8_t\00vsnprintf\00wctype\00_ZNK17__HIP_CoordinatesI15__HIP_ThreadIdxE3__YcvjEv\00asinhf\00atanhl\00cbrt\00llrintl\00log2f\00nexttowardf\00remquof\00tgammaf\00div\00atanf\00_ZL4expff\00_ZL7llrintff\00sinf\00_flags\00fputwc\00putwchar\00wcstod\00wmemcpy\00wscanf\00setlocale\00isprint\00feof\00__isoc99_vsscanf\00clock\00__HIP_ThreadIdx\00_ZNK17__HIP_CoordinatesI15__HIP_ThreadIdxEcv4dim3Ev\00_S_mutex\00fabs\00erfc\00atoi\00_ZL4atanf\00_ZL3nanPKc\00_ZL6atan2fff\00frexpf\00__ARRAY_SIZE_TYPE__\00_IO_read_base\00__isoc99_vfwscanf\00vswprintf\00uint_least8_t\00__uint_least16_t\00fputc\00rename\00iswdigit\00uint32_t\00z\00long double\00copysignf\00fdiml\00nanl\00__exception_ptr\00_ZL3absd\00_ZL4coshf\00_ZL5isinff\00isless\00_ZL6lgammaf\00ldexpf\00_ZL7lgammaff\00_ZL6log10ff\00_ZL6truncff\00_IO_read_ptr\00_IO_buf_base\00_mode\00wcspbrk\00uint_fast32_t\00ptrdiff_t\00islower\00fpos_t\00sprintf\00iswalnum\00iswupper\00towupper\00time_t\00__default_lock_policy\00_ZL3absi\00__Y\00__HIP_Coordinates<__HIP_ThreadIdx>\00_ZL9threadIdx\00ilogb\00remainder\00rint\00rintl\00tgammal\00_ZL3fmafff\00isgreater\00isnormal\00_ZL5fminfff\00_ZL5logbff\00_ZL4powfff\00_IO_save_end\00mbrlen\00vwprintf\00intmax_t\00uint_least64_t\00uintmax_t\00/workspaces/cupbop-amd-playground/vector-add\00x\00operator dim3\00std\00asinh\00fmaf\00fminf\00_ZL4acosf\00_ZL4log2f\00signbit\00_ZL5atanff\00_ZL5sinhff\00_IO_write_ptr\00wmemmove\00__intmax_t\00unsigned char\00uint_fast64_t\00fgets\00fprintf\00getc\00vsprintf\00__X\00log\00strtol\00_Exit\00_ZL6scalbnfi\00cosf\00_ZL6log1pff\00__off_t\00signed char\00wctob\00int64_t\00int_fast64_t\00uint_fast8_t\00__uintmax_t\00wctrans_t\00_S_single\00double_t\00float_t\00asinhl\00fma\00log2\00nanf\00remquo\00roundl\00llabs\00_ZL3cosf\00_ZL4fabsf\00_ZL5ilogbf\00_ZL14isgreaterequalff\00_ZL6islessff\00_ZL11isunorderedff\00_ZL6expm1ff\00log10f\00_ZL5modfffPf\00_ZL10nextafterfff\00fwscanf\00wcsncmp\00fwrite\00tmpfile\00tmpnam\00iswlower\00towlower\00clock_t\00_Z6vecAddPdS_S_i\00copysign\00hypotl\00ilogbl\00log1pf\00size_t\00system\00__debug\00exception_ptr\00_ZL4exp2f\00isunordered\00_ZL6llrintf\00_ZL4cosff\00_ZL5log2ff\00_ZL6roundff\00tanf\00_IO_backup_base\00__pad5\00vfwprintf\00__int32_t\00__int64_t\00isspace\00freopen\00y\00pow\00copysignl\00exp2\00lrintf\00lroundf\00roundf\00div_t\00mblen\00_ZL4rintf\00_ZL6frexpffPi\00__mbstate_t\00fwide\00mbsrtowcs\00uint16_t\00isdigit\00fread\00iswgraph\00_S_atomic\00llroundl\00nexttowardl\00trunc\00unsigned long\00_ZL4erfcf\00_ZL3powfi\00_ZL7scalblnfl\00floorf\00powf\00_ZL10remainderfff\00_IO_marker\00_codecvt\00_IO_wide_data\00fgetws\00__gnuc_va_list\00wcsncat\00__isoc99_wscanf\00wcstoull\00intptr_t\00isxdigit\00__isoc99_vscanf\00__time_t\00dim3\00__gnu_cxx\00acoshl\00erfcf\00remquol\00scalbnf\00__compar_fn_t\00realloc\00strtoll\00unsigned long long\00islessgreater\00_ZL5isnanf\00_ZL4sqrtf\00_ZL4tanhf\00_cur_column\00__FILE\00swscanf\00vfwscanf\00int16_t\00int_fast8_t\00__uint64_t\00isalnum\00fopen\00__isoc99_scanf\00iswxdigit\00wctrans\00ceil\00modf\00sin\00atanhf\00hypotf\00scalbnl\00exit\00_ZL5atan2ff\00_ZL4fminff\00isgreaterequal\00_ZL8isnormalf\00coshf\00_IO_read_end\00_IO_buf_end\00vswscanf\00wcsftime\00int_least16_t\00__isoc99_fscanf\00vfscanf\00iswalpha\00AMD clang version 15.0.0 (https://github.com/RadeonOpenCompute/llvm-project roc-5.3.0 22362 3cf23f77f8208174a2ee7c616f4be23674d7b081)\00cbrtf\00exp2f\00ldiv_t\00atof\00wcstombs\00_ZN9__gnu_cxx3divExx\00_ZL5ldexpfi\00_ZL3logf\00_ZL7llroundf\00_ZL4sinhf\00_ZL9copysignfff\00int8_t\00__int_least64_t\00isalpha\00_G_fpos_t\00ftell\00operator unsigned int\00double\00acosh\00expm1l\00fmaxl\00round\00truncf\00bsearch\00labs\00strtoull\00strtof\00_ZL6hypotfff\00__off64_t\00_freeres_buf\00__uint_least64_t\00isgraph\00fputs\00remove\00wctype_t\00operator()\00acos\00fmin\00llrint\00nextafterl\00atol\00qsort\00srand\00_ZL9isgreaterff\00_ZL4modffPf\00_ZL5ceilff\00_ZL5tanhff\00unsigned short\00wcsspn\00wcsxfrm\00int32_t\00int_least8_t\00__uint8_t\00localeconv\00vfprintf\00iswcntrl\00gmtime\00this\00__Z\00cos\00tan\00tanh\00erf\00fmal\00long long\00_ZL5asinhf\00_ZL3expf\00_ZL7signbitf\00ceilf\00_ZL5fdimfff\00logf\00_ZL4sinff\00sinhf\00btowc\00fgetwc\00mbrtowc\00ungetwc\00__isoc99_vwscanf\00wcscmp\00tm\00wcstof\00wmemset\00int_fast16_t\00toupper\00fsetpos\00iswprint\00__uint32_t\00abs\00exp\00float\00remainderl\00_ZL3erff\00_ZL4nanfPKc\00_ZL10nearbyintff\00_ZL7scalbnffi\00_fileno\00wcscat\00wmemcmp\00int_fast32_t\00fclose\00gets\00_Lock_policy\00exp2l\00fdimf\00fmax\00hypot\00rintf\00malloc\00_ZL5frexpfPi\00_ZL5llabsx\00_ZL4logbf\00_ZL6remquoffPi\00__count\00_chain\00fputws\00mbsinit\00swprintf\00__int_least8_t\00int\00acoshf\00erfl\00expm1\00log1p\00nearbyint\00nearbyintf\00mbtowc\00bool\00_ZL13islessgreaterff\00_ZL5log1pf\00_ZL9nearbyintf\00_ZL5fabsff\00_ZL5fmaxfff\00_ZL6ldexpffi\00_freeres_list\00_IO_FILE\00getwchar\00__int_least32_t\00uint_least16_t\00__isoc99_vfscanf\00mktime\00frexp\00erfcl\00expm1f\00fminl\00long\00nextafterf\00scalbn\00wchar_t\00_ZL5log10f\00_ZL3sinf\00acosf\00asinf\00expf\00_ZL5fmodfff\00_ZL4logff\00modff\00__value\00fwprintf\00getwc\00__uint16_t\00iswspace\00towctrans\00asctime\00ctime\00\0C\00\00\00\05\00\08\00\00\10\00\00\00\00\00\00\00AMD clang version 15.0.0 (https://github.com/RadeonOpenCompute/llvm-project roc-5.3.0 22362 3cf23f77f8208174a2ee7c616f4be23674d7b081)\00Linker: AMD LLD 15.0.0\00\A4\01\00\00\05\00\08\00U\01\00\00\04\01\01\FB\0E\0D\00\01\01\01\01\00\00\00\01\00\00\01\01\01\1F\0C\DA\01\00\00[\03\00\00\C1\00\00\00\CF\02\00\00s\00\00\00\03\04\00\00\82\03\00\00\07\02\00\003\01\00\00%\04\00\00v\02\00\00\EB\02\00\00\02\01\1F\02\0F5#\00\00\00\00I\00\00\00\01j\01\00\00\02\83\01\00\00\02\C0\01\00\00\03\A7\02\00\00\04;\03\00\00\05r\01\00\00\06\C1\03\00\00\02\1D\01\00\00\07\00\00\00\00\05.\00\00\00\07\A0\01\00\00\02\E4\00\00\00\02\CD\03\00\00\08;\03\00\00\07[\00\00\00\09c\00\00\00\06Q\02\00\00\086\00\00\00\08\D6\03\00\00\08\07\01\00\00\0A\07\00\00\00\0A\AF\01\00\00\07#\01\00\00\0A\15\01\00\00\05\92\01\00\00\0A\10\04\00\00\0A\13\00\00\00\08D\03\00\00\02\9F\02\00\00\07R\03\00\00\05\19\04\00\00\0B\B1\00\00\00\04\F2\03\00\00\07a\01\00\00\05e\04\00\00\05|\01\00\00\07\1C\00\00\00\0AA\02\00\00\07\B5\02\00\00\0A\EA\03\00\00\05\EA\03\00\00\02\FA\03\00\00\05\D2\01\00\00\07\C0\02\00\00\02\B6\01\00\00\0Am\04\00\00\07H\02\00\00\0A,\01\00\00\05\F5\00\00\00\06\00\00\00\00\07#\00\00\00\00\044\00\09\02\00\10\00\00\00\00\00\00\1A\04\01\05\0C\0A\03\8F\02\01\044\03\F3}.\04\01\03\8D\02J\044\05\09\03\F5}J\05\19\06 \05\11J\05\19X\05\17.\05\09<\05\0F<\05\01\060\02\01\00\01\01\00\00\00\00\00\00\1C\00\00\00\FF\FF\FF\FF\04[llvm:v0.0]\00\08\00\04\04\10\00\00\00\00\00\00\1C\00\00\00\00\00\00\00\00\10\00\00\00\00\00\00|\00\00\00\00\00\00\00\0F\0306\E1\07\10\00math.h\00mbstate_t.h\00stdarg.h\00FILE.h\00vecadd.hip\00cstdlib\00__clang_hip_math.h\00amd_hip_runtime.h\00debug.h\00exception_ptr.h\00/usr/lib/gcc/x86_64-linux-gnu/9/../../../../include/c++/9/ext\00new_allocator.h\00/usr/include/x86_64-linux-gnu/bits\00stdlib-bsearch.h\00shared_ptr_base.h\00__mbstate_t.h\00wchar.h\00cmath\00wint_t.h\00time.h\00/opt/rocm-5.3.0/llvm/lib/clang/15.0.0/include\00locale.h\00types.h\00std_abs.h\00cctype\00stdint-uintn.h\00struct_FILE.h\00stdlib-float.h\00cwchar\00clock_t.h\00hip_runtime_api.h\00cwctype\00/workspaces/cupbop-amd-playground/vector-add\00/usr/lib/gcc/x86_64-linux-gnu/9/../../../../include/c++/9\00cstdio\00time_t.h\00__clang_cuda_math_forward_declares.h\00/usr/include/x86_64-linux-gnu/bits/types\00cstdint\00concurrence.h\00__fpos_t.h\00wctype-wchar.h\00/opt/rocm-5.3.0/include/hip\00/usr/lib/gcc/x86_64-linux-gnu/9/../../../../include/x86_64-linux-gnu/c++/9/bits\00stdlib.h\00stdint-intn.h\00stdint.h\00/opt/rocm-5.3.0/include/hip/amd_detail\00/usr/lib/gcc/x86_64-linux-gnu/9/../../../../include/c++/9/bits\00mathcalls.h\00stddef.h\00__clang_hip_cmath.h\00stdio.h\00clocale\00wctype.h\00/usr/include\00__FILE.h\00c++config.h\00/usr/lib/gcc/x86_64-linux-gnu/9/../../../../include/c++/9/debug\00ctype.h\00ctime\00\00\00\00\00\00\00\00\00\00\00\00\00\00\00\00\00\00\00\00\00\00\00\00\00\00\00\00\00\00S\00\00\00\00\02\08\00\00 \00\00\00\00\00\00\00\00\00\00\00\00\00\00\01\00\00\00\12\03\07\00\00\10\00\00\00\00\00\00|\00\00\00\00\00\00\00\12\00\00\00\11\03\06\00\C0\05\00\00\00\00\00\00@\00\00\00\00\00\00\00&\00\00\00!\03\06\00\00\06\00\00\00\00\00\00\01\00\00\00\00\00\00\00\00.note\00.dynsym\00.gnu.hash\00.hash\00.dynstr\00.rodata\00.text\00.dynamic\00.AMDGPU.csdata\00.debug_abbrev\00.debug_info\00.debug_rnglists\00.debug_str_offsets\00.debug_str\00.debug_addr\00.comment\00.debug_line\00.debug_frame\00.debug_line_str\00.symtab\00.shstrtab\00.strtab\00\00_Z6vecAddPdS_S_i\00_Z6vecAddPdS_S_i.kd\00_ZN17__HIP_CoordinatesI15__HIP_ThreadIdxE1xE\00_DYNAMIC\00\00\00\00\00\00\00\00\00\00\00\00\00\00\00\00\00\00\00\00\00\00\00\00\00\00\00\00\00\00\00\00\00\00\00\00\00\00\00\00\00\00\00\00\00\00\00\00\00\00\00\00\00\00\00\00\00\00\00\00\00\00\00\00\00\00\00\00\00\00\00\00\01\00\00\00\07\00\00\00\02\00\00\00\00\00\00\00\00\02\00\00\00\00\00\00\00\02\00\00\00\00\00\00\80\02\00\00\00\00\00\00\00\00\00\00\00\00\00\00\04\00\00\00\00\00\00\00\00\00\00\00\00\00\00\00\07\00\00\00\0B\00\00\00\02\00\00\00\00\00\00\00\80\04\00\00\00\00\00\00\80\04\00\00\00\00\00\00`\00\00\00\00\00\00\00\05\00\00\00\01\00\00\00\08\00\00\00\00\00\00\00\18\00\00\00\00\00\00\00\0F\00\00\00\F6\FF\FFo\02\00\00\00\00\00\00\00\E0\04\00\00\00\00\00\00\E0\04\00\00\00\00\00\00(\00\00\00\00\00\00\00\02\00\00\00\00\00\00\00\08\00\00\00\00\00\00\00\00\00\00\00\00\00\00\00\19\00\00\00\05\00\00\00\02\00\00\00\00\00\00\00\08\05\00\00\00\00\00\00\08\05\00\00\00\00\00\00(\00\00\00\00\00\00\00\02\00\00\00\00\00\00\00\04\00\00\00\00\00\00\00\04\00\00\00\00\00\00\00\1F\00\00\00\03\00\00\00\02\00\00\00\00\00\00\000\05\00\00\00\00\00\000\05\00\00\00\00\00\00S\00\00\00\00\00\00\00\00\00\00\00\00\00\00\00\01\00\00\00\00\00\00\00\00\00\00\00\00\00\00\00'\00\00\00\01\00\00\00\02\00\00\00\00\00\00\00\C0\05\00\00\00\00\00\00\C0\05\00\00\00\00\00\00A\00\00\00\00\00\00\00\00\00\00\00\00\00\00\00@\00\00\00\00\00\00\00\00\00\00\00\00\00\00\00/\00\00\00\01\00\00\00\06\00\00\00\00\00\00\00\00\10\00\00\00\00\00\00\00\10\00\00\00\00\00\00|\00\00\00\00\00\00\00\00\00\00\00\00\00\00\00\00\01\00\00\00\00\00\00\00\00\00\00\00\00\00\005\00\00\00\06\00\00\00\03\00\00\00\00\00\00\00\00 \00\00\00\00\00\00\00 \00\00\00\00\00\00p\00\00\00\00\00\00\00\05\00\00\00\00\00\00\00\08\00\00\00\00\00\00\00\10\00\00\00\00\00\00\00>\00\00\00\01\00\00\00\00\00\00\00\00\00\00\00\00\00\00\00\00\00\00\00p \00\00\00\00\00\00\00\00\00\00\00\00\00\00\00\00\00\00\00\00\00\00\01\00\00\00\00\00\00\00\00\00\00\00\00\00\00\00M\00\00\00\01\00\00\00\00\00\00\00\00\00\00\00\00\00\00\00\00\00\00\00p \00\00\00\00\00\00\94\03\00\00\00\00\00\00\00\00\00\00\00\00\00\00\01\00\00\00\00\00\00\00\00\00\00\00\00\00\00\00[\00\00\00\01\00\00\00\00\00\00\00\00\00\00\00\00\00\00\00\00\00\00\00\04$\00\00\00\00\00\00\F46\00\00\00\00\00\00\00\00\00\00\00\00\00\00\01\00\00\00\00\00\00\00\00\00\00\00\00\00\00\00g\00\00\00\01\00\00\00\00\00\00\00\00\00\00\00\00\00\00\00\00\00\00\00\F8Z\00\00\00\00\00\00\22\00\00\00\00\00\00\00\00\00\00\00\00\00\00\00\01\00\00\00\00\00\00\00\00\00\00\00\00\00\00\00w\00\00\00\01\00\00\00\00\00\00\00\00\00\00\00\00\00\00\00\00\00\00\00\1A[\00\00\00\00\00\00d\0A\00\00\00\00\00\00\00\00\00\00\00\00\00\00\01\00\00\00\00\00\00\00\00\00\00\00\00\00\00\00\8A\00\00\00\01\00\00\000\00\00\00\00\00\00\00\00\00\00\00\00\00\00\00~e\00\00\00\00\00\00\BE\19\00\00\00\00\00\00\00\00\00\00\00\00\00\00\01\00\00\00\00\00\00\00\01\00\00\00\00\00\00\00\95\00\00\00\01\00\00\00\00\00\00\00\00\00\00\00\00\00\00\00\00\00\00\00<\7F\00\00\00\00\00\00\10\00\00\00\00\00\00\00\00\00\00\00\00\00\00\00\01\00\00\00\00\00\00\00\00\00\00\00\00\00\00\00\A1\00\00\00\01\00\00\000\00\00\00\00\00\00\00\00\00\00\00\00\00\00\00L\7F\00\00\00\00\00\00\9E\00\00\00\00\00\00\00\00\00\00\00\00\00\00\00\01\00\00\00\00\00\00\00\01\00\00\00\00\00\00\00\AA\00\00\00\01\00\00\00\00\00\00\00\00\00\00\00\00\00\00\00\00\00\00\00\EA\7F\00\00\00\00\00\00\A8\01\00\00\00\00\00\00\00\00\00\00\00\00\00\00\01\00\00\00\00\00\00\00\00\00\00\00\00\00\00\00\B6\00\00\00\01\00\00\00\00\00\00\00\00\00\00\00\00\00\00\00\00\00\00\00\98\81\00\00\00\00\00\00@\00\00\00\00\00\00\00\00\00\00\00\00\00\00\00\08\00\00\00\00\00\00\00\00\00\00\00\00\00\00\00\C3\00\00\00\01\00\00\000\00\00\00\00\00\00\00\00\00\00\00\00\00\00\00\D8\81\00\00\00\00\00\00s\04\00\00\00\00\00\00\00\00\00\00\00\00\00\00\01\00\00\00\00\00\00\00\01\00\00\00\00\00\00\00\D3\00\00\00\02\00\00\00\00\00\00\00\00\00\00\00\00\00\00\00\00\00\00\00P\86\00\00\00\00\00\00x\00\00\00\00\00\00\00\16\00\00\00\02\00\00\00\08\00\00\00\00\00\00\00\18\00\00\00\00\00\00\00\DB\00\00\00\03\00\00\00\00\00\00\00\00\00\00\00\00\00\00\00\00\00\00\00\C8\86\00\00\00\00\00\00\ED\00\00\00\00\00\00\00\00\00\00\00\00\00\00\00\01\00\00\00\00\00\00\00\00\00\00\00\00\00\00\00\E5\00\00\00\03\00\00\00\00\00\00\00\00\00\00\00\00\00\00\00\00\00\00\00\B5\87\00\00\00\00\00\00\\\00\00\00\00\00\00\00\00\00\00\00\00\00\00\00\01\00\00\00\00\00\00\00\00\00\00\00\00\00\00\00\00", section ".hip_fatbin", align 4096
@__hip_fatbin_wrapper = internal constant { i32, i32, i8*, i8* } { i32 1212764230, i32 1, i8* getelementptr inbounds ([40409 x i8], [40409 x i8]* @1, i64 0, i64 0), i8* null }, section ".hipFatBinSegment", align 8
@__hip_gpubin_handle = internal global i8** null, align 8
@llvm.global_ctors = appending global [1 x { i32, void ()*, i8* }] [{ i32, void ()*, i8* } { i32 65535, void ()* @__hip_module_ctor, i8* null }]

; Function Attrs: norecurse uwtable
define dso_local void @_Z21__device_stub__vecAddPdS_S_i(double* noundef %0, double* noundef %1, double* noundef %2, i32 noundef %3) #0 {
  %5 = alloca double*, align 8
  %6 = alloca double*, align 8
  %7 = alloca double*, align 8
  %8 = alloca i32, align 4
  %9 = alloca %struct.dim3, align 8
  %10 = alloca %struct.dim3, align 8
  %11 = alloca i64, align 8
  %12 = alloca i8*, align 8
  %13 = alloca { i64, i32 }, align 8
  %14 = alloca { i64, i32 }, align 8
  store double* %0, double** %5, align 8, !tbaa !1708
  store double* %1, double** %6, align 8, !tbaa !1708
  store double* %2, double** %7, align 8, !tbaa !1708
  store i32 %3, i32* %8, align 4, !tbaa !1712
  %15 = alloca i8*, i64 4, align 16
  %16 = bitcast double** %5 to i8*
  %17 = getelementptr i8*, i8** %15, i32 0
  store i8* %16, i8** %17, align 8
  %18 = bitcast double** %6 to i8*
  %19 = getelementptr i8*, i8** %15, i32 1
  store i8* %18, i8** %19, align 8
  %20 = bitcast double** %7 to i8*
  %21 = getelementptr i8*, i8** %15, i32 2
  store i8* %20, i8** %21, align 8
  %22 = bitcast i32* %8 to i8*
  %23 = getelementptr i8*, i8** %15, i32 3
  store i8* %22, i8** %23, align 8
  %24 = call i32 @__hipPopCallConfiguration(%struct.dim3* %9, %struct.dim3* %10, i64* %11, i8** %12)
  %25 = load i64, i64* %11, align 8
  %26 = load i8*, i8** %12, align 8
  %27 = bitcast { i64, i32 }* %13 to i8*
  %28 = bitcast %struct.dim3* %9 to i8*
  call void @llvm.memcpy.p0i8.p0i8.i64(i8* align 8 %27, i8* align 8 %28, i64 12, i1 false)
  %29 = getelementptr inbounds { i64, i32 }, { i64, i32 }* %13, i32 0, i32 0
  %30 = load i64, i64* %29, align 8
  %31 = getelementptr inbounds { i64, i32 }, { i64, i32 }* %13, i32 0, i32 1
  %32 = load i32, i32* %31, align 8
  %33 = bitcast { i64, i32 }* %14 to i8*
  %34 = bitcast %struct.dim3* %10 to i8*
  call void @llvm.memcpy.p0i8.p0i8.i64(i8* align 8 %33, i8* align 8 %34, i64 12, i1 false)
  %35 = getelementptr inbounds { i64, i32 }, { i64, i32 }* %14, i32 0, i32 0
  %36 = load i64, i64* %35, align 8
  %37 = getelementptr inbounds { i64, i32 }, { i64, i32 }* %14, i32 0, i32 1
  %38 = load i32, i32* %37, align 8
  %39 = bitcast i8* %26 to %struct.ihipStream_t*
  %40 = call noundef i32 @hipLaunchKernel(i8* noundef bitcast (void (double*, double*, double*, i32)** @_Z6vecAddPdS_S_i to i8*), i64 %30, i32 %32, i64 %36, i32 %38, i8** noundef %15, i64 noundef %25, %struct.ihipStream_t* noundef %39)
  br label %41

41:                                               ; preds = %4
  ret void
}

declare dso_local i32 @__hipPopCallConfiguration(%struct.dim3*, %struct.dim3*, i64*, i8**)

declare dso_local i32 @hipLaunchKernel(i8*, i64, i32, i64, i32, i8**, i64, %struct.ihipStream_t*)

; Function Attrs: argmemonly nofree nounwind willreturn
declare void @llvm.memcpy.p0i8.p0i8.i64(i8* noalias nocapture writeonly, i8* noalias nocapture readonly, i64, i1 immarg) #1

; Function Attrs: mustprogress norecurse uwtable
define dso_local noundef i32 @main(i32 noundef %0, i8** noundef %1) #2 !dbg !1714 {
  %3 = alloca i32, align 4
  %4 = alloca i32, align 4
  %5 = alloca i8**, align 8
  %6 = alloca i32, align 4
  %7 = alloca double*, align 8
  %8 = alloca double*, align 8
  %9 = alloca double*, align 8
  %10 = alloca double*, align 8
  %11 = alloca double*, align 8
  %12 = alloca double*, align 8
  %13 = alloca i64, align 8
  %14 = alloca i32, align 4
  %15 = alloca i32, align 4
  %16 = alloca i32, align 4
  %17 = alloca %struct.dim3, align 4
  %18 = alloca %struct.dim3, align 4
  %19 = alloca { i64, i32 }, align 4
  %20 = alloca { i64, i32 }, align 4
  %21 = alloca double, align 8
  store i32 0, i32* %3, align 4
  store i32 %0, i32* %4, align 4, !tbaa !1712
  call void @llvm.dbg.declare(metadata i32* %4, metadata !1718, metadata !DIExpression()), !dbg !1732
  store i8** %1, i8*** %5, align 8, !tbaa !1708
  call void @llvm.dbg.declare(metadata i8*** %5, metadata !1719, metadata !DIExpression()), !dbg !1733
  %22 = bitcast i32* %6 to i8*, !dbg !1734
  call void @llvm.lifetime.start.p0i8(i64 4, i8* %22) #11, !dbg !1734
  call void @llvm.dbg.declare(metadata i32* %6, metadata !1720, metadata !DIExpression()), !dbg !1735
  store i32 100000, i32* %6, align 4, !dbg !1735, !tbaa !1712
  %23 = bitcast double** %7 to i8*, !dbg !1736
  call void @llvm.lifetime.start.p0i8(i64 8, i8* %23) #11, !dbg !1736
  call void @llvm.dbg.declare(metadata double** %7, metadata !1721, metadata !DIExpression()), !dbg !1737
  %24 = bitcast double** %8 to i8*, !dbg !1738
  call void @llvm.lifetime.start.p0i8(i64 8, i8* %24) #11, !dbg !1738
  call void @llvm.dbg.declare(metadata double** %8, metadata !1722, metadata !DIExpression()), !dbg !1739
  %25 = bitcast double** %9 to i8*, !dbg !1740
  call void @llvm.lifetime.start.p0i8(i64 8, i8* %25) #11, !dbg !1740
  call void @llvm.dbg.declare(metadata double** %9, metadata !1723, metadata !DIExpression()), !dbg !1741
  %26 = bitcast double** %10 to i8*, !dbg !1742
  call void @llvm.lifetime.start.p0i8(i64 8, i8* %26) #11, !dbg !1742
  call void @llvm.dbg.declare(metadata double** %10, metadata !1724, metadata !DIExpression()), !dbg !1743
  %27 = bitcast double** %11 to i8*, !dbg !1744
  call void @llvm.lifetime.start.p0i8(i64 8, i8* %27) #11, !dbg !1744
  call void @llvm.dbg.declare(metadata double** %11, metadata !1725, metadata !DIExpression()), !dbg !1745
  %28 = bitcast double** %12 to i8*, !dbg !1746
  call void @llvm.lifetime.start.p0i8(i64 8, i8* %28) #11, !dbg !1746
  call void @llvm.dbg.declare(metadata double** %12, metadata !1726, metadata !DIExpression()), !dbg !1747
  %29 = bitcast i64* %13 to i8*, !dbg !1748
  call void @llvm.lifetime.start.p0i8(i64 8, i8* %29) #11, !dbg !1748
  call void @llvm.dbg.declare(metadata i64* %13, metadata !1727, metadata !DIExpression()), !dbg !1749
  %30 = load i32, i32* %6, align 4, !dbg !1750, !tbaa !1712
  %31 = sext i32 %30 to i64, !dbg !1750
  %32 = mul i64 %31, 8, !dbg !1751
  store i64 %32, i64* %13, align 8, !dbg !1749, !tbaa !1752
  %33 = load i64, i64* %13, align 8, !dbg !1754, !tbaa !1752
  %34 = call noalias i8* @malloc(i64 noundef %33) #12, !dbg !1755
  %35 = bitcast i8* %34 to double*, !dbg !1756
  store double* %35, double** %7, align 8, !dbg !1757, !tbaa !1708
  %36 = load i64, i64* %13, align 8, !dbg !1758, !tbaa !1752
  %37 = call noalias i8* @malloc(i64 noundef %36) #12, !dbg !1759
  %38 = bitcast i8* %37 to double*, !dbg !1760
  store double* %38, double** %8, align 8, !dbg !1761, !tbaa !1708
  %39 = load i64, i64* %13, align 8, !dbg !1762, !tbaa !1752
  %40 = call noalias i8* @malloc(i64 noundef %39) #12, !dbg !1763
  %41 = bitcast i8* %40 to double*, !dbg !1764
  store double* %41, double** %9, align 8, !dbg !1765, !tbaa !1708
  %42 = load i64, i64* %13, align 8, !dbg !1766, !tbaa !1752
  %43 = call noundef i32 @_ZL9hipMallocIdE10hipError_tPPT_m(double** noundef %10, i64 noundef %42), !dbg !1767
  %44 = load i64, i64* %13, align 8, !dbg !1768, !tbaa !1752
  %45 = call noundef i32 @_ZL9hipMallocIdE10hipError_tPPT_m(double** noundef %11, i64 noundef %44), !dbg !1769
  %46 = load i64, i64* %13, align 8, !dbg !1770, !tbaa !1752
  %47 = call noundef i32 @_ZL9hipMallocIdE10hipError_tPPT_m(double** noundef %12, i64 noundef %46), !dbg !1771
  %48 = bitcast i32* %14 to i8*, !dbg !1772
  call void @llvm.lifetime.start.p0i8(i64 4, i8* %48) #11, !dbg !1772
  call void @llvm.dbg.declare(metadata i32* %14, metadata !1728, metadata !DIExpression()), !dbg !1773
  store i32 0, i32* %14, align 4, !dbg !1774, !tbaa !1712
  br label %49, !dbg !1776

49:                                               ; preds = %72, %2
  %50 = load i32, i32* %14, align 4, !dbg !1777, !tbaa !1712
  %51 = load i32, i32* %6, align 4, !dbg !1779, !tbaa !1712
  %52 = icmp slt i32 %50, %51, !dbg !1780
  br i1 %52, label %53, label %75, !dbg !1781

53:                                               ; preds = %49
  %54 = load i32, i32* %14, align 4, !dbg !1782, !tbaa !1712
  %55 = call contract noundef double @_ZSt3sinIiEN9__gnu_cxx11__enable_ifIXsr12__is_integerIT_EE7__valueEdE6__typeES2_(i32 noundef %54), !dbg !1784
  %56 = load i32, i32* %14, align 4, !dbg !1785, !tbaa !1712
  %57 = call contract noundef double @_ZSt3sinIiEN9__gnu_cxx11__enable_ifIXsr12__is_integerIT_EE7__valueEdE6__typeES2_(i32 noundef %56), !dbg !1786
  %58 = fmul contract double %55, %57, !dbg !1787
  %59 = load double*, double** %7, align 8, !dbg !1788, !tbaa !1708
  %60 = load i32, i32* %14, align 4, !dbg !1789, !tbaa !1712
  %61 = sext i32 %60 to i64, !dbg !1788
  %62 = getelementptr inbounds double, double* %59, i64 %61, !dbg !1788
  store double %58, double* %62, align 8, !dbg !1790, !tbaa !1791
  %63 = load i32, i32* %14, align 4, !dbg !1793, !tbaa !1712
  %64 = call contract noundef double @_ZSt3cosIiEN9__gnu_cxx11__enable_ifIXsr12__is_integerIT_EE7__valueEdE6__typeES2_(i32 noundef %63), !dbg !1794
  %65 = load i32, i32* %14, align 4, !dbg !1795, !tbaa !1712
  %66 = call contract noundef double @_ZSt3cosIiEN9__gnu_cxx11__enable_ifIXsr12__is_integerIT_EE7__valueEdE6__typeES2_(i32 noundef %65), !dbg !1796
  %67 = fmul contract double %64, %66, !dbg !1797
  %68 = load double*, double** %8, align 8, !dbg !1798, !tbaa !1708
  %69 = load i32, i32* %14, align 4, !dbg !1799, !tbaa !1712
  %70 = sext i32 %69 to i64, !dbg !1798
  %71 = getelementptr inbounds double, double* %68, i64 %70, !dbg !1798
  store double %67, double* %71, align 8, !dbg !1800, !tbaa !1791
  br label %72, !dbg !1801

72:                                               ; preds = %53
  %73 = load i32, i32* %14, align 4, !dbg !1802, !tbaa !1712
  %74 = add nsw i32 %73, 1, !dbg !1802
  store i32 %74, i32* %14, align 4, !dbg !1802, !tbaa !1712
  br label %49, !dbg !1803, !llvm.loop !1804

75:                                               ; preds = %49
  %76 = load double*, double** %10, align 8, !dbg !1807, !tbaa !1708
  %77 = bitcast double* %76 to i8*, !dbg !1807
  %78 = load double*, double** %7, align 8, !dbg !1808, !tbaa !1708
  %79 = bitcast double* %78 to i8*, !dbg !1808
  %80 = load i64, i64* %13, align 8, !dbg !1809, !tbaa !1752
  %81 = call i32 @hipMemcpy(i8* noundef %77, i8* noundef %79, i64 noundef %80, i32 noundef 1), !dbg !1810
  %82 = load double*, double** %11, align 8, !dbg !1811, !tbaa !1708
  %83 = bitcast double* %82 to i8*, !dbg !1811
  %84 = load double*, double** %8, align 8, !dbg !1812, !tbaa !1708
  %85 = bitcast double* %84 to i8*, !dbg !1812
  %86 = load i64, i64* %13, align 8, !dbg !1813, !tbaa !1752
  %87 = call i32 @hipMemcpy(i8* noundef %83, i8* noundef %85, i64 noundef %86, i32 noundef 1), !dbg !1814
  %88 = bitcast i32* %15 to i8*, !dbg !1815
  call void @llvm.lifetime.start.p0i8(i64 4, i8* %88) #11, !dbg !1815
  call void @llvm.dbg.declare(metadata i32* %15, metadata !1729, metadata !DIExpression()), !dbg !1816
  %89 = bitcast i32* %16 to i8*, !dbg !1815
  call void @llvm.lifetime.start.p0i8(i64 4, i8* %89) #11, !dbg !1815
  call void @llvm.dbg.declare(metadata i32* %16, metadata !1730, metadata !DIExpression()), !dbg !1817
  %90 = load i32, i32* %6, align 4, !dbg !1818, !tbaa !1712
  store i32 %90, i32* %15, align 4, !dbg !1819, !tbaa !1712
  store i32 1, i32* %16, align 4, !dbg !1820, !tbaa !1712
  %91 = load i32, i32* %16, align 4, !dbg !1821, !tbaa !1712
  call void @_ZN4dim3C2Ejjj(%struct.dim3* noundef nonnull align 4 dereferenceable(12) %17, i32 noundef %91, i32 noundef 1, i32 noundef 1), !dbg !1821
  %92 = load i32, i32* %15, align 4, !dbg !1822, !tbaa !1712
  call void @_ZN4dim3C2Ejjj(%struct.dim3* noundef nonnull align 4 dereferenceable(12) %18, i32 noundef %92, i32 noundef 1, i32 noundef 1), !dbg !1822
  %93 = bitcast { i64, i32 }* %19 to i8*, !dbg !1823
  %94 = bitcast %struct.dim3* %17 to i8*, !dbg !1823
  call void @llvm.memcpy.p0i8.p0i8.i64(i8* align 4 %93, i8* align 4 %94, i64 12, i1 false), !dbg !1823
  %95 = getelementptr inbounds { i64, i32 }, { i64, i32 }* %19, i32 0, i32 0, !dbg !1823
  %96 = load i64, i64* %95, align 4, !dbg !1823
  %97 = getelementptr inbounds { i64, i32 }, { i64, i32 }* %19, i32 0, i32 1, !dbg !1823
  %98 = load i32, i32* %97, align 4, !dbg !1823
  %99 = bitcast { i64, i32 }* %20 to i8*, !dbg !1823
  %100 = bitcast %struct.dim3* %18 to i8*, !dbg !1823
  call void @llvm.memcpy.p0i8.p0i8.i64(i8* align 4 %99, i8* align 4 %100, i64 12, i1 false), !dbg !1823
  %101 = getelementptr inbounds { i64, i32 }, { i64, i32 }* %20, i32 0, i32 0, !dbg !1823
  %102 = load i64, i64* %101, align 4, !dbg !1823
  %103 = getelementptr inbounds { i64, i32 }, { i64, i32 }* %20, i32 0, i32 1, !dbg !1823
  %104 = load i32, i32* %103, align 4, !dbg !1823
  %105 = call i32 @__hipPushCallConfiguration(i64 %96, i32 %98, i64 %102, i32 %104, i64 noundef 0, %struct.ihipStream_t* noundef null), !dbg !1823
  %106 = icmp ne i32 %105, 0, !dbg !1823
  br i1 %106, label %112, label %107, !dbg !1824

107:                                              ; preds = %75
  %108 = load double*, double** %10, align 8, !dbg !1825, !tbaa !1708
  %109 = load double*, double** %11, align 8, !dbg !1826, !tbaa !1708
  %110 = load double*, double** %12, align 8, !dbg !1827, !tbaa !1708
  %111 = load i32, i32* %6, align 4, !dbg !1828, !tbaa !1712
  call void @_Z21__device_stub__vecAddPdS_S_i(double* noundef %108, double* noundef %109, double* noundef %110, i32 noundef %111), !dbg !1824
  br label %112, !dbg !1824

112:                                              ; preds = %107, %75
  %113 = load double*, double** %9, align 8, !dbg !1829, !tbaa !1708
  %114 = bitcast double* %113 to i8*, !dbg !1829
  %115 = load double*, double** %12, align 8, !dbg !1830, !tbaa !1708
  %116 = bitcast double* %115 to i8*, !dbg !1830
  %117 = load i64, i64* %13, align 8, !dbg !1831, !tbaa !1752
  %118 = call i32 @hipMemcpy(i8* noundef %114, i8* noundef %116, i64 noundef %117, i32 noundef 2), !dbg !1832
  %119 = bitcast double* %21 to i8*, !dbg !1833
  call void @llvm.lifetime.start.p0i8(i64 8, i8* %119) #11, !dbg !1833
  call void @llvm.dbg.declare(metadata double* %21, metadata !1731, metadata !DIExpression()), !dbg !1834
  store double 0.000000e+00, double* %21, align 8, !dbg !1834, !tbaa !1791
  store i32 0, i32* %14, align 4, !dbg !1835, !tbaa !1712
  br label %120, !dbg !1837

120:                                              ; preds = %132, %112
  %121 = load i32, i32* %14, align 4, !dbg !1838, !tbaa !1712
  %122 = load i32, i32* %6, align 4, !dbg !1840, !tbaa !1712
  %123 = icmp slt i32 %121, %122, !dbg !1841
  br i1 %123, label %124, label %135, !dbg !1842

124:                                              ; preds = %120
  %125 = load double*, double** %9, align 8, !dbg !1843, !tbaa !1708
  %126 = load i32, i32* %14, align 4, !dbg !1844, !tbaa !1712
  %127 = sext i32 %126 to i64, !dbg !1843
  %128 = getelementptr inbounds double, double* %125, i64 %127, !dbg !1843
  %129 = load double, double* %128, align 8, !dbg !1843, !tbaa !1791
  %130 = load double, double* %21, align 8, !dbg !1845, !tbaa !1791
  %131 = fadd contract double %130, %129, !dbg !1845
  store double %131, double* %21, align 8, !dbg !1845, !tbaa !1791
  br label %132, !dbg !1846

132:                                              ; preds = %124
  %133 = load i32, i32* %14, align 4, !dbg !1847, !tbaa !1712
  %134 = add nsw i32 %133, 1, !dbg !1847
  store i32 %134, i32* %14, align 4, !dbg !1847, !tbaa !1712
  br label %120, !dbg !1848, !llvm.loop !1849

135:                                              ; preds = %120
  %136 = load double, double* %21, align 8, !dbg !1851, !tbaa !1791
  %137 = load i32, i32* %6, align 4, !dbg !1852, !tbaa !1712
  %138 = sitofp i32 %137 to double, !dbg !1852
  %139 = fdiv contract double %136, %138, !dbg !1853
  %140 = call i32 (i8*, ...) @printf(i8* noundef getelementptr inbounds ([18 x i8], [18 x i8]* @.str, i64 0, i64 0), double noundef %139), !dbg !1854
  %141 = load double*, double** %10, align 8, !dbg !1855, !tbaa !1708
  %142 = bitcast double* %141 to i8*, !dbg !1855
  %143 = call i32 @hipFree(i8* noundef %142), !dbg !1856
  %144 = load double*, double** %11, align 8, !dbg !1857, !tbaa !1708
  %145 = bitcast double* %144 to i8*, !dbg !1857
  %146 = call i32 @hipFree(i8* noundef %145), !dbg !1858
  %147 = load double*, double** %12, align 8, !dbg !1859, !tbaa !1708
  %148 = bitcast double* %147 to i8*, !dbg !1859
  %149 = call i32 @hipFree(i8* noundef %148), !dbg !1860
  %150 = load double*, double** %7, align 8, !dbg !1861, !tbaa !1708
  %151 = bitcast double* %150 to i8*, !dbg !1861
  call void @free(i8* noundef %151) #11, !dbg !1862
  %152 = load double*, double** %8, align 8, !dbg !1863, !tbaa !1708
  %153 = bitcast double* %152 to i8*, !dbg !1863
  call void @free(i8* noundef %153) #11, !dbg !1864
  %154 = load double*, double** %9, align 8, !dbg !1865, !tbaa !1708
  %155 = bitcast double* %154 to i8*, !dbg !1865
  call void @free(i8* noundef %155) #11, !dbg !1866
  %156 = bitcast double* %21 to i8*, !dbg !1867
  call void @llvm.lifetime.end.p0i8(i64 8, i8* %156) #11, !dbg !1867
  %157 = bitcast i32* %16 to i8*, !dbg !1867
  call void @llvm.lifetime.end.p0i8(i64 4, i8* %157) #11, !dbg !1867
  %158 = bitcast i32* %15 to i8*, !dbg !1867
  call void @llvm.lifetime.end.p0i8(i64 4, i8* %158) #11, !dbg !1867
  %159 = bitcast i32* %14 to i8*, !dbg !1867
  call void @llvm.lifetime.end.p0i8(i64 4, i8* %159) #11, !dbg !1867
  %160 = bitcast i64* %13 to i8*, !dbg !1867
  call void @llvm.lifetime.end.p0i8(i64 8, i8* %160) #11, !dbg !1867
  %161 = bitcast double** %12 to i8*, !dbg !1867
  call void @llvm.lifetime.end.p0i8(i64 8, i8* %161) #11, !dbg !1867
  %162 = bitcast double** %11 to i8*, !dbg !1867
  call void @llvm.lifetime.end.p0i8(i64 8, i8* %162) #11, !dbg !1867
  %163 = bitcast double** %10 to i8*, !dbg !1867
  call void @llvm.lifetime.end.p0i8(i64 8, i8* %163) #11, !dbg !1867
  %164 = bitcast double** %9 to i8*, !dbg !1867
  call void @llvm.lifetime.end.p0i8(i64 8, i8* %164) #11, !dbg !1867
  %165 = bitcast double** %8 to i8*, !dbg !1867
  call void @llvm.lifetime.end.p0i8(i64 8, i8* %165) #11, !dbg !1867
  %166 = bitcast double** %7 to i8*, !dbg !1867
  call void @llvm.lifetime.end.p0i8(i64 8, i8* %166) #11, !dbg !1867
  %167 = bitcast i32* %6 to i8*, !dbg !1867
  call void @llvm.lifetime.end.p0i8(i64 4, i8* %167) #11, !dbg !1867
  ret i32 0, !dbg !1868
}

; Function Attrs: nocallback nofree nosync nounwind readnone speculatable willreturn
declare void @llvm.dbg.declare(metadata, metadata, metadata) #3

; Function Attrs: argmemonly nocallback nofree nosync nounwind willreturn
declare void @llvm.lifetime.start.p0i8(i64 immarg, i8* nocapture) #4

; Function Attrs: nounwind allocsize(0)
declare dso_local noalias i8* @malloc(i64 noundef) #5

; Function Attrs: inlinehint mustprogress uwtable
define internal noundef i32 @_ZL9hipMallocIdE10hipError_tPPT_m(double** noundef %0, i64 noundef %1) #6 !dbg !1869 {
  %3 = alloca double**, align 8
  %4 = alloca i64, align 8
  store double** %0, double*** %3, align 8, !tbaa !1708
  call void @llvm.dbg.declare(metadata double*** %3, metadata !1875, metadata !DIExpression()), !dbg !1879
  store i64 %1, i64* %4, align 8, !tbaa !1752
  call void @llvm.dbg.declare(metadata i64* %4, metadata !1876, metadata !DIExpression()), !dbg !1880
  %5 = load double**, double*** %3, align 8, !dbg !1881, !tbaa !1708
  %6 = bitcast double** %5 to i8**, !dbg !1882
  %7 = load i64, i64* %4, align 8, !dbg !1883, !tbaa !1752
  %8 = call i32 @hipMalloc(i8** noundef %6, i64 noundef %7), !dbg !1884
  ret i32 %8, !dbg !1885
}

; Function Attrs: inlinehint mustprogress nounwind uwtable
define linkonce_odr dso_local noundef double @_ZSt3sinIiEN9__gnu_cxx11__enable_ifIXsr12__is_integerIT_EE7__valueEdE6__typeES2_(i32 noundef %0) #7 comdat !dbg !1886 {
  %2 = alloca i32, align 4
  store i32 %0, i32* %2, align 4, !tbaa !1712
  call void @llvm.dbg.declare(metadata i32* %2, metadata !1897, metadata !DIExpression()), !dbg !1900
  %3 = load i32, i32* %2, align 4, !dbg !1901, !tbaa !1712
  %4 = sitofp i32 %3 to double, !dbg !1901
  %5 = call contract double @sin(double noundef %4) #11, !dbg !1902
  ret double %5, !dbg !1903
}

; Function Attrs: inlinehint mustprogress nounwind uwtable
define linkonce_odr dso_local noundef double @_ZSt3cosIiEN9__gnu_cxx11__enable_ifIXsr12__is_integerIT_EE7__valueEdE6__typeES2_(i32 noundef %0) #7 comdat !dbg !1904 {
  %2 = alloca i32, align 4
  store i32 %0, i32* %2, align 4, !tbaa !1712
  call void @llvm.dbg.declare(metadata i32* %2, metadata !1906, metadata !DIExpression()), !dbg !1907
  %3 = load i32, i32* %2, align 4, !dbg !1908, !tbaa !1712
  %4 = sitofp i32 %3 to double, !dbg !1908
  %5 = call contract double @cos(double noundef %4) #11, !dbg !1909
  ret double %5, !dbg !1910
}

declare !dbg !1911 dso_local i32 @hipMemcpy(i8* noundef, i8* noundef, i64 noundef, i32 noundef) #8

declare dso_local i32 @__hipPushCallConfiguration(i64, i32, i64, i32, i64 noundef, %struct.ihipStream_t* noundef) #8

; Function Attrs: nounwind uwtable
define linkonce_odr dso_local void @_ZN4dim3C2Ejjj(%struct.dim3* noundef nonnull align 4 dereferenceable(12) %0, i32 noundef %1, i32 noundef %2, i32 noundef %3) unnamed_addr #9 comdat align 2 !dbg !1915 {
  %5 = alloca %struct.dim3*, align 8
  %6 = alloca i32, align 4
  %7 = alloca i32, align 4
  %8 = alloca i32, align 4
  store %struct.dim3* %0, %struct.dim3** %5, align 8, !tbaa !1708
  call void @llvm.dbg.declare(metadata %struct.dim3** %5, metadata !1917, metadata !DIExpression()), !dbg !1922
  store i32 %1, i32* %6, align 4, !tbaa !1712
  call void @llvm.dbg.declare(metadata i32* %6, metadata !1919, metadata !DIExpression()), !dbg !1923
  store i32 %2, i32* %7, align 4, !tbaa !1712
  call void @llvm.dbg.declare(metadata i32* %7, metadata !1920, metadata !DIExpression()), !dbg !1924
  store i32 %3, i32* %8, align 4, !tbaa !1712
  call void @llvm.dbg.declare(metadata i32* %8, metadata !1921, metadata !DIExpression()), !dbg !1925
  %9 = load %struct.dim3*, %struct.dim3** %5, align 8
  %10 = getelementptr inbounds %struct.dim3, %struct.dim3* %9, i32 0, i32 0, !dbg !1926
  %11 = load i32, i32* %6, align 4, !dbg !1927, !tbaa !1712
  store i32 %11, i32* %10, align 4, !dbg !1926, !tbaa !1928
  %12 = getelementptr inbounds %struct.dim3, %struct.dim3* %9, i32 0, i32 1, !dbg !1930
  %13 = load i32, i32* %7, align 4, !dbg !1931, !tbaa !1712
  store i32 %13, i32* %12, align 4, !dbg !1930, !tbaa !1932
  %14 = getelementptr inbounds %struct.dim3, %struct.dim3* %9, i32 0, i32 2, !dbg !1933
  %15 = load i32, i32* %8, align 4, !dbg !1934, !tbaa !1712
  store i32 %15, i32* %14, align 4, !dbg !1933, !tbaa !1935
  ret void, !dbg !1936
}

declare dso_local i32 @printf(i8* noundef, ...) #8

declare !dbg !1937 dso_local i32 @hipFree(i8* noundef) #8

; Function Attrs: nounwind
declare dso_local void @free(i8* noundef) #10

; Function Attrs: argmemonly nocallback nofree nosync nounwind willreturn
declare void @llvm.lifetime.end.p0i8(i64 immarg, i8* nocapture) #4

; Function Attrs: nounwind
declare dso_local double @sin(double noundef) #10

; Function Attrs: nounwind
declare dso_local double @cos(double noundef) #10

declare !dbg !1940 dso_local i32 @hipMalloc(i8** noundef, i64 noundef) #8

define internal void @__hip_register_globals(i8** %0) {
  %2 = call i32 @__hipRegisterFunction(i8** %0, i8* bitcast (void (double*, double*, double*, i32)** @_Z6vecAddPdS_S_i to i8*), i8* getelementptr inbounds ([17 x i8], [17 x i8]* @0, i64 0, i64 0), i8* getelementptr inbounds ([17 x i8], [17 x i8]* @0, i64 0, i64 0), i32 -1, i8* null, i8* null, i8* null, i8* null, i32* null)
  ret void
}

declare dso_local i32 @__hipRegisterFunction(i8**, i8*, i8*, i8*, i32, i8*, i8*, i8*, i8*, i32*)

declare dso_local void @__hipRegisterVar(i8**, i8*, i8*, i8*, i32, i64, i32, i32)

declare dso_local void @__hipRegisterManagedVar(i8**, i8*, i8*, i8*, i64, i32)

declare dso_local void @__hipRegisterSurface(i8**, i8*, i8*, i8*, i32, i32)

declare dso_local void @__hipRegisterTexture(i8**, i8*, i8*, i8*, i32, i32, i32)

declare dso_local i8** @__hipRegisterFatBinary(i8*)

define internal void @__hip_module_ctor() {
  %1 = load i8**, i8*** @__hip_gpubin_handle, align 8
  %2 = icmp eq i8** %1, null
  br i1 %2, label %3, label %5

3:                                                ; preds = %0
  %4 = call i8** @__hipRegisterFatBinary(i8* bitcast ({ i32, i32, i8*, i8* }* @__hip_fatbin_wrapper to i8*))
  store i8** %4, i8*** @__hip_gpubin_handle, align 8
  br label %5

5:                                                ; preds = %3, %0
  %6 = load i8**, i8*** @__hip_gpubin_handle, align 8
  call void @__hip_register_globals(i8** %6)
  %7 = call i32 @atexit(void ()* @__hip_module_dtor)
  ret void
}

declare dso_local void @__hipUnregisterFatBinary(i8**)

define internal void @__hip_module_dtor() {
  %1 = load i8**, i8*** @__hip_gpubin_handle, align 8
  %2 = icmp ne i8** %1, null
  br i1 %2, label %3, label %4

3:                                                ; preds = %0
  call void @__hipUnregisterFatBinary(i8** %1)
  store i8** null, i8*** @__hip_gpubin_handle, align 8
  br label %4

4:                                                ; preds = %3, %0
  ret void
}

declare dso_local i32 @atexit(void ()*)

attributes #0 = { norecurse uwtable "frame-pointer"="none" "min-legal-vector-width"="0" "no-trapping-math"="true" "stack-protector-buffer-size"="8" "target-cpu"="x86-64" "target-features"="+cx8,+fxsr,+mmx,+sse,+sse2,+x87" "tune-cpu"="generic" }
attributes #1 = { argmemonly nofree nounwind willreturn }
attributes #2 = { mustprogress norecurse uwtable "frame-pointer"="none" "min-legal-vector-width"="0" "no-trapping-math"="true" "stack-protector-buffer-size"="8" "target-cpu"="x86-64" "target-features"="+cx8,+fxsr,+mmx,+sse,+sse2,+x87" "tune-cpu"="generic" }
attributes #3 = { nocallback nofree nosync nounwind readnone speculatable willreturn }
attributes #4 = { argmemonly nocallback nofree nosync nounwind willreturn }
attributes #5 = { nounwind allocsize(0) "frame-pointer"="none" "no-trapping-math"="true" "stack-protector-buffer-size"="8" "target-cpu"="x86-64" "target-features"="+cx8,+fxsr,+mmx,+sse,+sse2,+x87" "tune-cpu"="generic" }
attributes #6 = { inlinehint mustprogress uwtable "frame-pointer"="none" "min-legal-vector-width"="0" "no-trapping-math"="true" "stack-protector-buffer-size"="8" "target-cpu"="x86-64" "target-features"="+cx8,+fxsr,+mmx,+sse,+sse2,+x87" "tune-cpu"="generic" }
attributes #7 = { inlinehint mustprogress nounwind uwtable "frame-pointer"="none" "min-legal-vector-width"="0" "no-trapping-math"="true" "stack-protector-buffer-size"="8" "target-cpu"="x86-64" "target-features"="+cx8,+fxsr,+mmx,+sse,+sse2,+x87" "tune-cpu"="generic" }
attributes #8 = { "frame-pointer"="none" "no-trapping-math"="true" "stack-protector-buffer-size"="8" "target-cpu"="x86-64" "target-features"="+cx8,+fxsr,+mmx,+sse,+sse2,+x87" "tune-cpu"="generic" }
attributes #9 = { nounwind uwtable "frame-pointer"="none" "min-legal-vector-width"="0" "no-trapping-math"="true" "stack-protector-buffer-size"="8" "target-cpu"="x86-64" "target-features"="+cx8,+fxsr,+mmx,+sse,+sse2,+x87" "tune-cpu"="generic" }
attributes #10 = { nounwind "frame-pointer"="none" "no-trapping-math"="true" "stack-protector-buffer-size"="8" "target-cpu"="x86-64" "target-features"="+cx8,+fxsr,+mmx,+sse,+sse2,+x87" "tune-cpu"="generic" }
attributes #11 = { nounwind }
attributes #12 = { nounwind allocsize(0) }

!llvm.dbg.cu = !{!8}
!llvm.module.flags = !{!1703, !1704, !1705, !1706}
!llvm.ident = !{!1707}

!0 = !DIGlobalVariableExpression(var: !1, expr: !DIExpression())
!1 = distinct !DIGlobalVariable(scope: null, file: !2, line: 80, type: !3, isLocal: true, isDefinition: true)
!2 = !DIFile(filename: "vecadd.hip", directory: "/workspaces/cupbop-amd-playground/vector-add")
!3 = !DICompositeType(tag: DW_TAG_array_type, baseType: !4, size: 144, elements: !6)
!4 = !DIDerivedType(tag: DW_TAG_const_type, baseType: !5)
!5 = !DIBasicType(name: "char", size: 8, encoding: DW_ATE_signed_char)
!6 = !{!7}
!7 = !DISubrange(count: 18)
!8 = distinct !DICompileUnit(language: DW_LANG_C_plus_plus_11, file: !9, producer: "AMD clang version 15.0.0 (https://github.com/RadeonOpenCompute/llvm-project roc-5.3.0 22362 3cf23f77f8208174a2ee7c616f4be23674d7b081)", isOptimized: true, runtimeVersion: 0, emissionKind: FullDebug, enums: !10, retainedTypes: !108, globals: !126, imports: !127, splitDebugInlining: false, nameTableKind: None)
!9 = !DIFile(filename: "vecadd.hip", directory: "/workspaces/cupbop-amd-playground/vector-add", checksumkind: CSK_MD5, checksum: "410ad1d16b1ac8e4b3408ba7ab33735b")
!10 = !{!11, !19, !27}
!11 = !DICompositeType(tag: DW_TAG_enumeration_type, name: "_Lock_policy", scope: !13, file: !12, line: 49, baseType: !14, size: 32, elements: !15, identifier: "_ZTSN9__gnu_cxx12_Lock_policyE")
!12 = !DIFile(filename: "/usr/lib/gcc/x86_64-linux-gnu/9/../../../../include/c++/9/ext/concurrence.h", directory: "")
!13 = !DINamespace(name: "__gnu_cxx", scope: null)
!14 = !DIBasicType(name: "unsigned int", size: 32, encoding: DW_ATE_unsigned)
!15 = !{!16, !17, !18}
!16 = !DIEnumerator(name: "_S_single", value: 0, isUnsigned: true)
!17 = !DIEnumerator(name: "_S_mutex", value: 1, isUnsigned: true)
!18 = !DIEnumerator(name: "_S_atomic", value: 2, isUnsigned: true)
!19 = !DICompositeType(tag: DW_TAG_enumeration_type, name: "hipMemcpyKind", file: !20, line: 344, baseType: !14, size: 32, elements: !21, identifier: "_ZTS13hipMemcpyKind")
!20 = !DIFile(filename: "/opt/rocm-5.3.0/include/hip/driver_types.h", directory: "")
!21 = !{!22, !23, !24, !25, !26}
!22 = !DIEnumerator(name: "hipMemcpyHostToHost", value: 0, isUnsigned: true)
!23 = !DIEnumerator(name: "hipMemcpyHostToDevice", value: 1, isUnsigned: true)
!24 = !DIEnumerator(name: "hipMemcpyDeviceToHost", value: 2, isUnsigned: true)
!25 = !DIEnumerator(name: "hipMemcpyDeviceToDevice", value: 3, isUnsigned: true)
!26 = !DIEnumerator(name: "hipMemcpyDefault", value: 4, isUnsigned: true)
!27 = !DICompositeType(tag: DW_TAG_enumeration_type, name: "hipError_t", file: !28, line: 206, baseType: !14, size: 32, elements: !29, identifier: "_ZTS10hipError_t")
!28 = !DIFile(filename: "/opt/rocm-5.3.0/include/hip/hip_runtime_api.h", directory: "")
!29 = !{!30, !31, !32, !33, !34, !35, !36, !37, !38, !39, !40, !41, !42, !43, !44, !45, !46, !47, !48, !49, !50, !51, !52, !53, !54, !55, !56, !57, !58, !59, !60, !61, !62, !63, !64, !65, !66, !67, !68, !69, !70, !71, !72, !73, !74, !75, !76, !77, !78, !79, !80, !81, !82, !83, !84, !85, !86, !87, !88, !89, !90, !91, !92, !93, !94, !95, !96, !97, !98, !99, !100, !101, !102, !103, !104, !105, !106, !107}
!30 = !DIEnumerator(name: "hipSuccess", value: 0, isUnsigned: true)
!31 = !DIEnumerator(name: "hipErrorInvalidValue", value: 1, isUnsigned: true)
!32 = !DIEnumerator(name: "hipErrorOutOfMemory", value: 2, isUnsigned: true)
!33 = !DIEnumerator(name: "hipErrorMemoryAllocation", value: 2, isUnsigned: true)
!34 = !DIEnumerator(name: "hipErrorNotInitialized", value: 3, isUnsigned: true)
!35 = !DIEnumerator(name: "hipErrorInitializationError", value: 3, isUnsigned: true)
!36 = !DIEnumerator(name: "hipErrorDeinitialized", value: 4, isUnsigned: true)
!37 = !DIEnumerator(name: "hipErrorProfilerDisabled", value: 5, isUnsigned: true)
!38 = !DIEnumerator(name: "hipErrorProfilerNotInitialized", value: 6, isUnsigned: true)
!39 = !DIEnumerator(name: "hipErrorProfilerAlreadyStarted", value: 7, isUnsigned: true)
!40 = !DIEnumerator(name: "hipErrorProfilerAlreadyStopped", value: 8, isUnsigned: true)
!41 = !DIEnumerator(name: "hipErrorInvalidConfiguration", value: 9, isUnsigned: true)
!42 = !DIEnumerator(name: "hipErrorInvalidPitchValue", value: 12, isUnsigned: true)
!43 = !DIEnumerator(name: "hipErrorInvalidSymbol", value: 13, isUnsigned: true)
!44 = !DIEnumerator(name: "hipErrorInvalidDevicePointer", value: 17, isUnsigned: true)
!45 = !DIEnumerator(name: "hipErrorInvalidMemcpyDirection", value: 21, isUnsigned: true)
!46 = !DIEnumerator(name: "hipErrorInsufficientDriver", value: 35, isUnsigned: true)
!47 = !DIEnumerator(name: "hipErrorMissingConfiguration", value: 52, isUnsigned: true)
!48 = !DIEnumerator(name: "hipErrorPriorLaunchFailure", value: 53, isUnsigned: true)
!49 = !DIEnumerator(name: "hipErrorInvalidDeviceFunction", value: 98, isUnsigned: true)
!50 = !DIEnumerator(name: "hipErrorNoDevice", value: 100, isUnsigned: true)
!51 = !DIEnumerator(name: "hipErrorInvalidDevice", value: 101, isUnsigned: true)
!52 = !DIEnumerator(name: "hipErrorInvalidImage", value: 200, isUnsigned: true)
!53 = !DIEnumerator(name: "hipErrorInvalidContext", value: 201, isUnsigned: true)
!54 = !DIEnumerator(name: "hipErrorContextAlreadyCurrent", value: 202, isUnsigned: true)
!55 = !DIEnumerator(name: "hipErrorMapFailed", value: 205, isUnsigned: true)
!56 = !DIEnumerator(name: "hipErrorMapBufferObjectFailed", value: 205, isUnsigned: true)
!57 = !DIEnumerator(name: "hipErrorUnmapFailed", value: 206, isUnsigned: true)
!58 = !DIEnumerator(name: "hipErrorArrayIsMapped", value: 207, isUnsigned: true)
!59 = !DIEnumerator(name: "hipErrorAlreadyMapped", value: 208, isUnsigned: true)
!60 = !DIEnumerator(name: "hipErrorNoBinaryForGpu", value: 209, isUnsigned: true)
!61 = !DIEnumerator(name: "hipErrorAlreadyAcquired", value: 210, isUnsigned: true)
!62 = !DIEnumerator(name: "hipErrorNotMapped", value: 211, isUnsigned: true)
!63 = !DIEnumerator(name: "hipErrorNotMappedAsArray", value: 212, isUnsigned: true)
!64 = !DIEnumerator(name: "hipErrorNotMappedAsPointer", value: 213, isUnsigned: true)
!65 = !DIEnumerator(name: "hipErrorECCNotCorrectable", value: 214, isUnsigned: true)
!66 = !DIEnumerator(name: "hipErrorUnsupportedLimit", value: 215, isUnsigned: true)
!67 = !DIEnumerator(name: "hipErrorContextAlreadyInUse", value: 216, isUnsigned: true)
!68 = !DIEnumerator(name: "hipErrorPeerAccessUnsupported", value: 217, isUnsigned: true)
!69 = !DIEnumerator(name: "hipErrorInvalidKernelFile", value: 218, isUnsigned: true)
!70 = !DIEnumerator(name: "hipErrorInvalidGraphicsContext", value: 219, isUnsigned: true)
!71 = !DIEnumerator(name: "hipErrorInvalidSource", value: 300, isUnsigned: true)
!72 = !DIEnumerator(name: "hipErrorFileNotFound", value: 301, isUnsigned: true)
!73 = !DIEnumerator(name: "hipErrorSharedObjectSymbolNotFound", value: 302, isUnsigned: true)
!74 = !DIEnumerator(name: "hipErrorSharedObjectInitFailed", value: 303, isUnsigned: true)
!75 = !DIEnumerator(name: "hipErrorOperatingSystem", value: 304, isUnsigned: true)
!76 = !DIEnumerator(name: "hipErrorInvalidHandle", value: 400, isUnsigned: true)
!77 = !DIEnumerator(name: "hipErrorInvalidResourceHandle", value: 400, isUnsigned: true)
!78 = !DIEnumerator(name: "hipErrorIllegalState", value: 401, isUnsigned: true)
!79 = !DIEnumerator(name: "hipErrorNotFound", value: 500, isUnsigned: true)
!80 = !DIEnumerator(name: "hipErrorNotReady", value: 600, isUnsigned: true)
!81 = !DIEnumerator(name: "hipErrorIllegalAddress", value: 700, isUnsigned: true)
!82 = !DIEnumerator(name: "hipErrorLaunchOutOfResources", value: 701, isUnsigned: true)
!83 = !DIEnumerator(name: "hipErrorLaunchTimeOut", value: 702, isUnsigned: true)
!84 = !DIEnumerator(name: "hipErrorPeerAccessAlreadyEnabled", value: 704, isUnsigned: true)
!85 = !DIEnumerator(name: "hipErrorPeerAccessNotEnabled", value: 705, isUnsigned: true)
!86 = !DIEnumerator(name: "hipErrorSetOnActiveProcess", value: 708, isUnsigned: true)
!87 = !DIEnumerator(name: "hipErrorContextIsDestroyed", value: 709, isUnsigned: true)
!88 = !DIEnumerator(name: "hipErrorAssert", value: 710, isUnsigned: true)
!89 = !DIEnumerator(name: "hipErrorHostMemoryAlreadyRegistered", value: 712, isUnsigned: true)
!90 = !DIEnumerator(name: "hipErrorHostMemoryNotRegistered", value: 713, isUnsigned: true)
!91 = !DIEnumerator(name: "hipErrorLaunchFailure", value: 719, isUnsigned: true)
!92 = !DIEnumerator(name: "hipErrorCooperativeLaunchTooLarge", value: 720, isUnsigned: true)
!93 = !DIEnumerator(name: "hipErrorNotSupported", value: 801, isUnsigned: true)
!94 = !DIEnumerator(name: "hipErrorStreamCaptureUnsupported", value: 900, isUnsigned: true)
!95 = !DIEnumerator(name: "hipErrorStreamCaptureInvalidated", value: 901, isUnsigned: true)
!96 = !DIEnumerator(name: "hipErrorStreamCaptureMerge", value: 902, isUnsigned: true)
!97 = !DIEnumerator(name: "hipErrorStreamCaptureUnmatched", value: 903, isUnsigned: true)
!98 = !DIEnumerator(name: "hipErrorStreamCaptureUnjoined", value: 904, isUnsigned: true)
!99 = !DIEnumerator(name: "hipErrorStreamCaptureIsolation", value: 905, isUnsigned: true)
!100 = !DIEnumerator(name: "hipErrorStreamCaptureImplicit", value: 906, isUnsigned: true)
!101 = !DIEnumerator(name: "hipErrorCapturedEvent", value: 907, isUnsigned: true)
!102 = !DIEnumerator(name: "hipErrorStreamCaptureWrongThread", value: 908, isUnsigned: true)
!103 = !DIEnumerator(name: "hipErrorGraphExecUpdateFailure", value: 910, isUnsigned: true)
!104 = !DIEnumerator(name: "hipErrorUnknown", value: 999, isUnsigned: true)
!105 = !DIEnumerator(name: "hipErrorRuntimeMemory", value: 1052, isUnsigned: true)
!106 = !DIEnumerator(name: "hipErrorRuntimeOther", value: 1053, isUnsigned: true)
!107 = !DIEnumerator(name: "hipErrorTbd", value: 1054, isUnsigned: true)
!108 = !{!109, !111, !113}
!109 = !DIDerivedType(tag: DW_TAG_pointer_type, baseType: !110, size: 64)
!110 = !DIBasicType(name: "double", size: 64, encoding: DW_ATE_float)
!111 = !DIDerivedType(tag: DW_TAG_pointer_type, baseType: !112, size: 64)
!112 = !DIDerivedType(tag: DW_TAG_pointer_type, baseType: null, size: 64)
!113 = distinct !DICompositeType(tag: DW_TAG_structure_type, name: "dim3", file: !28, line: 934, size: 96, flags: DIFlagTypePassByValue | DIFlagNonTrivial, elements: !114, identifier: "_ZTS4dim3")
!114 = !{!115, !120, !121, !122}
!115 = !DIDerivedType(tag: DW_TAG_member, name: "x", scope: !113, file: !28, line: 935, baseType: !116, size: 32)
!116 = !DIDerivedType(tag: DW_TAG_typedef, name: "uint32_t", file: !117, line: 26, baseType: !118)
!117 = !DIFile(filename: "/usr/include/x86_64-linux-gnu/bits/stdint-uintn.h", directory: "")
!118 = !DIDerivedType(tag: DW_TAG_typedef, name: "__uint32_t", file: !119, line: 42, baseType: !14)
!119 = !DIFile(filename: "/usr/include/x86_64-linux-gnu/bits/types.h", directory: "")
!120 = !DIDerivedType(tag: DW_TAG_member, name: "y", scope: !113, file: !28, line: 936, baseType: !116, size: 32, offset: 32)
!121 = !DIDerivedType(tag: DW_TAG_member, name: "z", scope: !113, file: !28, line: 937, baseType: !116, size: 32, offset: 64)
!122 = !DISubprogram(name: "dim3", scope: !113, file: !28, line: 939, type: !123, scopeLine: 939, flags: DIFlagPrototyped, spFlags: DISPFlagOptimized)
!123 = !DISubroutineType(types: !124)
!124 = !{null, !125, !116, !116, !116}
!125 = !DIDerivedType(tag: DW_TAG_pointer_type, baseType: !113, size: 64, flags: DIFlagArtificial | DIFlagObjectPointer)
!126 = !{!0}
!127 = !{!128, !136, !142, !144, !146, !150, !152, !154, !156, !158, !160, !162, !164, !169, !173, !175, !177, !181, !183, !185, !187, !189, !191, !193, !196, !199, !201, !205, !210, !212, !214, !216, !218, !220, !222, !224, !226, !228, !230, !234, !238, !240, !242, !244, !246, !248, !250, !252, !254, !256, !258, !260, !262, !264, !266, !268, !272, !276, !280, !282, !284, !286, !288, !290, !292, !294, !296, !298, !302, !306, !310, !312, !314, !316, !321, !325, !329, !331, !333, !335, !337, !339, !341, !343, !345, !347, !349, !351, !353, !358, !362, !366, !368, !370, !372, !377, !381, !385, !387, !389, !391, !393, !395, !397, !401, !405, !407, !409, !411, !413, !417, !421, !425, !427, !429, !431, !433, !435, !437, !441, !445, !449, !451, !455, !459, !461, !463, !465, !467, !469, !471, !475, !481, !485, !490, !492, !495, !499, !503, !517, !521, !525, !529, !533, !538, !542, !546, !550, !554, !562, !566, !570, !572, !576, !580, !584, !590, !594, !598, !600, !608, !612, !618, !620, !624, !628, !632, !636, !641, !645, !649, !650, !651, !652, !654, !655, !656, !657, !658, !659, !660, !662, !663, !664, !665, !666, !667, !668, !670, !671, !672, !673, !674, !675, !676, !677, !678, !679, !680, !681, !682, !683, !684, !685, !686, !687, !688, !689, !690, !691, !692, !693, !694, !698, !702, !706, !709, !711, !713, !715, !717, !719, !721, !723, !725, !727, !729, !731, !733, !735, !737, !739, !741, !743, !745, !747, !749, !751, !753, !755, !757, !759, !763, !765, !767, !772, !776, !778, !780, !782, !784, !786, !788, !790, !792, !794, !796, !798, !800, !802, !804, !806, !808, !810, !812, !814, !816, !818, !823, !825, !827, !829, !831, !833, !835, !837, !839, !841, !843, !845, !847, !849, !851, !853, !855, !857, !859, !861, !865, !867, !869, !871, !873, !875, !877, !879, !881, !883, !885, !887, !889, !891, !893, !895, !897, !899, !901, !903, !905, !907, !909, !911, !913, !915, !917, !919, !921, !923, !925, !927, !929, !931, !933, !935, !937, !939, !941, !943, !945, !947, !949, !951, !953, !955, !957, !959, !961, !963, !965, !967, !969, !971, !973, !990, !993, !998, !1056, !1061, !1065, !1069, !1073, !1077, !1079, !1081, !1085, !1091, !1095, !1101, !1107, !1109, !1113, !1117, !1121, !1125, !1136, !1138, !1142, !1146, !1150, !1152, !1156, !1160, !1164, !1166, !1168, !1172, !1180, !1184, !1188, !1192, !1194, !1200, !1202, !1208, !1212, !1216, !1220, !1224, !1228, !1232, !1234, !1236, !1240, !1244, !1248, !1250, !1254, !1258, !1260, !1262, !1266, !1270, !1274, !1278, !1279, !1280, !1281, !1282, !1283, !1284, !1285, !1286, !1287, !1288, !1293, !1297, !1300, !1303, !1306, !1308, !1310, !1312, !1315, !1318, !1321, !1324, !1327, !1329, !1333, !1336, !1337, !1340, !1342, !1344, !1346, !1348, !1351, !1354, !1357, !1360, !1363, !1365, !1369, !1371, !1375, !1379, !1384, !1388, !1390, !1392, !1394, !1396, !1398, !1400, !1402, !1404, !1406, !1408, !1410, !1412, !1414, !1418, !1424, !1429, !1433, !1435, !1437, !1439, !1441, !1448, !1452, !1456, !1460, !1464, !1468, !1473, !1477, !1479, !1483, !1489, !1493, !1498, !1500, !1503, !1507, !1511, !1515, !1517, !1519, !1521, !1523, !1527, !1529, !1531, !1535, !1539, !1543, !1547, !1551, !1553, !1555, !1559, !1563, !1567, !1571, !1573, !1575, !1579, !1583, !1584, !1585, !1586, !1587, !1588, !1594, !1597, !1598, !1600, !1602, !1604, !1606, !1610, !1612, !1614, !1616, !1618, !1620, !1622, !1624, !1626, !1630, !1634, !1636, !1640, !1644, !1649, !1653, !1654, !1659, !1663, !1668, !1673, !1677, !1683, !1687, !1689, !1693, !1695, !1698, !1701, !1702}
!128 = !DIImportedEntity(tag: DW_TAG_imported_declaration, scope: !129, entity: !130, file: !135, line: 52)
!129 = !DINamespace(name: "std", scope: null)
!130 = !DISubprogram(name: "abs", scope: !131, file: !131, line: 840, type: !132, flags: DIFlagPrototyped, spFlags: DISPFlagOptimized)
!131 = !DIFile(filename: "/usr/include/stdlib.h", directory: "")
!132 = !DISubroutineType(types: !133)
!133 = !{!134, !134}
!134 = !DIBasicType(name: "int", size: 32, encoding: DW_ATE_signed)
!135 = !DIFile(filename: "/usr/lib/gcc/x86_64-linux-gnu/9/../../../../include/c++/9/bits/std_abs.h", directory: "")
!136 = !DIImportedEntity(tag: DW_TAG_imported_declaration, scope: !129, entity: !137, file: !141, line: 83)
!137 = !DISubprogram(name: "acos", scope: !138, file: !138, line: 53, type: !139, flags: DIFlagPrototyped, spFlags: DISPFlagOptimized)
!138 = !DIFile(filename: "/usr/include/x86_64-linux-gnu/bits/mathcalls.h", directory: "")
!139 = !DISubroutineType(types: !140)
!140 = !{!110, !110}
!141 = !DIFile(filename: "/usr/lib/gcc/x86_64-linux-gnu/9/../../../../include/c++/9/cmath", directory: "")
!142 = !DIImportedEntity(tag: DW_TAG_imported_declaration, scope: !129, entity: !143, file: !141, line: 102)
!143 = !DISubprogram(name: "asin", scope: !138, file: !138, line: 55, type: !139, flags: DIFlagPrototyped, spFlags: DISPFlagOptimized)
!144 = !DIImportedEntity(tag: DW_TAG_imported_declaration, scope: !129, entity: !145, file: !141, line: 121)
!145 = !DISubprogram(name: "atan", scope: !138, file: !138, line: 57, type: !139, flags: DIFlagPrototyped, spFlags: DISPFlagOptimized)
!146 = !DIImportedEntity(tag: DW_TAG_imported_declaration, scope: !129, entity: !147, file: !141, line: 140)
!147 = !DISubprogram(name: "atan2", scope: !138, file: !138, line: 59, type: !148, flags: DIFlagPrototyped, spFlags: DISPFlagOptimized)
!148 = !DISubroutineType(types: !149)
!149 = !{!110, !110, !110}
!150 = !DIImportedEntity(tag: DW_TAG_imported_declaration, scope: !129, entity: !151, file: !141, line: 161)
!151 = !DISubprogram(name: "ceil", scope: !138, file: !138, line: 159, type: !139, flags: DIFlagPrototyped, spFlags: DISPFlagOptimized)
!152 = !DIImportedEntity(tag: DW_TAG_imported_declaration, scope: !129, entity: !153, file: !141, line: 180)
!153 = !DISubprogram(name: "cos", scope: !138, file: !138, line: 62, type: !139, flags: DIFlagPrototyped, spFlags: DISPFlagOptimized)
!154 = !DIImportedEntity(tag: DW_TAG_imported_declaration, scope: !129, entity: !155, file: !141, line: 199)
!155 = !DISubprogram(name: "cosh", scope: !138, file: !138, line: 71, type: !139, flags: DIFlagPrototyped, spFlags: DISPFlagOptimized)
!156 = !DIImportedEntity(tag: DW_TAG_imported_declaration, scope: !129, entity: !157, file: !141, line: 218)
!157 = !DISubprogram(name: "exp", scope: !138, file: !138, line: 95, type: !139, flags: DIFlagPrototyped, spFlags: DISPFlagOptimized)
!158 = !DIImportedEntity(tag: DW_TAG_imported_declaration, scope: !129, entity: !159, file: !141, line: 237)
!159 = !DISubprogram(name: "fabs", scope: !138, file: !138, line: 162, type: !139, flags: DIFlagPrototyped, spFlags: DISPFlagOptimized)
!160 = !DIImportedEntity(tag: DW_TAG_imported_declaration, scope: !129, entity: !161, file: !141, line: 256)
!161 = !DISubprogram(name: "floor", scope: !138, file: !138, line: 165, type: !139, flags: DIFlagPrototyped, spFlags: DISPFlagOptimized)
!162 = !DIImportedEntity(tag: DW_TAG_imported_declaration, scope: !129, entity: !163, file: !141, line: 275)
!163 = !DISubprogram(name: "fmod", scope: !138, file: !138, line: 168, type: !148, flags: DIFlagPrototyped, spFlags: DISPFlagOptimized)
!164 = !DIImportedEntity(tag: DW_TAG_imported_declaration, scope: !129, entity: !165, file: !141, line: 296)
!165 = !DISubprogram(name: "frexp", scope: !138, file: !138, line: 98, type: !166, flags: DIFlagPrototyped, spFlags: DISPFlagOptimized)
!166 = !DISubroutineType(types: !167)
!167 = !{!110, !110, !168}
!168 = !DIDerivedType(tag: DW_TAG_pointer_type, baseType: !134, size: 64)
!169 = !DIImportedEntity(tag: DW_TAG_imported_declaration, scope: !129, entity: !170, file: !141, line: 315)
!170 = !DISubprogram(name: "ldexp", scope: !138, file: !138, line: 101, type: !171, flags: DIFlagPrototyped, spFlags: DISPFlagOptimized)
!171 = !DISubroutineType(types: !172)
!172 = !{!110, !110, !134}
!173 = !DIImportedEntity(tag: DW_TAG_imported_declaration, scope: !129, entity: !174, file: !141, line: 334)
!174 = !DISubprogram(name: "log", scope: !138, file: !138, line: 104, type: !139, flags: DIFlagPrototyped, spFlags: DISPFlagOptimized)
!175 = !DIImportedEntity(tag: DW_TAG_imported_declaration, scope: !129, entity: !176, file: !141, line: 353)
!176 = !DISubprogram(name: "log10", scope: !138, file: !138, line: 107, type: !139, flags: DIFlagPrototyped, spFlags: DISPFlagOptimized)
!177 = !DIImportedEntity(tag: DW_TAG_imported_declaration, scope: !129, entity: !178, file: !141, line: 372)
!178 = !DISubprogram(name: "modf", scope: !138, file: !138, line: 110, type: !179, flags: DIFlagPrototyped, spFlags: DISPFlagOptimized)
!179 = !DISubroutineType(types: !180)
!180 = !{!110, !110, !109}
!181 = !DIImportedEntity(tag: DW_TAG_imported_declaration, scope: !129, entity: !182, file: !141, line: 384)
!182 = !DISubprogram(name: "pow", scope: !138, file: !138, line: 140, type: !148, flags: DIFlagPrototyped, spFlags: DISPFlagOptimized)
!183 = !DIImportedEntity(tag: DW_TAG_imported_declaration, scope: !129, entity: !184, file: !141, line: 421)
!184 = !DISubprogram(name: "sin", scope: !138, file: !138, line: 64, type: !139, flags: DIFlagPrototyped, spFlags: DISPFlagOptimized)
!185 = !DIImportedEntity(tag: DW_TAG_imported_declaration, scope: !129, entity: !186, file: !141, line: 440)
!186 = !DISubprogram(name: "sinh", scope: !138, file: !138, line: 73, type: !139, flags: DIFlagPrototyped, spFlags: DISPFlagOptimized)
!187 = !DIImportedEntity(tag: DW_TAG_imported_declaration, scope: !129, entity: !188, file: !141, line: 459)
!188 = !DISubprogram(name: "sqrt", scope: !138, file: !138, line: 143, type: !139, flags: DIFlagPrototyped, spFlags: DISPFlagOptimized)
!189 = !DIImportedEntity(tag: DW_TAG_imported_declaration, scope: !129, entity: !190, file: !141, line: 478)
!190 = !DISubprogram(name: "tan", scope: !138, file: !138, line: 66, type: !139, flags: DIFlagPrototyped, spFlags: DISPFlagOptimized)
!191 = !DIImportedEntity(tag: DW_TAG_imported_declaration, scope: !129, entity: !192, file: !141, line: 497)
!192 = !DISubprogram(name: "tanh", scope: !138, file: !138, line: 75, type: !139, flags: DIFlagPrototyped, spFlags: DISPFlagOptimized)
!193 = !DIImportedEntity(tag: DW_TAG_imported_declaration, scope: !129, entity: !194, file: !141, line: 1065)
!194 = !DIDerivedType(tag: DW_TAG_typedef, name: "double_t", file: !195, line: 150, baseType: !110)
!195 = !DIFile(filename: "/usr/include/math.h", directory: "")
!196 = !DIImportedEntity(tag: DW_TAG_imported_declaration, scope: !129, entity: !197, file: !141, line: 1066)
!197 = !DIDerivedType(tag: DW_TAG_typedef, name: "float_t", file: !195, line: 149, baseType: !198)
!198 = !DIBasicType(name: "float", size: 32, encoding: DW_ATE_float)
!199 = !DIImportedEntity(tag: DW_TAG_imported_declaration, scope: !129, entity: !200, file: !141, line: 1069)
!200 = !DISubprogram(name: "acosh", scope: !138, file: !138, line: 85, type: !139, flags: DIFlagPrototyped, spFlags: DISPFlagOptimized)
!201 = !DIImportedEntity(tag: DW_TAG_imported_declaration, scope: !129, entity: !202, file: !141, line: 1070)
!202 = !DISubprogram(name: "acoshf", scope: !138, file: !138, line: 85, type: !203, flags: DIFlagPrototyped, spFlags: DISPFlagOptimized)
!203 = !DISubroutineType(types: !204)
!204 = !{!198, !198}
!205 = !DIImportedEntity(tag: DW_TAG_imported_declaration, scope: !129, entity: !206, file: !141, line: 1071)
!206 = !DISubprogram(name: "acoshl", scope: !138, file: !138, line: 85, type: !207, flags: DIFlagPrototyped, spFlags: DISPFlagOptimized)
!207 = !DISubroutineType(types: !208)
!208 = !{!209, !209}
!209 = !DIBasicType(name: "long double", size: 128, encoding: DW_ATE_float)
!210 = !DIImportedEntity(tag: DW_TAG_imported_declaration, scope: !129, entity: !211, file: !141, line: 1073)
!211 = !DISubprogram(name: "asinh", scope: !138, file: !138, line: 87, type: !139, flags: DIFlagPrototyped, spFlags: DISPFlagOptimized)
!212 = !DIImportedEntity(tag: DW_TAG_imported_declaration, scope: !129, entity: !213, file: !141, line: 1074)
!213 = !DISubprogram(name: "asinhf", scope: !138, file: !138, line: 87, type: !203, flags: DIFlagPrototyped, spFlags: DISPFlagOptimized)
!214 = !DIImportedEntity(tag: DW_TAG_imported_declaration, scope: !129, entity: !215, file: !141, line: 1075)
!215 = !DISubprogram(name: "asinhl", scope: !138, file: !138, line: 87, type: !207, flags: DIFlagPrototyped, spFlags: DISPFlagOptimized)
!216 = !DIImportedEntity(tag: DW_TAG_imported_declaration, scope: !129, entity: !217, file: !141, line: 1077)
!217 = !DISubprogram(name: "atanh", scope: !138, file: !138, line: 89, type: !139, flags: DIFlagPrototyped, spFlags: DISPFlagOptimized)
!218 = !DIImportedEntity(tag: DW_TAG_imported_declaration, scope: !129, entity: !219, file: !141, line: 1078)
!219 = !DISubprogram(name: "atanhf", scope: !138, file: !138, line: 89, type: !203, flags: DIFlagPrototyped, spFlags: DISPFlagOptimized)
!220 = !DIImportedEntity(tag: DW_TAG_imported_declaration, scope: !129, entity: !221, file: !141, line: 1079)
!221 = !DISubprogram(name: "atanhl", scope: !138, file: !138, line: 89, type: !207, flags: DIFlagPrototyped, spFlags: DISPFlagOptimized)
!222 = !DIImportedEntity(tag: DW_TAG_imported_declaration, scope: !129, entity: !223, file: !141, line: 1081)
!223 = !DISubprogram(name: "cbrt", scope: !138, file: !138, line: 152, type: !139, flags: DIFlagPrototyped, spFlags: DISPFlagOptimized)
!224 = !DIImportedEntity(tag: DW_TAG_imported_declaration, scope: !129, entity: !225, file: !141, line: 1082)
!225 = !DISubprogram(name: "cbrtf", scope: !138, file: !138, line: 152, type: !203, flags: DIFlagPrototyped, spFlags: DISPFlagOptimized)
!226 = !DIImportedEntity(tag: DW_TAG_imported_declaration, scope: !129, entity: !227, file: !141, line: 1083)
!227 = !DISubprogram(name: "cbrtl", scope: !138, file: !138, line: 152, type: !207, flags: DIFlagPrototyped, spFlags: DISPFlagOptimized)
!228 = !DIImportedEntity(tag: DW_TAG_imported_declaration, scope: !129, entity: !229, file: !141, line: 1085)
!229 = !DISubprogram(name: "copysign", scope: !138, file: !138, line: 196, type: !148, flags: DIFlagPrototyped, spFlags: DISPFlagOptimized)
!230 = !DIImportedEntity(tag: DW_TAG_imported_declaration, scope: !129, entity: !231, file: !141, line: 1086)
!231 = !DISubprogram(name: "copysignf", scope: !138, file: !138, line: 196, type: !232, flags: DIFlagPrototyped, spFlags: DISPFlagOptimized)
!232 = !DISubroutineType(types: !233)
!233 = !{!198, !198, !198}
!234 = !DIImportedEntity(tag: DW_TAG_imported_declaration, scope: !129, entity: !235, file: !141, line: 1087)
!235 = !DISubprogram(name: "copysignl", scope: !138, file: !138, line: 196, type: !236, flags: DIFlagPrototyped, spFlags: DISPFlagOptimized)
!236 = !DISubroutineType(types: !237)
!237 = !{!209, !209, !209}
!238 = !DIImportedEntity(tag: DW_TAG_imported_declaration, scope: !129, entity: !239, file: !141, line: 1089)
!239 = !DISubprogram(name: "erf", scope: !138, file: !138, line: 228, type: !139, flags: DIFlagPrototyped, spFlags: DISPFlagOptimized)
!240 = !DIImportedEntity(tag: DW_TAG_imported_declaration, scope: !129, entity: !241, file: !141, line: 1090)
!241 = !DISubprogram(name: "erff", scope: !138, file: !138, line: 228, type: !203, flags: DIFlagPrototyped, spFlags: DISPFlagOptimized)
!242 = !DIImportedEntity(tag: DW_TAG_imported_declaration, scope: !129, entity: !243, file: !141, line: 1091)
!243 = !DISubprogram(name: "erfl", scope: !138, file: !138, line: 228, type: !207, flags: DIFlagPrototyped, spFlags: DISPFlagOptimized)
!244 = !DIImportedEntity(tag: DW_TAG_imported_declaration, scope: !129, entity: !245, file: !141, line: 1093)
!245 = !DISubprogram(name: "erfc", scope: !138, file: !138, line: 229, type: !139, flags: DIFlagPrototyped, spFlags: DISPFlagOptimized)
!246 = !DIImportedEntity(tag: DW_TAG_imported_declaration, scope: !129, entity: !247, file: !141, line: 1094)
!247 = !DISubprogram(name: "erfcf", scope: !138, file: !138, line: 229, type: !203, flags: DIFlagPrototyped, spFlags: DISPFlagOptimized)
!248 = !DIImportedEntity(tag: DW_TAG_imported_declaration, scope: !129, entity: !249, file: !141, line: 1095)
!249 = !DISubprogram(name: "erfcl", scope: !138, file: !138, line: 229, type: !207, flags: DIFlagPrototyped, spFlags: DISPFlagOptimized)
!250 = !DIImportedEntity(tag: DW_TAG_imported_declaration, scope: !129, entity: !251, file: !141, line: 1097)
!251 = !DISubprogram(name: "exp2", scope: !138, file: !138, line: 130, type: !139, flags: DIFlagPrototyped, spFlags: DISPFlagOptimized)
!252 = !DIImportedEntity(tag: DW_TAG_imported_declaration, scope: !129, entity: !253, file: !141, line: 1098)
!253 = !DISubprogram(name: "exp2f", scope: !138, file: !138, line: 130, type: !203, flags: DIFlagPrototyped, spFlags: DISPFlagOptimized)
!254 = !DIImportedEntity(tag: DW_TAG_imported_declaration, scope: !129, entity: !255, file: !141, line: 1099)
!255 = !DISubprogram(name: "exp2l", scope: !138, file: !138, line: 130, type: !207, flags: DIFlagPrototyped, spFlags: DISPFlagOptimized)
!256 = !DIImportedEntity(tag: DW_TAG_imported_declaration, scope: !129, entity: !257, file: !141, line: 1101)
!257 = !DISubprogram(name: "expm1", scope: !138, file: !138, line: 119, type: !139, flags: DIFlagPrototyped, spFlags: DISPFlagOptimized)
!258 = !DIImportedEntity(tag: DW_TAG_imported_declaration, scope: !129, entity: !259, file: !141, line: 1102)
!259 = !DISubprogram(name: "expm1f", scope: !138, file: !138, line: 119, type: !203, flags: DIFlagPrototyped, spFlags: DISPFlagOptimized)
!260 = !DIImportedEntity(tag: DW_TAG_imported_declaration, scope: !129, entity: !261, file: !141, line: 1103)
!261 = !DISubprogram(name: "expm1l", scope: !138, file: !138, line: 119, type: !207, flags: DIFlagPrototyped, spFlags: DISPFlagOptimized)
!262 = !DIImportedEntity(tag: DW_TAG_imported_declaration, scope: !129, entity: !263, file: !141, line: 1105)
!263 = !DISubprogram(name: "fdim", scope: !138, file: !138, line: 326, type: !148, flags: DIFlagPrototyped, spFlags: DISPFlagOptimized)
!264 = !DIImportedEntity(tag: DW_TAG_imported_declaration, scope: !129, entity: !265, file: !141, line: 1106)
!265 = !DISubprogram(name: "fdimf", scope: !138, file: !138, line: 326, type: !232, flags: DIFlagPrototyped, spFlags: DISPFlagOptimized)
!266 = !DIImportedEntity(tag: DW_TAG_imported_declaration, scope: !129, entity: !267, file: !141, line: 1107)
!267 = !DISubprogram(name: "fdiml", scope: !138, file: !138, line: 326, type: !236, flags: DIFlagPrototyped, spFlags: DISPFlagOptimized)
!268 = !DIImportedEntity(tag: DW_TAG_imported_declaration, scope: !129, entity: !269, file: !141, line: 1109)
!269 = !DISubprogram(name: "fma", scope: !138, file: !138, line: 335, type: !270, flags: DIFlagPrototyped, spFlags: DISPFlagOptimized)
!270 = !DISubroutineType(types: !271)
!271 = !{!110, !110, !110, !110}
!272 = !DIImportedEntity(tag: DW_TAG_imported_declaration, scope: !129, entity: !273, file: !141, line: 1110)
!273 = !DISubprogram(name: "fmaf", scope: !138, file: !138, line: 335, type: !274, flags: DIFlagPrototyped, spFlags: DISPFlagOptimized)
!274 = !DISubroutineType(types: !275)
!275 = !{!198, !198, !198, !198}
!276 = !DIImportedEntity(tag: DW_TAG_imported_declaration, scope: !129, entity: !277, file: !141, line: 1111)
!277 = !DISubprogram(name: "fmal", scope: !138, file: !138, line: 335, type: !278, flags: DIFlagPrototyped, spFlags: DISPFlagOptimized)
!278 = !DISubroutineType(types: !279)
!279 = !{!209, !209, !209, !209}
!280 = !DIImportedEntity(tag: DW_TAG_imported_declaration, scope: !129, entity: !281, file: !141, line: 1113)
!281 = !DISubprogram(name: "fmax", scope: !138, file: !138, line: 329, type: !148, flags: DIFlagPrototyped, spFlags: DISPFlagOptimized)
!282 = !DIImportedEntity(tag: DW_TAG_imported_declaration, scope: !129, entity: !283, file: !141, line: 1114)
!283 = !DISubprogram(name: "fmaxf", scope: !138, file: !138, line: 329, type: !232, flags: DIFlagPrototyped, spFlags: DISPFlagOptimized)
!284 = !DIImportedEntity(tag: DW_TAG_imported_declaration, scope: !129, entity: !285, file: !141, line: 1115)
!285 = !DISubprogram(name: "fmaxl", scope: !138, file: !138, line: 329, type: !236, flags: DIFlagPrototyped, spFlags: DISPFlagOptimized)
!286 = !DIImportedEntity(tag: DW_TAG_imported_declaration, scope: !129, entity: !287, file: !141, line: 1117)
!287 = !DISubprogram(name: "fmin", scope: !138, file: !138, line: 332, type: !148, flags: DIFlagPrototyped, spFlags: DISPFlagOptimized)
!288 = !DIImportedEntity(tag: DW_TAG_imported_declaration, scope: !129, entity: !289, file: !141, line: 1118)
!289 = !DISubprogram(name: "fminf", scope: !138, file: !138, line: 332, type: !232, flags: DIFlagPrototyped, spFlags: DISPFlagOptimized)
!290 = !DIImportedEntity(tag: DW_TAG_imported_declaration, scope: !129, entity: !291, file: !141, line: 1119)
!291 = !DISubprogram(name: "fminl", scope: !138, file: !138, line: 332, type: !236, flags: DIFlagPrototyped, spFlags: DISPFlagOptimized)
!292 = !DIImportedEntity(tag: DW_TAG_imported_declaration, scope: !129, entity: !293, file: !141, line: 1121)
!293 = !DISubprogram(name: "hypot", scope: !138, file: !138, line: 147, type: !148, flags: DIFlagPrototyped, spFlags: DISPFlagOptimized)
!294 = !DIImportedEntity(tag: DW_TAG_imported_declaration, scope: !129, entity: !295, file: !141, line: 1122)
!295 = !DISubprogram(name: "hypotf", scope: !138, file: !138, line: 147, type: !232, flags: DIFlagPrototyped, spFlags: DISPFlagOptimized)
!296 = !DIImportedEntity(tag: DW_TAG_imported_declaration, scope: !129, entity: !297, file: !141, line: 1123)
!297 = !DISubprogram(name: "hypotl", scope: !138, file: !138, line: 147, type: !236, flags: DIFlagPrototyped, spFlags: DISPFlagOptimized)
!298 = !DIImportedEntity(tag: DW_TAG_imported_declaration, scope: !129, entity: !299, file: !141, line: 1125)
!299 = !DISubprogram(name: "ilogb", scope: !138, file: !138, line: 280, type: !300, flags: DIFlagPrototyped, spFlags: DISPFlagOptimized)
!300 = !DISubroutineType(types: !301)
!301 = !{!134, !110}
!302 = !DIImportedEntity(tag: DW_TAG_imported_declaration, scope: !129, entity: !303, file: !141, line: 1126)
!303 = !DISubprogram(name: "ilogbf", scope: !138, file: !138, line: 280, type: !304, flags: DIFlagPrototyped, spFlags: DISPFlagOptimized)
!304 = !DISubroutineType(types: !305)
!305 = !{!134, !198}
!306 = !DIImportedEntity(tag: DW_TAG_imported_declaration, scope: !129, entity: !307, file: !141, line: 1127)
!307 = !DISubprogram(name: "ilogbl", scope: !138, file: !138, line: 280, type: !308, flags: DIFlagPrototyped, spFlags: DISPFlagOptimized)
!308 = !DISubroutineType(types: !309)
!309 = !{!134, !209}
!310 = !DIImportedEntity(tag: DW_TAG_imported_declaration, scope: !129, entity: !311, file: !141, line: 1129)
!311 = !DISubprogram(name: "lgamma", scope: !138, file: !138, line: 230, type: !139, flags: DIFlagPrototyped, spFlags: DISPFlagOptimized)
!312 = !DIImportedEntity(tag: DW_TAG_imported_declaration, scope: !129, entity: !313, file: !141, line: 1130)
!313 = !DISubprogram(name: "lgammaf", scope: !138, file: !138, line: 230, type: !203, flags: DIFlagPrototyped, spFlags: DISPFlagOptimized)
!314 = !DIImportedEntity(tag: DW_TAG_imported_declaration, scope: !129, entity: !315, file: !141, line: 1131)
!315 = !DISubprogram(name: "lgammal", scope: !138, file: !138, line: 230, type: !207, flags: DIFlagPrototyped, spFlags: DISPFlagOptimized)
!316 = !DIImportedEntity(tag: DW_TAG_imported_declaration, scope: !129, entity: !317, file: !141, line: 1134)
!317 = !DISubprogram(name: "llrint", scope: !138, file: !138, line: 316, type: !318, flags: DIFlagPrototyped, spFlags: DISPFlagOptimized)
!318 = !DISubroutineType(types: !319)
!319 = !{!320, !110}
!320 = !DIBasicType(name: "long long", size: 64, encoding: DW_ATE_signed)
!321 = !DIImportedEntity(tag: DW_TAG_imported_declaration, scope: !129, entity: !322, file: !141, line: 1135)
!322 = !DISubprogram(name: "llrintf", scope: !138, file: !138, line: 316, type: !323, flags: DIFlagPrototyped, spFlags: DISPFlagOptimized)
!323 = !DISubroutineType(types: !324)
!324 = !{!320, !198}
!325 = !DIImportedEntity(tag: DW_TAG_imported_declaration, scope: !129, entity: !326, file: !141, line: 1136)
!326 = !DISubprogram(name: "llrintl", scope: !138, file: !138, line: 316, type: !327, flags: DIFlagPrototyped, spFlags: DISPFlagOptimized)
!327 = !DISubroutineType(types: !328)
!328 = !{!320, !209}
!329 = !DIImportedEntity(tag: DW_TAG_imported_declaration, scope: !129, entity: !330, file: !141, line: 1138)
!330 = !DISubprogram(name: "llround", scope: !138, file: !138, line: 322, type: !318, flags: DIFlagPrototyped, spFlags: DISPFlagOptimized)
!331 = !DIImportedEntity(tag: DW_TAG_imported_declaration, scope: !129, entity: !332, file: !141, line: 1139)
!332 = !DISubprogram(name: "llroundf", scope: !138, file: !138, line: 322, type: !323, flags: DIFlagPrototyped, spFlags: DISPFlagOptimized)
!333 = !DIImportedEntity(tag: DW_TAG_imported_declaration, scope: !129, entity: !334, file: !141, line: 1140)
!334 = !DISubprogram(name: "llroundl", scope: !138, file: !138, line: 322, type: !327, flags: DIFlagPrototyped, spFlags: DISPFlagOptimized)
!335 = !DIImportedEntity(tag: DW_TAG_imported_declaration, scope: !129, entity: !336, file: !141, line: 1143)
!336 = !DISubprogram(name: "log1p", scope: !138, file: !138, line: 122, type: !139, flags: DIFlagPrototyped, spFlags: DISPFlagOptimized)
!337 = !DIImportedEntity(tag: DW_TAG_imported_declaration, scope: !129, entity: !338, file: !141, line: 1144)
!338 = !DISubprogram(name: "log1pf", scope: !138, file: !138, line: 122, type: !203, flags: DIFlagPrototyped, spFlags: DISPFlagOptimized)
!339 = !DIImportedEntity(tag: DW_TAG_imported_declaration, scope: !129, entity: !340, file: !141, line: 1145)
!340 = !DISubprogram(name: "log1pl", scope: !138, file: !138, line: 122, type: !207, flags: DIFlagPrototyped, spFlags: DISPFlagOptimized)
!341 = !DIImportedEntity(tag: DW_TAG_imported_declaration, scope: !129, entity: !342, file: !141, line: 1147)
!342 = !DISubprogram(name: "log2", scope: !138, file: !138, line: 133, type: !139, flags: DIFlagPrototyped, spFlags: DISPFlagOptimized)
!343 = !DIImportedEntity(tag: DW_TAG_imported_declaration, scope: !129, entity: !344, file: !141, line: 1148)
!344 = !DISubprogram(name: "log2f", scope: !138, file: !138, line: 133, type: !203, flags: DIFlagPrototyped, spFlags: DISPFlagOptimized)
!345 = !DIImportedEntity(tag: DW_TAG_imported_declaration, scope: !129, entity: !346, file: !141, line: 1149)
!346 = !DISubprogram(name: "log2l", scope: !138, file: !138, line: 133, type: !207, flags: DIFlagPrototyped, spFlags: DISPFlagOptimized)
!347 = !DIImportedEntity(tag: DW_TAG_imported_declaration, scope: !129, entity: !348, file: !141, line: 1151)
!348 = !DISubprogram(name: "logb", scope: !138, file: !138, line: 125, type: !139, flags: DIFlagPrototyped, spFlags: DISPFlagOptimized)
!349 = !DIImportedEntity(tag: DW_TAG_imported_declaration, scope: !129, entity: !350, file: !141, line: 1152)
!350 = !DISubprogram(name: "logbf", scope: !138, file: !138, line: 125, type: !203, flags: DIFlagPrototyped, spFlags: DISPFlagOptimized)
!351 = !DIImportedEntity(tag: DW_TAG_imported_declaration, scope: !129, entity: !352, file: !141, line: 1153)
!352 = !DISubprogram(name: "logbl", scope: !138, file: !138, line: 125, type: !207, flags: DIFlagPrototyped, spFlags: DISPFlagOptimized)
!353 = !DIImportedEntity(tag: DW_TAG_imported_declaration, scope: !129, entity: !354, file: !141, line: 1155)
!354 = !DISubprogram(name: "lrint", scope: !138, file: !138, line: 314, type: !355, flags: DIFlagPrototyped, spFlags: DISPFlagOptimized)
!355 = !DISubroutineType(types: !356)
!356 = !{!357, !110}
!357 = !DIBasicType(name: "long", size: 64, encoding: DW_ATE_signed)
!358 = !DIImportedEntity(tag: DW_TAG_imported_declaration, scope: !129, entity: !359, file: !141, line: 1156)
!359 = !DISubprogram(name: "lrintf", scope: !138, file: !138, line: 314, type: !360, flags: DIFlagPrototyped, spFlags: DISPFlagOptimized)
!360 = !DISubroutineType(types: !361)
!361 = !{!357, !198}
!362 = !DIImportedEntity(tag: DW_TAG_imported_declaration, scope: !129, entity: !363, file: !141, line: 1157)
!363 = !DISubprogram(name: "lrintl", scope: !138, file: !138, line: 314, type: !364, flags: DIFlagPrototyped, spFlags: DISPFlagOptimized)
!364 = !DISubroutineType(types: !365)
!365 = !{!357, !209}
!366 = !DIImportedEntity(tag: DW_TAG_imported_declaration, scope: !129, entity: !367, file: !141, line: 1159)
!367 = !DISubprogram(name: "lround", scope: !138, file: !138, line: 320, type: !355, flags: DIFlagPrototyped, spFlags: DISPFlagOptimized)
!368 = !DIImportedEntity(tag: DW_TAG_imported_declaration, scope: !129, entity: !369, file: !141, line: 1160)
!369 = !DISubprogram(name: "lroundf", scope: !138, file: !138, line: 320, type: !360, flags: DIFlagPrototyped, spFlags: DISPFlagOptimized)
!370 = !DIImportedEntity(tag: DW_TAG_imported_declaration, scope: !129, entity: !371, file: !141, line: 1161)
!371 = !DISubprogram(name: "lroundl", scope: !138, file: !138, line: 320, type: !364, flags: DIFlagPrototyped, spFlags: DISPFlagOptimized)
!372 = !DIImportedEntity(tag: DW_TAG_imported_declaration, scope: !129, entity: !373, file: !141, line: 1163)
!373 = !DISubprogram(name: "nan", scope: !138, file: !138, line: 201, type: !374, flags: DIFlagPrototyped, spFlags: DISPFlagOptimized)
!374 = !DISubroutineType(types: !375)
!375 = !{!110, !376}
!376 = !DIDerivedType(tag: DW_TAG_pointer_type, baseType: !4, size: 64)
!377 = !DIImportedEntity(tag: DW_TAG_imported_declaration, scope: !129, entity: !378, file: !141, line: 1164)
!378 = !DISubprogram(name: "nanf", scope: !138, file: !138, line: 201, type: !379, flags: DIFlagPrototyped, spFlags: DISPFlagOptimized)
!379 = !DISubroutineType(types: !380)
!380 = !{!198, !376}
!381 = !DIImportedEntity(tag: DW_TAG_imported_declaration, scope: !129, entity: !382, file: !141, line: 1165)
!382 = !DISubprogram(name: "nanl", scope: !138, file: !138, line: 201, type: !383, flags: DIFlagPrototyped, spFlags: DISPFlagOptimized)
!383 = !DISubroutineType(types: !384)
!384 = !{!209, !376}
!385 = !DIImportedEntity(tag: DW_TAG_imported_declaration, scope: !129, entity: !386, file: !141, line: 1167)
!386 = !DISubprogram(name: "nearbyint", scope: !138, file: !138, line: 294, type: !139, flags: DIFlagPrototyped, spFlags: DISPFlagOptimized)
!387 = !DIImportedEntity(tag: DW_TAG_imported_declaration, scope: !129, entity: !388, file: !141, line: 1168)
!388 = !DISubprogram(name: "nearbyintf", scope: !138, file: !138, line: 294, type: !203, flags: DIFlagPrototyped, spFlags: DISPFlagOptimized)
!389 = !DIImportedEntity(tag: DW_TAG_imported_declaration, scope: !129, entity: !390, file: !141, line: 1169)
!390 = !DISubprogram(name: "nearbyintl", scope: !138, file: !138, line: 294, type: !207, flags: DIFlagPrototyped, spFlags: DISPFlagOptimized)
!391 = !DIImportedEntity(tag: DW_TAG_imported_declaration, scope: !129, entity: !392, file: !141, line: 1171)
!392 = !DISubprogram(name: "nextafter", scope: !138, file: !138, line: 259, type: !148, flags: DIFlagPrototyped, spFlags: DISPFlagOptimized)
!393 = !DIImportedEntity(tag: DW_TAG_imported_declaration, scope: !129, entity: !394, file: !141, line: 1172)
!394 = !DISubprogram(name: "nextafterf", scope: !138, file: !138, line: 259, type: !232, flags: DIFlagPrototyped, spFlags: DISPFlagOptimized)
!395 = !DIImportedEntity(tag: DW_TAG_imported_declaration, scope: !129, entity: !396, file: !141, line: 1173)
!396 = !DISubprogram(name: "nextafterl", scope: !138, file: !138, line: 259, type: !236, flags: DIFlagPrototyped, spFlags: DISPFlagOptimized)
!397 = !DIImportedEntity(tag: DW_TAG_imported_declaration, scope: !129, entity: !398, file: !141, line: 1175)
!398 = !DISubprogram(name: "nexttoward", scope: !138, file: !138, line: 261, type: !399, flags: DIFlagPrototyped, spFlags: DISPFlagOptimized)
!399 = !DISubroutineType(types: !400)
!400 = !{!110, !110, !209}
!401 = !DIImportedEntity(tag: DW_TAG_imported_declaration, scope: !129, entity: !402, file: !141, line: 1176)
!402 = !DISubprogram(name: "nexttowardf", scope: !138, file: !138, line: 261, type: !403, flags: DIFlagPrototyped, spFlags: DISPFlagOptimized)
!403 = !DISubroutineType(types: !404)
!404 = !{!198, !198, !209}
!405 = !DIImportedEntity(tag: DW_TAG_imported_declaration, scope: !129, entity: !406, file: !141, line: 1177)
!406 = !DISubprogram(name: "nexttowardl", scope: !138, file: !138, line: 261, type: !236, flags: DIFlagPrototyped, spFlags: DISPFlagOptimized)
!407 = !DIImportedEntity(tag: DW_TAG_imported_declaration, scope: !129, entity: !408, file: !141, line: 1179)
!408 = !DISubprogram(name: "remainder", scope: !138, file: !138, line: 272, type: !148, flags: DIFlagPrototyped, spFlags: DISPFlagOptimized)
!409 = !DIImportedEntity(tag: DW_TAG_imported_declaration, scope: !129, entity: !410, file: !141, line: 1180)
!410 = !DISubprogram(name: "remainderf", scope: !138, file: !138, line: 272, type: !232, flags: DIFlagPrototyped, spFlags: DISPFlagOptimized)
!411 = !DIImportedEntity(tag: DW_TAG_imported_declaration, scope: !129, entity: !412, file: !141, line: 1181)
!412 = !DISubprogram(name: "remainderl", scope: !138, file: !138, line: 272, type: !236, flags: DIFlagPrototyped, spFlags: DISPFlagOptimized)
!413 = !DIImportedEntity(tag: DW_TAG_imported_declaration, scope: !129, entity: !414, file: !141, line: 1183)
!414 = !DISubprogram(name: "remquo", scope: !138, file: !138, line: 307, type: !415, flags: DIFlagPrototyped, spFlags: DISPFlagOptimized)
!415 = !DISubroutineType(types: !416)
!416 = !{!110, !110, !110, !168}
!417 = !DIImportedEntity(tag: DW_TAG_imported_declaration, scope: !129, entity: !418, file: !141, line: 1184)
!418 = !DISubprogram(name: "remquof", scope: !138, file: !138, line: 307, type: !419, flags: DIFlagPrototyped, spFlags: DISPFlagOptimized)
!419 = !DISubroutineType(types: !420)
!420 = !{!198, !198, !198, !168}
!421 = !DIImportedEntity(tag: DW_TAG_imported_declaration, scope: !129, entity: !422, file: !141, line: 1185)
!422 = !DISubprogram(name: "remquol", scope: !138, file: !138, line: 307, type: !423, flags: DIFlagPrototyped, spFlags: DISPFlagOptimized)
!423 = !DISubroutineType(types: !424)
!424 = !{!209, !209, !209, !168}
!425 = !DIImportedEntity(tag: DW_TAG_imported_declaration, scope: !129, entity: !426, file: !141, line: 1187)
!426 = !DISubprogram(name: "rint", scope: !138, file: !138, line: 256, type: !139, flags: DIFlagPrototyped, spFlags: DISPFlagOptimized)
!427 = !DIImportedEntity(tag: DW_TAG_imported_declaration, scope: !129, entity: !428, file: !141, line: 1188)
!428 = !DISubprogram(name: "rintf", scope: !138, file: !138, line: 256, type: !203, flags: DIFlagPrototyped, spFlags: DISPFlagOptimized)
!429 = !DIImportedEntity(tag: DW_TAG_imported_declaration, scope: !129, entity: !430, file: !141, line: 1189)
!430 = !DISubprogram(name: "rintl", scope: !138, file: !138, line: 256, type: !207, flags: DIFlagPrototyped, spFlags: DISPFlagOptimized)
!431 = !DIImportedEntity(tag: DW_TAG_imported_declaration, scope: !129, entity: !432, file: !141, line: 1191)
!432 = !DISubprogram(name: "round", scope: !138, file: !138, line: 298, type: !139, flags: DIFlagPrototyped, spFlags: DISPFlagOptimized)
!433 = !DIImportedEntity(tag: DW_TAG_imported_declaration, scope: !129, entity: !434, file: !141, line: 1192)
!434 = !DISubprogram(name: "roundf", scope: !138, file: !138, line: 298, type: !203, flags: DIFlagPrototyped, spFlags: DISPFlagOptimized)
!435 = !DIImportedEntity(tag: DW_TAG_imported_declaration, scope: !129, entity: !436, file: !141, line: 1193)
!436 = !DISubprogram(name: "roundl", scope: !138, file: !138, line: 298, type: !207, flags: DIFlagPrototyped, spFlags: DISPFlagOptimized)
!437 = !DIImportedEntity(tag: DW_TAG_imported_declaration, scope: !129, entity: !438, file: !141, line: 1195)
!438 = !DISubprogram(name: "scalbln", scope: !138, file: !138, line: 290, type: !439, flags: DIFlagPrototyped, spFlags: DISPFlagOptimized)
!439 = !DISubroutineType(types: !440)
!440 = !{!110, !110, !357}
!441 = !DIImportedEntity(tag: DW_TAG_imported_declaration, scope: !129, entity: !442, file: !141, line: 1196)
!442 = !DISubprogram(name: "scalblnf", scope: !138, file: !138, line: 290, type: !443, flags: DIFlagPrototyped, spFlags: DISPFlagOptimized)
!443 = !DISubroutineType(types: !444)
!444 = !{!198, !198, !357}
!445 = !DIImportedEntity(tag: DW_TAG_imported_declaration, scope: !129, entity: !446, file: !141, line: 1197)
!446 = !DISubprogram(name: "scalblnl", scope: !138, file: !138, line: 290, type: !447, flags: DIFlagPrototyped, spFlags: DISPFlagOptimized)
!447 = !DISubroutineType(types: !448)
!448 = !{!209, !209, !357}
!449 = !DIImportedEntity(tag: DW_TAG_imported_declaration, scope: !129, entity: !450, file: !141, line: 1199)
!450 = !DISubprogram(name: "scalbn", scope: !138, file: !138, line: 276, type: !171, flags: DIFlagPrototyped, spFlags: DISPFlagOptimized)
!451 = !DIImportedEntity(tag: DW_TAG_imported_declaration, scope: !129, entity: !452, file: !141, line: 1200)
!452 = !DISubprogram(name: "scalbnf", scope: !138, file: !138, line: 276, type: !453, flags: DIFlagPrototyped, spFlags: DISPFlagOptimized)
!453 = !DISubroutineType(types: !454)
!454 = !{!198, !198, !134}
!455 = !DIImportedEntity(tag: DW_TAG_imported_declaration, scope: !129, entity: !456, file: !141, line: 1201)
!456 = !DISubprogram(name: "scalbnl", scope: !138, file: !138, line: 276, type: !457, flags: DIFlagPrototyped, spFlags: DISPFlagOptimized)
!457 = !DISubroutineType(types: !458)
!458 = !{!209, !209, !134}
!459 = !DIImportedEntity(tag: DW_TAG_imported_declaration, scope: !129, entity: !460, file: !141, line: 1203)
!460 = !DISubprogram(name: "tgamma", scope: !138, file: !138, line: 235, type: !139, flags: DIFlagPrototyped, spFlags: DISPFlagOptimized)
!461 = !DIImportedEntity(tag: DW_TAG_imported_declaration, scope: !129, entity: !462, file: !141, line: 1204)
!462 = !DISubprogram(name: "tgammaf", scope: !138, file: !138, line: 235, type: !203, flags: DIFlagPrototyped, spFlags: DISPFlagOptimized)
!463 = !DIImportedEntity(tag: DW_TAG_imported_declaration, scope: !129, entity: !464, file: !141, line: 1205)
!464 = !DISubprogram(name: "tgammal", scope: !138, file: !138, line: 235, type: !207, flags: DIFlagPrototyped, spFlags: DISPFlagOptimized)
!465 = !DIImportedEntity(tag: DW_TAG_imported_declaration, scope: !129, entity: !466, file: !141, line: 1207)
!466 = !DISubprogram(name: "trunc", scope: !138, file: !138, line: 302, type: !139, flags: DIFlagPrototyped, spFlags: DISPFlagOptimized)
!467 = !DIImportedEntity(tag: DW_TAG_imported_declaration, scope: !129, entity: !468, file: !141, line: 1208)
!468 = !DISubprogram(name: "truncf", scope: !138, file: !138, line: 302, type: !203, flags: DIFlagPrototyped, spFlags: DISPFlagOptimized)
!469 = !DIImportedEntity(tag: DW_TAG_imported_declaration, scope: !129, entity: !470, file: !141, line: 1209)
!470 = !DISubprogram(name: "truncl", scope: !138, file: !138, line: 302, type: !207, flags: DIFlagPrototyped, spFlags: DISPFlagOptimized)
!471 = !DIImportedEntity(tag: DW_TAG_imported_declaration, scope: !129, entity: !472, file: !474, line: 127)
!472 = !DIDerivedType(tag: DW_TAG_typedef, name: "div_t", file: !131, line: 62, baseType: !473)
!473 = !DICompositeType(tag: DW_TAG_structure_type, file: !131, line: 58, size: 64, flags: DIFlagFwdDecl, identifier: "_ZTS5div_t")
!474 = !DIFile(filename: "/usr/lib/gcc/x86_64-linux-gnu/9/../../../../include/c++/9/cstdlib", directory: "")
!475 = !DIImportedEntity(tag: DW_TAG_imported_declaration, scope: !129, entity: !476, file: !474, line: 128)
!476 = !DIDerivedType(tag: DW_TAG_typedef, name: "ldiv_t", file: !131, line: 70, baseType: !477)
!477 = distinct !DICompositeType(tag: DW_TAG_structure_type, file: !131, line: 66, size: 128, flags: DIFlagTypePassByValue, elements: !478, identifier: "_ZTS6ldiv_t")
!478 = !{!479, !480}
!479 = !DIDerivedType(tag: DW_TAG_member, name: "quot", scope: !477, file: !131, line: 68, baseType: !357, size: 64)
!480 = !DIDerivedType(tag: DW_TAG_member, name: "rem", scope: !477, file: !131, line: 69, baseType: !357, size: 64, offset: 64)
!481 = !DIImportedEntity(tag: DW_TAG_imported_declaration, scope: !129, entity: !482, file: !474, line: 130)
!482 = !DISubprogram(name: "abort", scope: !131, file: !131, line: 591, type: !483, flags: DIFlagPrototyped | DIFlagNoReturn, spFlags: DISPFlagOptimized)
!483 = !DISubroutineType(types: !484)
!484 = !{null}
!485 = !DIImportedEntity(tag: DW_TAG_imported_declaration, scope: !129, entity: !486, file: !474, line: 134)
!486 = !DISubprogram(name: "atexit", scope: !131, file: !131, line: 595, type: !487, flags: DIFlagPrototyped, spFlags: DISPFlagOptimized)
!487 = !DISubroutineType(types: !488)
!488 = !{!134, !489}
!489 = !DIDerivedType(tag: DW_TAG_pointer_type, baseType: !483, size: 64)
!490 = !DIImportedEntity(tag: DW_TAG_imported_declaration, scope: !129, entity: !491, file: !474, line: 137)
!491 = !DISubprogram(name: "at_quick_exit", scope: !131, file: !131, line: 600, type: !487, flags: DIFlagPrototyped, spFlags: DISPFlagOptimized)
!492 = !DIImportedEntity(tag: DW_TAG_imported_declaration, scope: !129, entity: !493, file: !474, line: 140)
!493 = !DISubprogram(name: "atof", scope: !494, file: !494, line: 25, type: !374, flags: DIFlagPrototyped, spFlags: DISPFlagOptimized)
!494 = !DIFile(filename: "/usr/include/x86_64-linux-gnu/bits/stdlib-float.h", directory: "")
!495 = !DIImportedEntity(tag: DW_TAG_imported_declaration, scope: !129, entity: !496, file: !474, line: 141)
!496 = !DISubprogram(name: "atoi", scope: !131, file: !131, line: 361, type: !497, flags: DIFlagPrototyped, spFlags: DISPFlagOptimized)
!497 = !DISubroutineType(types: !498)
!498 = !{!134, !376}
!499 = !DIImportedEntity(tag: DW_TAG_imported_declaration, scope: !129, entity: !500, file: !474, line: 142)
!500 = !DISubprogram(name: "atol", scope: !131, file: !131, line: 366, type: !501, flags: DIFlagPrototyped, spFlags: DISPFlagOptimized)
!501 = !DISubroutineType(types: !502)
!502 = !{!357, !376}
!503 = !DIImportedEntity(tag: DW_TAG_imported_declaration, scope: !129, entity: !504, file: !474, line: 143)
!504 = !DISubprogram(name: "bsearch", scope: !505, file: !505, line: 20, type: !506, flags: DIFlagPrototyped, spFlags: DISPFlagOptimized)
!505 = !DIFile(filename: "/usr/include/x86_64-linux-gnu/bits/stdlib-bsearch.h", directory: "")
!506 = !DISubroutineType(types: !507)
!507 = !{!112, !508, !508, !510, !510, !513}
!508 = !DIDerivedType(tag: DW_TAG_pointer_type, baseType: !509, size: 64)
!509 = !DIDerivedType(tag: DW_TAG_const_type, baseType: null)
!510 = !DIDerivedType(tag: DW_TAG_typedef, name: "size_t", file: !511, line: 46, baseType: !512)
!511 = !DIFile(filename: "/opt/rocm-5.3.0/llvm/lib/clang/15.0.0/include/stddef.h", directory: "")
!512 = !DIBasicType(name: "unsigned long", size: 64, encoding: DW_ATE_unsigned)
!513 = !DIDerivedType(tag: DW_TAG_typedef, name: "__compar_fn_t", file: !131, line: 808, baseType: !514)
!514 = !DIDerivedType(tag: DW_TAG_pointer_type, baseType: !515, size: 64)
!515 = !DISubroutineType(types: !516)
!516 = !{!134, !508, !508}
!517 = !DIImportedEntity(tag: DW_TAG_imported_declaration, scope: !129, entity: !518, file: !474, line: 144)
!518 = !DISubprogram(name: "calloc", scope: !131, file: !131, line: 542, type: !519, flags: DIFlagPrototyped, spFlags: DISPFlagOptimized)
!519 = !DISubroutineType(types: !520)
!520 = !{!112, !510, !510}
!521 = !DIImportedEntity(tag: DW_TAG_imported_declaration, scope: !129, entity: !522, file: !474, line: 145)
!522 = !DISubprogram(name: "div", scope: !131, file: !131, line: 852, type: !523, flags: DIFlagPrototyped, spFlags: DISPFlagOptimized)
!523 = !DISubroutineType(types: !524)
!524 = !{!472, !134, !134}
!525 = !DIImportedEntity(tag: DW_TAG_imported_declaration, scope: !129, entity: !526, file: !474, line: 146)
!526 = !DISubprogram(name: "exit", scope: !131, file: !131, line: 617, type: !527, flags: DIFlagPrototyped | DIFlagNoReturn, spFlags: DISPFlagOptimized)
!527 = !DISubroutineType(types: !528)
!528 = !{null, !134}
!529 = !DIImportedEntity(tag: DW_TAG_imported_declaration, scope: !129, entity: !530, file: !474, line: 147)
!530 = !DISubprogram(name: "free", scope: !131, file: !131, line: 565, type: !531, flags: DIFlagPrototyped, spFlags: DISPFlagOptimized)
!531 = !DISubroutineType(types: !532)
!532 = !{null, !112}
!533 = !DIImportedEntity(tag: DW_TAG_imported_declaration, scope: !129, entity: !534, file: !474, line: 148)
!534 = !DISubprogram(name: "getenv", scope: !131, file: !131, line: 634, type: !535, flags: DIFlagPrototyped, spFlags: DISPFlagOptimized)
!535 = !DISubroutineType(types: !536)
!536 = !{!537, !376}
!537 = !DIDerivedType(tag: DW_TAG_pointer_type, baseType: !5, size: 64)
!538 = !DIImportedEntity(tag: DW_TAG_imported_declaration, scope: !129, entity: !539, file: !474, line: 149)
!539 = !DISubprogram(name: "labs", scope: !131, file: !131, line: 841, type: !540, flags: DIFlagPrototyped, spFlags: DISPFlagOptimized)
!540 = !DISubroutineType(types: !541)
!541 = !{!357, !357}
!542 = !DIImportedEntity(tag: DW_TAG_imported_declaration, scope: !129, entity: !543, file: !474, line: 150)
!543 = !DISubprogram(name: "ldiv", scope: !131, file: !131, line: 854, type: !544, flags: DIFlagPrototyped, spFlags: DISPFlagOptimized)
!544 = !DISubroutineType(types: !545)
!545 = !{!476, !357, !357}
!546 = !DIImportedEntity(tag: DW_TAG_imported_declaration, scope: !129, entity: !547, file: !474, line: 151)
!547 = !DISubprogram(name: "malloc", scope: !131, file: !131, line: 539, type: !548, flags: DIFlagPrototyped, spFlags: DISPFlagOptimized)
!548 = !DISubroutineType(types: !549)
!549 = !{!112, !510}
!550 = !DIImportedEntity(tag: DW_TAG_imported_declaration, scope: !129, entity: !551, file: !474, line: 153)
!551 = !DISubprogram(name: "mblen", scope: !131, file: !131, line: 922, type: !552, flags: DIFlagPrototyped, spFlags: DISPFlagOptimized)
!552 = !DISubroutineType(types: !553)
!553 = !{!134, !376, !510}
!554 = !DIImportedEntity(tag: DW_TAG_imported_declaration, scope: !129, entity: !555, file: !474, line: 154)
!555 = !DISubprogram(name: "mbstowcs", scope: !131, file: !131, line: 933, type: !556, flags: DIFlagPrototyped, spFlags: DISPFlagOptimized)
!556 = !DISubroutineType(types: !557)
!557 = !{!510, !558, !561, !510}
!558 = !DIDerivedType(tag: DW_TAG_restrict_type, baseType: !559)
!559 = !DIDerivedType(tag: DW_TAG_pointer_type, baseType: !560, size: 64)
!560 = !DIBasicType(name: "wchar_t", size: 32, encoding: DW_ATE_signed)
!561 = !DIDerivedType(tag: DW_TAG_restrict_type, baseType: !376)
!562 = !DIImportedEntity(tag: DW_TAG_imported_declaration, scope: !129, entity: !563, file: !474, line: 155)
!563 = !DISubprogram(name: "mbtowc", scope: !131, file: !131, line: 925, type: !564, flags: DIFlagPrototyped, spFlags: DISPFlagOptimized)
!564 = !DISubroutineType(types: !565)
!565 = !{!134, !558, !561, !510}
!566 = !DIImportedEntity(tag: DW_TAG_imported_declaration, scope: !129, entity: !567, file: !474, line: 157)
!567 = !DISubprogram(name: "qsort", scope: !131, file: !131, line: 830, type: !568, flags: DIFlagPrototyped, spFlags: DISPFlagOptimized)
!568 = !DISubroutineType(types: !569)
!569 = !{null, !112, !510, !510, !513}
!570 = !DIImportedEntity(tag: DW_TAG_imported_declaration, scope: !129, entity: !571, file: !474, line: 160)
!571 = !DISubprogram(name: "quick_exit", scope: !131, file: !131, line: 623, type: !527, flags: DIFlagPrototyped | DIFlagNoReturn, spFlags: DISPFlagOptimized)
!572 = !DIImportedEntity(tag: DW_TAG_imported_declaration, scope: !129, entity: !573, file: !474, line: 163)
!573 = !DISubprogram(name: "rand", scope: !131, file: !131, line: 453, type: !574, flags: DIFlagPrototyped, spFlags: DISPFlagOptimized)
!574 = !DISubroutineType(types: !575)
!575 = !{!134}
!576 = !DIImportedEntity(tag: DW_TAG_imported_declaration, scope: !129, entity: !577, file: !474, line: 164)
!577 = !DISubprogram(name: "realloc", scope: !131, file: !131, line: 550, type: !578, flags: DIFlagPrototyped, spFlags: DISPFlagOptimized)
!578 = !DISubroutineType(types: !579)
!579 = !{!112, !112, !510}
!580 = !DIImportedEntity(tag: DW_TAG_imported_declaration, scope: !129, entity: !581, file: !474, line: 165)
!581 = !DISubprogram(name: "srand", scope: !131, file: !131, line: 455, type: !582, flags: DIFlagPrototyped, spFlags: DISPFlagOptimized)
!582 = !DISubroutineType(types: !583)
!583 = !{null, !14}
!584 = !DIImportedEntity(tag: DW_TAG_imported_declaration, scope: !129, entity: !585, file: !474, line: 166)
!585 = !DISubprogram(name: "strtod", scope: !131, file: !131, line: 117, type: !586, flags: DIFlagPrototyped, spFlags: DISPFlagOptimized)
!586 = !DISubroutineType(types: !587)
!587 = !{!110, !561, !588}
!588 = !DIDerivedType(tag: DW_TAG_restrict_type, baseType: !589)
!589 = !DIDerivedType(tag: DW_TAG_pointer_type, baseType: !537, size: 64)
!590 = !DIImportedEntity(tag: DW_TAG_imported_declaration, scope: !129, entity: !591, file: !474, line: 167)
!591 = !DISubprogram(name: "strtol", scope: !131, file: !131, line: 176, type: !592, flags: DIFlagPrototyped, spFlags: DISPFlagOptimized)
!592 = !DISubroutineType(types: !593)
!593 = !{!357, !561, !588, !134}
!594 = !DIImportedEntity(tag: DW_TAG_imported_declaration, scope: !129, entity: !595, file: !474, line: 168)
!595 = !DISubprogram(name: "strtoul", scope: !131, file: !131, line: 180, type: !596, flags: DIFlagPrototyped, spFlags: DISPFlagOptimized)
!596 = !DISubroutineType(types: !597)
!597 = !{!512, !561, !588, !134}
!598 = !DIImportedEntity(tag: DW_TAG_imported_declaration, scope: !129, entity: !599, file: !474, line: 169)
!599 = !DISubprogram(name: "system", scope: !131, file: !131, line: 784, type: !497, flags: DIFlagPrototyped, spFlags: DISPFlagOptimized)
!600 = !DIImportedEntity(tag: DW_TAG_imported_declaration, scope: !129, entity: !601, file: !474, line: 171)
!601 = !DISubprogram(name: "wcstombs", scope: !131, file: !131, line: 936, type: !602, flags: DIFlagPrototyped, spFlags: DISPFlagOptimized)
!602 = !DISubroutineType(types: !603)
!603 = !{!510, !604, !605, !510}
!604 = !DIDerivedType(tag: DW_TAG_restrict_type, baseType: !537)
!605 = !DIDerivedType(tag: DW_TAG_restrict_type, baseType: !606)
!606 = !DIDerivedType(tag: DW_TAG_pointer_type, baseType: !607, size: 64)
!607 = !DIDerivedType(tag: DW_TAG_const_type, baseType: !560)
!608 = !DIImportedEntity(tag: DW_TAG_imported_declaration, scope: !129, entity: !609, file: !474, line: 172)
!609 = !DISubprogram(name: "wctomb", scope: !131, file: !131, line: 929, type: !610, flags: DIFlagPrototyped, spFlags: DISPFlagOptimized)
!610 = !DISubroutineType(types: !611)
!611 = !{!134, !537, !560}
!612 = !DIImportedEntity(tag: DW_TAG_imported_declaration, scope: !13, entity: !613, file: !474, line: 200)
!613 = !DIDerivedType(tag: DW_TAG_typedef, name: "lldiv_t", file: !131, line: 80, baseType: !614)
!614 = distinct !DICompositeType(tag: DW_TAG_structure_type, file: !131, line: 76, size: 128, flags: DIFlagTypePassByValue, elements: !615, identifier: "_ZTS7lldiv_t")
!615 = !{!616, !617}
!616 = !DIDerivedType(tag: DW_TAG_member, name: "quot", scope: !614, file: !131, line: 78, baseType: !320, size: 64)
!617 = !DIDerivedType(tag: DW_TAG_member, name: "rem", scope: !614, file: !131, line: 79, baseType: !320, size: 64, offset: 64)
!618 = !DIImportedEntity(tag: DW_TAG_imported_declaration, scope: !13, entity: !619, file: !474, line: 206)
!619 = !DISubprogram(name: "_Exit", scope: !131, file: !131, line: 629, type: !527, flags: DIFlagPrototyped | DIFlagNoReturn, spFlags: DISPFlagOptimized)
!620 = !DIImportedEntity(tag: DW_TAG_imported_declaration, scope: !13, entity: !621, file: !474, line: 210)
!621 = !DISubprogram(name: "llabs", scope: !131, file: !131, line: 844, type: !622, flags: DIFlagPrototyped, spFlags: DISPFlagOptimized)
!622 = !DISubroutineType(types: !623)
!623 = !{!320, !320}
!624 = !DIImportedEntity(tag: DW_TAG_imported_declaration, scope: !13, entity: !625, file: !474, line: 216)
!625 = !DISubprogram(name: "lldiv", scope: !131, file: !131, line: 858, type: !626, flags: DIFlagPrototyped, spFlags: DISPFlagOptimized)
!626 = !DISubroutineType(types: !627)
!627 = !{!613, !320, !320}
!628 = !DIImportedEntity(tag: DW_TAG_imported_declaration, scope: !13, entity: !629, file: !474, line: 227)
!629 = !DISubprogram(name: "atoll", scope: !131, file: !131, line: 373, type: !630, flags: DIFlagPrototyped, spFlags: DISPFlagOptimized)
!630 = !DISubroutineType(types: !631)
!631 = !{!320, !376}
!632 = !DIImportedEntity(tag: DW_TAG_imported_declaration, scope: !13, entity: !633, file: !474, line: 228)
!633 = !DISubprogram(name: "strtoll", scope: !131, file: !131, line: 200, type: !634, flags: DIFlagPrototyped, spFlags: DISPFlagOptimized)
!634 = !DISubroutineType(types: !635)
!635 = !{!320, !561, !588, !134}
!636 = !DIImportedEntity(tag: DW_TAG_imported_declaration, scope: !13, entity: !637, file: !474, line: 229)
!637 = !DISubprogram(name: "strtoull", scope: !131, file: !131, line: 205, type: !638, flags: DIFlagPrototyped, spFlags: DISPFlagOptimized)
!638 = !DISubroutineType(types: !639)
!639 = !{!640, !561, !588, !134}
!640 = !DIBasicType(name: "unsigned long long", size: 64, encoding: DW_ATE_unsigned)
!641 = !DIImportedEntity(tag: DW_TAG_imported_declaration, scope: !13, entity: !642, file: !474, line: 231)
!642 = !DISubprogram(name: "strtof", scope: !131, file: !131, line: 123, type: !643, flags: DIFlagPrototyped, spFlags: DISPFlagOptimized)
!643 = !DISubroutineType(types: !644)
!644 = !{!198, !561, !588}
!645 = !DIImportedEntity(tag: DW_TAG_imported_declaration, scope: !13, entity: !646, file: !474, line: 232)
!646 = !DISubprogram(name: "strtold", scope: !131, file: !131, line: 126, type: !647, flags: DIFlagPrototyped, spFlags: DISPFlagOptimized)
!647 = !DISubroutineType(types: !648)
!648 = !{!209, !561, !588}
!649 = !DIImportedEntity(tag: DW_TAG_imported_declaration, scope: !129, entity: !613, file: !474, line: 240)
!650 = !DIImportedEntity(tag: DW_TAG_imported_declaration, scope: !129, entity: !619, file: !474, line: 242)
!651 = !DIImportedEntity(tag: DW_TAG_imported_declaration, scope: !129, entity: !621, file: !474, line: 244)
!652 = !DIImportedEntity(tag: DW_TAG_imported_declaration, scope: !129, entity: !653, file: !474, line: 245)
!653 = !DISubprogram(name: "div", linkageName: "_ZN9__gnu_cxx3divExx", scope: !13, file: !474, line: 213, type: !626, flags: DIFlagPrototyped, spFlags: DISPFlagOptimized)
!654 = !DIImportedEntity(tag: DW_TAG_imported_declaration, scope: !129, entity: !625, file: !474, line: 246)
!655 = !DIImportedEntity(tag: DW_TAG_imported_declaration, scope: !129, entity: !629, file: !474, line: 248)
!656 = !DIImportedEntity(tag: DW_TAG_imported_declaration, scope: !129, entity: !642, file: !474, line: 249)
!657 = !DIImportedEntity(tag: DW_TAG_imported_declaration, scope: !129, entity: !633, file: !474, line: 250)
!658 = !DIImportedEntity(tag: DW_TAG_imported_declaration, scope: !129, entity: !637, file: !474, line: 251)
!659 = !DIImportedEntity(tag: DW_TAG_imported_declaration, scope: !129, entity: !646, file: !474, line: 252)
!660 = !DIImportedEntity(tag: DW_TAG_imported_declaration, scope: !8, entity: !482, file: !661, line: 38)
!661 = !DIFile(filename: "/usr/lib/gcc/x86_64-linux-gnu/9/../../../../include/c++/9/stdlib.h", directory: "")
!662 = !DIImportedEntity(tag: DW_TAG_imported_declaration, scope: !8, entity: !486, file: !661, line: 39)
!663 = !DIImportedEntity(tag: DW_TAG_imported_declaration, scope: !8, entity: !526, file: !661, line: 40)
!664 = !DIImportedEntity(tag: DW_TAG_imported_declaration, scope: !8, entity: !491, file: !661, line: 43)
!665 = !DIImportedEntity(tag: DW_TAG_imported_declaration, scope: !8, entity: !571, file: !661, line: 46)
!666 = !DIImportedEntity(tag: DW_TAG_imported_declaration, scope: !8, entity: !472, file: !661, line: 51)
!667 = !DIImportedEntity(tag: DW_TAG_imported_declaration, scope: !8, entity: !476, file: !661, line: 52)
!668 = !DIImportedEntity(tag: DW_TAG_imported_declaration, scope: !8, entity: !669, file: !661, line: 54)
!669 = !DISubprogram(name: "abs", linkageName: "_ZSt3abse", scope: !129, file: !135, line: 79, type: !207, flags: DIFlagPrototyped, spFlags: DISPFlagOptimized)
!670 = !DIImportedEntity(tag: DW_TAG_imported_declaration, scope: !8, entity: !493, file: !661, line: 55)
!671 = !DIImportedEntity(tag: DW_TAG_imported_declaration, scope: !8, entity: !496, file: !661, line: 56)
!672 = !DIImportedEntity(tag: DW_TAG_imported_declaration, scope: !8, entity: !500, file: !661, line: 57)
!673 = !DIImportedEntity(tag: DW_TAG_imported_declaration, scope: !8, entity: !504, file: !661, line: 58)
!674 = !DIImportedEntity(tag: DW_TAG_imported_declaration, scope: !8, entity: !518, file: !661, line: 59)
!675 = !DIImportedEntity(tag: DW_TAG_imported_declaration, scope: !8, entity: !653, file: !661, line: 60)
!676 = !DIImportedEntity(tag: DW_TAG_imported_declaration, scope: !8, entity: !530, file: !661, line: 61)
!677 = !DIImportedEntity(tag: DW_TAG_imported_declaration, scope: !8, entity: !534, file: !661, line: 62)
!678 = !DIImportedEntity(tag: DW_TAG_imported_declaration, scope: !8, entity: !539, file: !661, line: 63)
!679 = !DIImportedEntity(tag: DW_TAG_imported_declaration, scope: !8, entity: !543, file: !661, line: 64)
!680 = !DIImportedEntity(tag: DW_TAG_imported_declaration, scope: !8, entity: !547, file: !661, line: 65)
!681 = !DIImportedEntity(tag: DW_TAG_imported_declaration, scope: !8, entity: !551, file: !661, line: 67)
!682 = !DIImportedEntity(tag: DW_TAG_imported_declaration, scope: !8, entity: !555, file: !661, line: 68)
!683 = !DIImportedEntity(tag: DW_TAG_imported_declaration, scope: !8, entity: !563, file: !661, line: 69)
!684 = !DIImportedEntity(tag: DW_TAG_imported_declaration, scope: !8, entity: !567, file: !661, line: 71)
!685 = !DIImportedEntity(tag: DW_TAG_imported_declaration, scope: !8, entity: !573, file: !661, line: 72)
!686 = !DIImportedEntity(tag: DW_TAG_imported_declaration, scope: !8, entity: !577, file: !661, line: 73)
!687 = !DIImportedEntity(tag: DW_TAG_imported_declaration, scope: !8, entity: !581, file: !661, line: 74)
!688 = !DIImportedEntity(tag: DW_TAG_imported_declaration, scope: !8, entity: !585, file: !661, line: 75)
!689 = !DIImportedEntity(tag: DW_TAG_imported_declaration, scope: !8, entity: !591, file: !661, line: 76)
!690 = !DIImportedEntity(tag: DW_TAG_imported_declaration, scope: !8, entity: !595, file: !661, line: 77)
!691 = !DIImportedEntity(tag: DW_TAG_imported_declaration, scope: !8, entity: !599, file: !661, line: 78)
!692 = !DIImportedEntity(tag: DW_TAG_imported_declaration, scope: !8, entity: !601, file: !661, line: 80)
!693 = !DIImportedEntity(tag: DW_TAG_imported_declaration, scope: !8, entity: !609, file: !661, line: 81)
!694 = !DIImportedEntity(tag: DW_TAG_imported_module, scope: !695, entity: !696, file: !697, line: 58)
!695 = !DINamespace(name: "__gnu_debug", scope: null)
!696 = !DINamespace(name: "__debug", scope: !129)
!697 = !DIFile(filename: "/usr/lib/gcc/x86_64-linux-gnu/9/../../../../include/c++/9/debug/debug.h", directory: "")
!698 = !DIImportedEntity(tag: DW_TAG_imported_declaration, scope: !129, entity: !699, file: !700, line: 57)
!699 = !DICompositeType(tag: DW_TAG_class_type, name: "exception_ptr", scope: !701, file: !700, line: 79, size: 64, flags: DIFlagFwdDecl | DIFlagNonTrivial, identifier: "_ZTSNSt15__exception_ptr13exception_ptrE")
!700 = !DIFile(filename: "/usr/lib/gcc/x86_64-linux-gnu/9/../../../../include/c++/9/bits/exception_ptr.h", directory: "")
!701 = !DINamespace(name: "__exception_ptr", scope: !129)
!702 = !DIImportedEntity(tag: DW_TAG_imported_declaration, scope: !701, entity: !703, file: !700, line: 73)
!703 = !DISubprogram(name: "rethrow_exception", linkageName: "_ZSt17rethrow_exceptionNSt15__exception_ptr13exception_ptrE", scope: !129, file: !700, line: 69, type: !704, flags: DIFlagPrototyped | DIFlagNoReturn, spFlags: DISPFlagOptimized)
!704 = !DISubroutineType(types: !705)
!705 = !{null, !699}
!706 = !DIImportedEntity(tag: DW_TAG_imported_declaration, scope: !129, entity: !707, file: !708, line: 200)
!707 = !DISubprogram(name: "abs", linkageName: "_ZL3absd", scope: !708, file: !708, line: 28, type: !139, flags: DIFlagPrototyped, spFlags: DISPFlagLocalToUnit | DISPFlagOptimized)
!708 = !DIFile(filename: "/opt/rocm-5.3.0/llvm/lib/clang/15.0.0/include/__clang_cuda_math_forward_declares.h", directory: "")
!709 = !DIImportedEntity(tag: DW_TAG_imported_declaration, scope: !129, entity: !710, file: !708, line: 201)
!710 = !DISubprogram(name: "acos", linkageName: "_ZL4acosf", scope: !708, file: !708, line: 32, type: !203, flags: DIFlagPrototyped, spFlags: DISPFlagLocalToUnit | DISPFlagOptimized)
!711 = !DIImportedEntity(tag: DW_TAG_imported_declaration, scope: !129, entity: !712, file: !708, line: 202)
!712 = !DISubprogram(name: "acosh", linkageName: "_ZL5acoshf", scope: !708, file: !708, line: 34, type: !203, flags: DIFlagPrototyped, spFlags: DISPFlagLocalToUnit | DISPFlagOptimized)
!713 = !DIImportedEntity(tag: DW_TAG_imported_declaration, scope: !129, entity: !714, file: !708, line: 203)
!714 = !DISubprogram(name: "asin", linkageName: "_ZL4asinf", scope: !708, file: !708, line: 36, type: !203, flags: DIFlagPrototyped, spFlags: DISPFlagLocalToUnit | DISPFlagOptimized)
!715 = !DIImportedEntity(tag: DW_TAG_imported_declaration, scope: !129, entity: !716, file: !708, line: 204)
!716 = !DISubprogram(name: "asinh", linkageName: "_ZL5asinhf", scope: !708, file: !708, line: 38, type: !203, flags: DIFlagPrototyped, spFlags: DISPFlagLocalToUnit | DISPFlagOptimized)
!717 = !DIImportedEntity(tag: DW_TAG_imported_declaration, scope: !129, entity: !718, file: !708, line: 205)
!718 = !DISubprogram(name: "atan", linkageName: "_ZL4atanf", scope: !708, file: !708, line: 42, type: !203, flags: DIFlagPrototyped, spFlags: DISPFlagLocalToUnit | DISPFlagOptimized)
!719 = !DIImportedEntity(tag: DW_TAG_imported_declaration, scope: !129, entity: !720, file: !708, line: 206)
!720 = !DISubprogram(name: "atan2", linkageName: "_ZL5atan2ff", scope: !708, file: !708, line: 40, type: !232, flags: DIFlagPrototyped, spFlags: DISPFlagLocalToUnit | DISPFlagOptimized)
!721 = !DIImportedEntity(tag: DW_TAG_imported_declaration, scope: !129, entity: !722, file: !708, line: 207)
!722 = !DISubprogram(name: "atanh", linkageName: "_ZL5atanhf", scope: !708, file: !708, line: 44, type: !203, flags: DIFlagPrototyped, spFlags: DISPFlagLocalToUnit | DISPFlagOptimized)
!723 = !DIImportedEntity(tag: DW_TAG_imported_declaration, scope: !129, entity: !724, file: !708, line: 208)
!724 = !DISubprogram(name: "cbrt", linkageName: "_ZL4cbrtf", scope: !708, file: !708, line: 46, type: !203, flags: DIFlagPrototyped, spFlags: DISPFlagLocalToUnit | DISPFlagOptimized)
!725 = !DIImportedEntity(tag: DW_TAG_imported_declaration, scope: !129, entity: !726, file: !708, line: 209)
!726 = !DISubprogram(name: "ceil", linkageName: "_ZL4ceilf", scope: !708, file: !708, line: 48, type: !203, flags: DIFlagPrototyped, spFlags: DISPFlagLocalToUnit | DISPFlagOptimized)
!727 = !DIImportedEntity(tag: DW_TAG_imported_declaration, scope: !129, entity: !728, file: !708, line: 210)
!728 = !DISubprogram(name: "copysign", linkageName: "_ZL8copysignff", scope: !708, file: !708, line: 50, type: !232, flags: DIFlagPrototyped, spFlags: DISPFlagLocalToUnit | DISPFlagOptimized)
!729 = !DIImportedEntity(tag: DW_TAG_imported_declaration, scope: !129, entity: !730, file: !708, line: 211)
!730 = !DISubprogram(name: "cos", linkageName: "_ZL3cosf", scope: !708, file: !708, line: 52, type: !203, flags: DIFlagPrototyped, spFlags: DISPFlagLocalToUnit | DISPFlagOptimized)
!731 = !DIImportedEntity(tag: DW_TAG_imported_declaration, scope: !129, entity: !732, file: !708, line: 212)
!732 = !DISubprogram(name: "cosh", linkageName: "_ZL4coshf", scope: !708, file: !708, line: 54, type: !203, flags: DIFlagPrototyped, spFlags: DISPFlagLocalToUnit | DISPFlagOptimized)
!733 = !DIImportedEntity(tag: DW_TAG_imported_declaration, scope: !129, entity: !734, file: !708, line: 213)
!734 = !DISubprogram(name: "erf", linkageName: "_ZL3erff", scope: !708, file: !708, line: 58, type: !203, flags: DIFlagPrototyped, spFlags: DISPFlagLocalToUnit | DISPFlagOptimized)
!735 = !DIImportedEntity(tag: DW_TAG_imported_declaration, scope: !129, entity: !736, file: !708, line: 214)
!736 = !DISubprogram(name: "erfc", linkageName: "_ZL4erfcf", scope: !708, file: !708, line: 56, type: !203, flags: DIFlagPrototyped, spFlags: DISPFlagLocalToUnit | DISPFlagOptimized)
!737 = !DIImportedEntity(tag: DW_TAG_imported_declaration, scope: !129, entity: !738, file: !708, line: 215)
!738 = !DISubprogram(name: "exp", linkageName: "_ZL3expf", scope: !708, file: !708, line: 62, type: !203, flags: DIFlagPrototyped, spFlags: DISPFlagLocalToUnit | DISPFlagOptimized)
!739 = !DIImportedEntity(tag: DW_TAG_imported_declaration, scope: !129, entity: !740, file: !708, line: 216)
!740 = !DISubprogram(name: "exp2", linkageName: "_ZL4exp2f", scope: !708, file: !708, line: 60, type: !203, flags: DIFlagPrototyped, spFlags: DISPFlagLocalToUnit | DISPFlagOptimized)
!741 = !DIImportedEntity(tag: DW_TAG_imported_declaration, scope: !129, entity: !742, file: !708, line: 217)
!742 = !DISubprogram(name: "expm1", linkageName: "_ZL5expm1f", scope: !708, file: !708, line: 64, type: !203, flags: DIFlagPrototyped, spFlags: DISPFlagLocalToUnit | DISPFlagOptimized)
!743 = !DIImportedEntity(tag: DW_TAG_imported_declaration, scope: !129, entity: !744, file: !708, line: 218)
!744 = !DISubprogram(name: "fabs", linkageName: "_ZL4fabsf", scope: !708, file: !708, line: 66, type: !203, flags: DIFlagPrototyped, spFlags: DISPFlagLocalToUnit | DISPFlagOptimized)
!745 = !DIImportedEntity(tag: DW_TAG_imported_declaration, scope: !129, entity: !746, file: !708, line: 219)
!746 = !DISubprogram(name: "fdim", linkageName: "_ZL4fdimff", scope: !708, file: !708, line: 68, type: !232, flags: DIFlagPrototyped, spFlags: DISPFlagLocalToUnit | DISPFlagOptimized)
!747 = !DIImportedEntity(tag: DW_TAG_imported_declaration, scope: !129, entity: !748, file: !708, line: 220)
!748 = !DISubprogram(name: "floor", linkageName: "_ZL5floorf", scope: !708, file: !708, line: 70, type: !203, flags: DIFlagPrototyped, spFlags: DISPFlagLocalToUnit | DISPFlagOptimized)
!749 = !DIImportedEntity(tag: DW_TAG_imported_declaration, scope: !129, entity: !750, file: !708, line: 221)
!750 = !DISubprogram(name: "fma", linkageName: "_ZL3fmafff", scope: !708, file: !708, line: 72, type: !274, flags: DIFlagPrototyped, spFlags: DISPFlagLocalToUnit | DISPFlagOptimized)
!751 = !DIImportedEntity(tag: DW_TAG_imported_declaration, scope: !129, entity: !752, file: !708, line: 222)
!752 = !DISubprogram(name: "fmax", linkageName: "_ZL4fmaxff", scope: !708, file: !708, line: 74, type: !232, flags: DIFlagPrototyped, spFlags: DISPFlagLocalToUnit | DISPFlagOptimized)
!753 = !DIImportedEntity(tag: DW_TAG_imported_declaration, scope: !129, entity: !754, file: !708, line: 223)
!754 = !DISubprogram(name: "fmin", linkageName: "_ZL4fminff", scope: !708, file: !708, line: 76, type: !232, flags: DIFlagPrototyped, spFlags: DISPFlagLocalToUnit | DISPFlagOptimized)
!755 = !DIImportedEntity(tag: DW_TAG_imported_declaration, scope: !129, entity: !756, file: !708, line: 224)
!756 = !DISubprogram(name: "fmod", linkageName: "_ZL4fmodff", scope: !708, file: !708, line: 78, type: !232, flags: DIFlagPrototyped, spFlags: DISPFlagLocalToUnit | DISPFlagOptimized)
!757 = !DIImportedEntity(tag: DW_TAG_imported_declaration, scope: !129, entity: !758, file: !708, line: 225)
!758 = !DISubprogram(name: "fpclassify", linkageName: "_ZL10fpclassifyf", scope: !708, file: !708, line: 80, type: !304, flags: DIFlagPrototyped, spFlags: DISPFlagLocalToUnit | DISPFlagOptimized)
!759 = !DIImportedEntity(tag: DW_TAG_imported_declaration, scope: !129, entity: !760, file: !708, line: 226)
!760 = !DISubprogram(name: "frexp", linkageName: "_ZL5frexpfPi", scope: !708, file: !708, line: 82, type: !761, flags: DIFlagPrototyped, spFlags: DISPFlagLocalToUnit | DISPFlagOptimized)
!761 = !DISubroutineType(types: !762)
!762 = !{!198, !198, !168}
!763 = !DIImportedEntity(tag: DW_TAG_imported_declaration, scope: !129, entity: !764, file: !708, line: 227)
!764 = !DISubprogram(name: "hypot", linkageName: "_ZL5hypotff", scope: !708, file: !708, line: 84, type: !232, flags: DIFlagPrototyped, spFlags: DISPFlagLocalToUnit | DISPFlagOptimized)
!765 = !DIImportedEntity(tag: DW_TAG_imported_declaration, scope: !129, entity: !766, file: !708, line: 228)
!766 = !DISubprogram(name: "ilogb", linkageName: "_ZL5ilogbf", scope: !708, file: !708, line: 86, type: !304, flags: DIFlagPrototyped, spFlags: DISPFlagLocalToUnit | DISPFlagOptimized)
!767 = !DIImportedEntity(tag: DW_TAG_imported_declaration, scope: !129, entity: !768, file: !708, line: 229)
!768 = !DISubprogram(name: "isfinite", linkageName: "_ZL8isfinitef", scope: !708, file: !708, line: 91, type: !769, flags: DIFlagPrototyped, spFlags: DISPFlagLocalToUnit | DISPFlagOptimized)
!769 = !DISubroutineType(types: !770)
!770 = !{!771, !198}
!771 = !DIBasicType(name: "bool", size: 8, encoding: DW_ATE_boolean)
!772 = !DIImportedEntity(tag: DW_TAG_imported_declaration, scope: !129, entity: !773, file: !708, line: 230)
!773 = !DISubprogram(name: "isgreater", linkageName: "_ZL9isgreaterff", scope: !708, file: !708, line: 95, type: !774, flags: DIFlagPrototyped, spFlags: DISPFlagLocalToUnit | DISPFlagOptimized)
!774 = !DISubroutineType(types: !775)
!775 = !{!771, !198, !198}
!776 = !DIImportedEntity(tag: DW_TAG_imported_declaration, scope: !129, entity: !777, file: !708, line: 231)
!777 = !DISubprogram(name: "isgreaterequal", linkageName: "_ZL14isgreaterequalff", scope: !708, file: !708, line: 94, type: !774, flags: DIFlagPrototyped, spFlags: DISPFlagLocalToUnit | DISPFlagOptimized)
!778 = !DIImportedEntity(tag: DW_TAG_imported_declaration, scope: !129, entity: !779, file: !708, line: 232)
!779 = !DISubprogram(name: "isinf", linkageName: "_ZL5isinff", scope: !708, file: !708, line: 100, type: !769, flags: DIFlagPrototyped, spFlags: DISPFlagLocalToUnit | DISPFlagOptimized)
!780 = !DIImportedEntity(tag: DW_TAG_imported_declaration, scope: !129, entity: !781, file: !708, line: 233)
!781 = !DISubprogram(name: "isless", linkageName: "_ZL6islessff", scope: !708, file: !708, line: 104, type: !774, flags: DIFlagPrototyped, spFlags: DISPFlagLocalToUnit | DISPFlagOptimized)
!782 = !DIImportedEntity(tag: DW_TAG_imported_declaration, scope: !129, entity: !783, file: !708, line: 234)
!783 = !DISubprogram(name: "islessequal", linkageName: "_ZL11islessequalff", scope: !708, file: !708, line: 103, type: !774, flags: DIFlagPrototyped, spFlags: DISPFlagLocalToUnit | DISPFlagOptimized)
!784 = !DIImportedEntity(tag: DW_TAG_imported_declaration, scope: !129, entity: !785, file: !708, line: 235)
!785 = !DISubprogram(name: "islessgreater", linkageName: "_ZL13islessgreaterff", scope: !708, file: !708, line: 106, type: !774, flags: DIFlagPrototyped, spFlags: DISPFlagLocalToUnit | DISPFlagOptimized)
!786 = !DIImportedEntity(tag: DW_TAG_imported_declaration, scope: !129, entity: !787, file: !708, line: 236)
!787 = !DISubprogram(name: "isnan", linkageName: "_ZL5isnanf", scope: !708, file: !708, line: 111, type: !769, flags: DIFlagPrototyped, spFlags: DISPFlagLocalToUnit | DISPFlagOptimized)
!788 = !DIImportedEntity(tag: DW_TAG_imported_declaration, scope: !129, entity: !789, file: !708, line: 237)
!789 = !DISubprogram(name: "isnormal", linkageName: "_ZL8isnormalf", scope: !708, file: !708, line: 113, type: !769, flags: DIFlagPrototyped, spFlags: DISPFlagLocalToUnit | DISPFlagOptimized)
!790 = !DIImportedEntity(tag: DW_TAG_imported_declaration, scope: !129, entity: !791, file: !708, line: 238)
!791 = !DISubprogram(name: "isunordered", linkageName: "_ZL11isunorderedff", scope: !708, file: !708, line: 115, type: !774, flags: DIFlagPrototyped, spFlags: DISPFlagLocalToUnit | DISPFlagOptimized)
!792 = !DIImportedEntity(tag: DW_TAG_imported_declaration, scope: !129, entity: !793, file: !708, line: 239)
!793 = !DISubprogram(name: "labs", linkageName: "_ZL4labsl", scope: !708, file: !708, line: 116, type: !540, flags: DIFlagPrototyped, spFlags: DISPFlagLocalToUnit | DISPFlagOptimized)
!794 = !DIImportedEntity(tag: DW_TAG_imported_declaration, scope: !129, entity: !795, file: !708, line: 240)
!795 = !DISubprogram(name: "ldexp", linkageName: "_ZL5ldexpfi", scope: !708, file: !708, line: 118, type: !453, flags: DIFlagPrototyped, spFlags: DISPFlagLocalToUnit | DISPFlagOptimized)
!796 = !DIImportedEntity(tag: DW_TAG_imported_declaration, scope: !129, entity: !797, file: !708, line: 241)
!797 = !DISubprogram(name: "lgamma", linkageName: "_ZL6lgammaf", scope: !708, file: !708, line: 120, type: !203, flags: DIFlagPrototyped, spFlags: DISPFlagLocalToUnit | DISPFlagOptimized)
!798 = !DIImportedEntity(tag: DW_TAG_imported_declaration, scope: !129, entity: !799, file: !708, line: 242)
!799 = !DISubprogram(name: "llabs", linkageName: "_ZL5llabsx", scope: !708, file: !708, line: 121, type: !622, flags: DIFlagPrototyped, spFlags: DISPFlagLocalToUnit | DISPFlagOptimized)
!800 = !DIImportedEntity(tag: DW_TAG_imported_declaration, scope: !129, entity: !801, file: !708, line: 243)
!801 = !DISubprogram(name: "llrint", linkageName: "_ZL6llrintf", scope: !708, file: !708, line: 123, type: !323, flags: DIFlagPrototyped, spFlags: DISPFlagLocalToUnit | DISPFlagOptimized)
!802 = !DIImportedEntity(tag: DW_TAG_imported_declaration, scope: !129, entity: !803, file: !708, line: 244)
!803 = !DISubprogram(name: "log", linkageName: "_ZL3logf", scope: !708, file: !708, line: 133, type: !203, flags: DIFlagPrototyped, spFlags: DISPFlagLocalToUnit | DISPFlagOptimized)
!804 = !DIImportedEntity(tag: DW_TAG_imported_declaration, scope: !129, entity: !805, file: !708, line: 245)
!805 = !DISubprogram(name: "log10", linkageName: "_ZL5log10f", scope: !708, file: !708, line: 125, type: !203, flags: DIFlagPrototyped, spFlags: DISPFlagLocalToUnit | DISPFlagOptimized)
!806 = !DIImportedEntity(tag: DW_TAG_imported_declaration, scope: !129, entity: !807, file: !708, line: 246)
!807 = !DISubprogram(name: "log1p", linkageName: "_ZL5log1pf", scope: !708, file: !708, line: 127, type: !203, flags: DIFlagPrototyped, spFlags: DISPFlagLocalToUnit | DISPFlagOptimized)
!808 = !DIImportedEntity(tag: DW_TAG_imported_declaration, scope: !129, entity: !809, file: !708, line: 247)
!809 = !DISubprogram(name: "log2", linkageName: "_ZL4log2f", scope: !708, file: !708, line: 129, type: !203, flags: DIFlagPrototyped, spFlags: DISPFlagLocalToUnit | DISPFlagOptimized)
!810 = !DIImportedEntity(tag: DW_TAG_imported_declaration, scope: !129, entity: !811, file: !708, line: 248)
!811 = !DISubprogram(name: "logb", linkageName: "_ZL4logbf", scope: !708, file: !708, line: 131, type: !203, flags: DIFlagPrototyped, spFlags: DISPFlagLocalToUnit | DISPFlagOptimized)
!812 = !DIImportedEntity(tag: DW_TAG_imported_declaration, scope: !129, entity: !813, file: !708, line: 249)
!813 = !DISubprogram(name: "lrint", linkageName: "_ZL5lrintf", scope: !708, file: !708, line: 135, type: !360, flags: DIFlagPrototyped, spFlags: DISPFlagLocalToUnit | DISPFlagOptimized)
!814 = !DIImportedEntity(tag: DW_TAG_imported_declaration, scope: !129, entity: !815, file: !708, line: 250)
!815 = !DISubprogram(name: "lround", linkageName: "_ZL6lroundf", scope: !708, file: !708, line: 137, type: !360, flags: DIFlagPrototyped, spFlags: DISPFlagLocalToUnit | DISPFlagOptimized)
!816 = !DIImportedEntity(tag: DW_TAG_imported_declaration, scope: !129, entity: !817, file: !708, line: 251)
!817 = !DISubprogram(name: "llround", linkageName: "_ZL7llroundf", scope: !708, file: !708, line: 138, type: !323, flags: DIFlagPrototyped, spFlags: DISPFlagLocalToUnit | DISPFlagOptimized)
!818 = !DIImportedEntity(tag: DW_TAG_imported_declaration, scope: !129, entity: !819, file: !708, line: 252)
!819 = !DISubprogram(name: "modf", linkageName: "_ZL4modffPf", scope: !708, file: !708, line: 140, type: !820, flags: DIFlagPrototyped, spFlags: DISPFlagLocalToUnit | DISPFlagOptimized)
!820 = !DISubroutineType(types: !821)
!821 = !{!198, !198, !822}
!822 = !DIDerivedType(tag: DW_TAG_pointer_type, baseType: !198, size: 64)
!823 = !DIImportedEntity(tag: DW_TAG_imported_declaration, scope: !129, entity: !824, file: !708, line: 253)
!824 = !DISubprogram(name: "nan", linkageName: "_ZL3nanPKc", scope: !708, file: !708, line: 141, type: !374, flags: DIFlagPrototyped, spFlags: DISPFlagLocalToUnit | DISPFlagOptimized)
!825 = !DIImportedEntity(tag: DW_TAG_imported_declaration, scope: !129, entity: !826, file: !708, line: 254)
!826 = !DISubprogram(name: "nanf", linkageName: "_ZL4nanfPKc", scope: !708, file: !708, line: 142, type: !379, flags: DIFlagPrototyped, spFlags: DISPFlagLocalToUnit | DISPFlagOptimized)
!827 = !DIImportedEntity(tag: DW_TAG_imported_declaration, scope: !129, entity: !828, file: !708, line: 255)
!828 = !DISubprogram(name: "nearbyint", linkageName: "_ZL9nearbyintf", scope: !708, file: !708, line: 144, type: !203, flags: DIFlagPrototyped, spFlags: DISPFlagLocalToUnit | DISPFlagOptimized)
!829 = !DIImportedEntity(tag: DW_TAG_imported_declaration, scope: !129, entity: !830, file: !708, line: 256)
!830 = !DISubprogram(name: "nextafter", linkageName: "_ZL9nextafterff", scope: !708, file: !708, line: 146, type: !232, flags: DIFlagPrototyped, spFlags: DISPFlagLocalToUnit | DISPFlagOptimized)
!831 = !DIImportedEntity(tag: DW_TAG_imported_declaration, scope: !129, entity: !832, file: !708, line: 257)
!832 = !DISubprogram(name: "pow", linkageName: "_ZL3powfi", scope: !708, file: !708, line: 150, type: !453, flags: DIFlagPrototyped, spFlags: DISPFlagLocalToUnit | DISPFlagOptimized)
!833 = !DIImportedEntity(tag: DW_TAG_imported_declaration, scope: !129, entity: !834, file: !708, line: 258)
!834 = !DISubprogram(name: "remainder", linkageName: "_ZL9remainderff", scope: !708, file: !708, line: 152, type: !232, flags: DIFlagPrototyped, spFlags: DISPFlagLocalToUnit | DISPFlagOptimized)
!835 = !DIImportedEntity(tag: DW_TAG_imported_declaration, scope: !129, entity: !836, file: !708, line: 259)
!836 = !DISubprogram(name: "remquo", linkageName: "_ZL6remquoffPi", scope: !708, file: !708, line: 154, type: !419, flags: DIFlagPrototyped, spFlags: DISPFlagLocalToUnit | DISPFlagOptimized)
!837 = !DIImportedEntity(tag: DW_TAG_imported_declaration, scope: !129, entity: !838, file: !708, line: 260)
!838 = !DISubprogram(name: "rint", linkageName: "_ZL4rintf", scope: !708, file: !708, line: 156, type: !203, flags: DIFlagPrototyped, spFlags: DISPFlagLocalToUnit | DISPFlagOptimized)
!839 = !DIImportedEntity(tag: DW_TAG_imported_declaration, scope: !129, entity: !840, file: !708, line: 261)
!840 = !DISubprogram(name: "round", linkageName: "_ZL5roundf", scope: !708, file: !708, line: 158, type: !203, flags: DIFlagPrototyped, spFlags: DISPFlagLocalToUnit | DISPFlagOptimized)
!841 = !DIImportedEntity(tag: DW_TAG_imported_declaration, scope: !129, entity: !842, file: !708, line: 262)
!842 = !DISubprogram(name: "scalbln", linkageName: "_ZL7scalblnfl", scope: !708, file: !708, line: 160, type: !443, flags: DIFlagPrototyped, spFlags: DISPFlagLocalToUnit | DISPFlagOptimized)
!843 = !DIImportedEntity(tag: DW_TAG_imported_declaration, scope: !129, entity: !844, file: !708, line: 263)
!844 = !DISubprogram(name: "scalbn", linkageName: "_ZL6scalbnfi", scope: !708, file: !708, line: 162, type: !453, flags: DIFlagPrototyped, spFlags: DISPFlagLocalToUnit | DISPFlagOptimized)
!845 = !DIImportedEntity(tag: DW_TAG_imported_declaration, scope: !129, entity: !846, file: !708, line: 264)
!846 = !DISubprogram(name: "signbit", linkageName: "_ZL7signbitf", scope: !708, file: !708, line: 167, type: !769, flags: DIFlagPrototyped, spFlags: DISPFlagLocalToUnit | DISPFlagOptimized)
!847 = !DIImportedEntity(tag: DW_TAG_imported_declaration, scope: !129, entity: !848, file: !708, line: 265)
!848 = !DISubprogram(name: "sin", linkageName: "_ZL3sinf", scope: !708, file: !708, line: 169, type: !203, flags: DIFlagPrototyped, spFlags: DISPFlagLocalToUnit | DISPFlagOptimized)
!849 = !DIImportedEntity(tag: DW_TAG_imported_declaration, scope: !129, entity: !850, file: !708, line: 266)
!850 = !DISubprogram(name: "sinh", linkageName: "_ZL4sinhf", scope: !708, file: !708, line: 171, type: !203, flags: DIFlagPrototyped, spFlags: DISPFlagLocalToUnit | DISPFlagOptimized)
!851 = !DIImportedEntity(tag: DW_TAG_imported_declaration, scope: !129, entity: !852, file: !708, line: 267)
!852 = !DISubprogram(name: "sqrt", linkageName: "_ZL4sqrtf", scope: !708, file: !708, line: 173, type: !203, flags: DIFlagPrototyped, spFlags: DISPFlagLocalToUnit | DISPFlagOptimized)
!853 = !DIImportedEntity(tag: DW_TAG_imported_declaration, scope: !129, entity: !854, file: !708, line: 268)
!854 = !DISubprogram(name: "tan", linkageName: "_ZL3tanf", scope: !708, file: !708, line: 175, type: !203, flags: DIFlagPrototyped, spFlags: DISPFlagLocalToUnit | DISPFlagOptimized)
!855 = !DIImportedEntity(tag: DW_TAG_imported_declaration, scope: !129, entity: !856, file: !708, line: 269)
!856 = !DISubprogram(name: "tanh", linkageName: "_ZL4tanhf", scope: !708, file: !708, line: 177, type: !203, flags: DIFlagPrototyped, spFlags: DISPFlagLocalToUnit | DISPFlagOptimized)
!857 = !DIImportedEntity(tag: DW_TAG_imported_declaration, scope: !129, entity: !858, file: !708, line: 270)
!858 = !DISubprogram(name: "tgamma", linkageName: "_ZL6tgammaf", scope: !708, file: !708, line: 179, type: !203, flags: DIFlagPrototyped, spFlags: DISPFlagLocalToUnit | DISPFlagOptimized)
!859 = !DIImportedEntity(tag: DW_TAG_imported_declaration, scope: !129, entity: !860, file: !708, line: 271)
!860 = !DISubprogram(name: "trunc", linkageName: "_ZL5truncf", scope: !708, file: !708, line: 181, type: !203, flags: DIFlagPrototyped, spFlags: DISPFlagLocalToUnit | DISPFlagOptimized)
!861 = !DIImportedEntity(tag: DW_TAG_imported_declaration, scope: !129, entity: !862, file: !864, line: 729)
!862 = !DISubprogram(name: "acosf", linkageName: "_ZL5acosff", scope: !863, file: !863, line: 188, type: !203, flags: DIFlagPrototyped, spFlags: DISPFlagLocalToUnit | DISPFlagOptimized)
!863 = !DIFile(filename: "/opt/rocm-5.3.0/llvm/lib/clang/15.0.0/include/__clang_hip_math.h", directory: "")
!864 = !DIFile(filename: "/opt/rocm-5.3.0/llvm/lib/clang/15.0.0/include/__clang_hip_cmath.h", directory: "")
!865 = !DIImportedEntity(tag: DW_TAG_imported_declaration, scope: !129, entity: !866, file: !864, line: 730)
!866 = !DISubprogram(name: "acoshf", linkageName: "_ZL6acoshff", scope: !863, file: !863, line: 191, type: !203, flags: DIFlagPrototyped, spFlags: DISPFlagLocalToUnit | DISPFlagOptimized)
!867 = !DIImportedEntity(tag: DW_TAG_imported_declaration, scope: !129, entity: !868, file: !864, line: 731)
!868 = !DISubprogram(name: "asinf", linkageName: "_ZL5asinff", scope: !863, file: !863, line: 194, type: !203, flags: DIFlagPrototyped, spFlags: DISPFlagLocalToUnit | DISPFlagOptimized)
!869 = !DIImportedEntity(tag: DW_TAG_imported_declaration, scope: !129, entity: !870, file: !864, line: 732)
!870 = !DISubprogram(name: "asinhf", linkageName: "_ZL6asinhff", scope: !863, file: !863, line: 197, type: !203, flags: DIFlagPrototyped, spFlags: DISPFlagLocalToUnit | DISPFlagOptimized)
!871 = !DIImportedEntity(tag: DW_TAG_imported_declaration, scope: !129, entity: !872, file: !864, line: 733)
!872 = !DISubprogram(name: "atan2f", linkageName: "_ZL6atan2fff", scope: !863, file: !863, line: 200, type: !232, flags: DIFlagPrototyped, spFlags: DISPFlagLocalToUnit | DISPFlagOptimized)
!873 = !DIImportedEntity(tag: DW_TAG_imported_declaration, scope: !129, entity: !874, file: !864, line: 734)
!874 = !DISubprogram(name: "atanf", linkageName: "_ZL5atanff", scope: !863, file: !863, line: 203, type: !203, flags: DIFlagPrototyped, spFlags: DISPFlagLocalToUnit | DISPFlagOptimized)
!875 = !DIImportedEntity(tag: DW_TAG_imported_declaration, scope: !129, entity: !876, file: !864, line: 735)
!876 = !DISubprogram(name: "atanhf", linkageName: "_ZL6atanhff", scope: !863, file: !863, line: 206, type: !203, flags: DIFlagPrototyped, spFlags: DISPFlagLocalToUnit | DISPFlagOptimized)
!877 = !DIImportedEntity(tag: DW_TAG_imported_declaration, scope: !129, entity: !878, file: !864, line: 736)
!878 = !DISubprogram(name: "cbrtf", linkageName: "_ZL5cbrtff", scope: !863, file: !863, line: 209, type: !203, flags: DIFlagPrototyped, spFlags: DISPFlagLocalToUnit | DISPFlagOptimized)
!879 = !DIImportedEntity(tag: DW_TAG_imported_declaration, scope: !129, entity: !880, file: !864, line: 737)
!880 = !DISubprogram(name: "ceilf", linkageName: "_ZL5ceilff", scope: !863, file: !863, line: 212, type: !203, flags: DIFlagPrototyped, spFlags: DISPFlagLocalToUnit | DISPFlagOptimized)
!881 = !DIImportedEntity(tag: DW_TAG_imported_declaration, scope: !129, entity: !882, file: !864, line: 738)
!882 = !DISubprogram(name: "copysignf", linkageName: "_ZL9copysignfff", scope: !863, file: !863, line: 215, type: !232, flags: DIFlagPrototyped, spFlags: DISPFlagLocalToUnit | DISPFlagOptimized)
!883 = !DIImportedEntity(tag: DW_TAG_imported_declaration, scope: !129, entity: !884, file: !864, line: 739)
!884 = !DISubprogram(name: "cosf", linkageName: "_ZL4cosff", scope: !863, file: !863, line: 218, type: !203, flags: DIFlagPrototyped, spFlags: DISPFlagLocalToUnit | DISPFlagOptimized)
!885 = !DIImportedEntity(tag: DW_TAG_imported_declaration, scope: !129, entity: !886, file: !864, line: 740)
!886 = !DISubprogram(name: "coshf", linkageName: "_ZL5coshff", scope: !863, file: !863, line: 221, type: !203, flags: DIFlagPrototyped, spFlags: DISPFlagLocalToUnit | DISPFlagOptimized)
!887 = !DIImportedEntity(tag: DW_TAG_imported_declaration, scope: !129, entity: !888, file: !864, line: 741)
!888 = !DISubprogram(name: "erfcf", linkageName: "_ZL5erfcff", scope: !863, file: !863, line: 233, type: !203, flags: DIFlagPrototyped, spFlags: DISPFlagLocalToUnit | DISPFlagOptimized)
!889 = !DIImportedEntity(tag: DW_TAG_imported_declaration, scope: !129, entity: !890, file: !864, line: 742)
!890 = !DISubprogram(name: "erff", linkageName: "_ZL4erfff", scope: !863, file: !863, line: 242, type: !203, flags: DIFlagPrototyped, spFlags: DISPFlagLocalToUnit | DISPFlagOptimized)
!891 = !DIImportedEntity(tag: DW_TAG_imported_declaration, scope: !129, entity: !892, file: !864, line: 743)
!892 = !DISubprogram(name: "exp2f", linkageName: "_ZL5exp2ff", scope: !863, file: !863, line: 251, type: !203, flags: DIFlagPrototyped, spFlags: DISPFlagLocalToUnit | DISPFlagOptimized)
!893 = !DIImportedEntity(tag: DW_TAG_imported_declaration, scope: !129, entity: !894, file: !864, line: 744)
!894 = !DISubprogram(name: "expf", linkageName: "_ZL4expff", scope: !863, file: !863, line: 254, type: !203, flags: DIFlagPrototyped, spFlags: DISPFlagLocalToUnit | DISPFlagOptimized)
!895 = !DIImportedEntity(tag: DW_TAG_imported_declaration, scope: !129, entity: !896, file: !864, line: 745)
!896 = !DISubprogram(name: "expm1f", linkageName: "_ZL6expm1ff", scope: !863, file: !863, line: 257, type: !203, flags: DIFlagPrototyped, spFlags: DISPFlagLocalToUnit | DISPFlagOptimized)
!897 = !DIImportedEntity(tag: DW_TAG_imported_declaration, scope: !129, entity: !898, file: !864, line: 746)
!898 = !DISubprogram(name: "fabsf", linkageName: "_ZL5fabsff", scope: !863, file: !863, line: 260, type: !203, flags: DIFlagPrototyped, spFlags: DISPFlagLocalToUnit | DISPFlagOptimized)
!899 = !DIImportedEntity(tag: DW_TAG_imported_declaration, scope: !129, entity: !900, file: !864, line: 747)
!900 = !DISubprogram(name: "fdimf", linkageName: "_ZL5fdimfff", scope: !863, file: !863, line: 263, type: !232, flags: DIFlagPrototyped, spFlags: DISPFlagLocalToUnit | DISPFlagOptimized)
!901 = !DIImportedEntity(tag: DW_TAG_imported_declaration, scope: !129, entity: !902, file: !864, line: 748)
!902 = !DISubprogram(name: "floorf", linkageName: "_ZL6floorff", scope: !863, file: !863, line: 269, type: !203, flags: DIFlagPrototyped, spFlags: DISPFlagLocalToUnit | DISPFlagOptimized)
!903 = !DIImportedEntity(tag: DW_TAG_imported_declaration, scope: !129, entity: !904, file: !864, line: 749)
!904 = !DISubprogram(name: "fmaf", linkageName: "_ZL4fmaffff", scope: !863, file: !863, line: 272, type: !274, flags: DIFlagPrototyped, spFlags: DISPFlagLocalToUnit | DISPFlagOptimized)
!905 = !DIImportedEntity(tag: DW_TAG_imported_declaration, scope: !129, entity: !906, file: !864, line: 750)
!906 = !DISubprogram(name: "fmaxf", linkageName: "_ZL5fmaxfff", scope: !863, file: !863, line: 277, type: !232, flags: DIFlagPrototyped, spFlags: DISPFlagLocalToUnit | DISPFlagOptimized)
!907 = !DIImportedEntity(tag: DW_TAG_imported_declaration, scope: !129, entity: !908, file: !864, line: 751)
!908 = !DISubprogram(name: "fminf", linkageName: "_ZL5fminfff", scope: !863, file: !863, line: 280, type: !232, flags: DIFlagPrototyped, spFlags: DISPFlagLocalToUnit | DISPFlagOptimized)
!909 = !DIImportedEntity(tag: DW_TAG_imported_declaration, scope: !129, entity: !910, file: !864, line: 752)
!910 = !DISubprogram(name: "fmodf", linkageName: "_ZL5fmodfff", scope: !863, file: !863, line: 283, type: !232, flags: DIFlagPrototyped, spFlags: DISPFlagLocalToUnit | DISPFlagOptimized)
!911 = !DIImportedEntity(tag: DW_TAG_imported_declaration, scope: !129, entity: !912, file: !864, line: 753)
!912 = !DISubprogram(name: "frexpf", linkageName: "_ZL6frexpffPi", scope: !863, file: !863, line: 286, type: !761, flags: DIFlagPrototyped, spFlags: DISPFlagLocalToUnit | DISPFlagOptimized)
!913 = !DIImportedEntity(tag: DW_TAG_imported_declaration, scope: !129, entity: !914, file: !864, line: 754)
!914 = !DISubprogram(name: "hypotf", linkageName: "_ZL6hypotfff", scope: !863, file: !863, line: 299, type: !232, flags: DIFlagPrototyped, spFlags: DISPFlagLocalToUnit | DISPFlagOptimized)
!915 = !DIImportedEntity(tag: DW_TAG_imported_declaration, scope: !129, entity: !916, file: !864, line: 755)
!916 = !DISubprogram(name: "ilogbf", linkageName: "_ZL6ilogbff", scope: !863, file: !863, line: 302, type: !304, flags: DIFlagPrototyped, spFlags: DISPFlagLocalToUnit | DISPFlagOptimized)
!917 = !DIImportedEntity(tag: DW_TAG_imported_declaration, scope: !129, entity: !918, file: !864, line: 756)
!918 = !DISubprogram(name: "ldexpf", linkageName: "_ZL6ldexpffi", scope: !863, file: !863, line: 341, type: !453, flags: DIFlagPrototyped, spFlags: DISPFlagLocalToUnit | DISPFlagOptimized)
!919 = !DIImportedEntity(tag: DW_TAG_imported_declaration, scope: !129, entity: !920, file: !864, line: 757)
!920 = !DISubprogram(name: "lgammaf", linkageName: "_ZL7lgammaff", scope: !863, file: !863, line: 344, type: !203, flags: DIFlagPrototyped, spFlags: DISPFlagLocalToUnit | DISPFlagOptimized)
!921 = !DIImportedEntity(tag: DW_TAG_imported_declaration, scope: !129, entity: !922, file: !864, line: 758)
!922 = !DISubprogram(name: "llrintf", linkageName: "_ZL7llrintff", scope: !863, file: !863, line: 347, type: !323, flags: DIFlagPrototyped, spFlags: DISPFlagLocalToUnit | DISPFlagOptimized)
!923 = !DIImportedEntity(tag: DW_TAG_imported_declaration, scope: !129, entity: !924, file: !864, line: 759)
!924 = !DISubprogram(name: "llroundf", linkageName: "_ZL8llroundff", scope: !863, file: !863, line: 350, type: !323, flags: DIFlagPrototyped, spFlags: DISPFlagLocalToUnit | DISPFlagOptimized)
!925 = !DIImportedEntity(tag: DW_TAG_imported_declaration, scope: !129, entity: !926, file: !864, line: 760)
!926 = !DISubprogram(name: "log10f", linkageName: "_ZL6log10ff", scope: !863, file: !863, line: 353, type: !203, flags: DIFlagPrototyped, spFlags: DISPFlagLocalToUnit | DISPFlagOptimized)
!927 = !DIImportedEntity(tag: DW_TAG_imported_declaration, scope: !129, entity: !928, file: !864, line: 761)
!928 = !DISubprogram(name: "log1pf", linkageName: "_ZL6log1pff", scope: !863, file: !863, line: 356, type: !203, flags: DIFlagPrototyped, spFlags: DISPFlagLocalToUnit | DISPFlagOptimized)
!929 = !DIImportedEntity(tag: DW_TAG_imported_declaration, scope: !129, entity: !930, file: !864, line: 762)
!930 = !DISubprogram(name: "log2f", linkageName: "_ZL5log2ff", scope: !863, file: !863, line: 359, type: !203, flags: DIFlagPrototyped, spFlags: DISPFlagLocalToUnit | DISPFlagOptimized)
!931 = !DIImportedEntity(tag: DW_TAG_imported_declaration, scope: !129, entity: !932, file: !864, line: 763)
!932 = !DISubprogram(name: "logbf", linkageName: "_ZL5logbff", scope: !863, file: !863, line: 365, type: !203, flags: DIFlagPrototyped, spFlags: DISPFlagLocalToUnit | DISPFlagOptimized)
!933 = !DIImportedEntity(tag: DW_TAG_imported_declaration, scope: !129, entity: !934, file: !864, line: 764)
!934 = !DISubprogram(name: "logf", linkageName: "_ZL4logff", scope: !863, file: !863, line: 368, type: !203, flags: DIFlagPrototyped, spFlags: DISPFlagLocalToUnit | DISPFlagOptimized)
!935 = !DIImportedEntity(tag: DW_TAG_imported_declaration, scope: !129, entity: !936, file: !864, line: 765)
!936 = !DISubprogram(name: "lrintf", linkageName: "_ZL6lrintff", scope: !863, file: !863, line: 371, type: !360, flags: DIFlagPrototyped, spFlags: DISPFlagLocalToUnit | DISPFlagOptimized)
!937 = !DIImportedEntity(tag: DW_TAG_imported_declaration, scope: !129, entity: !938, file: !864, line: 766)
!938 = !DISubprogram(name: "lroundf", linkageName: "_ZL7lroundff", scope: !863, file: !863, line: 374, type: !360, flags: DIFlagPrototyped, spFlags: DISPFlagLocalToUnit | DISPFlagOptimized)
!939 = !DIImportedEntity(tag: DW_TAG_imported_declaration, scope: !129, entity: !940, file: !864, line: 767)
!940 = !DISubprogram(name: "modff", linkageName: "_ZL5modfffPf", scope: !863, file: !863, line: 377, type: !820, flags: DIFlagPrototyped, spFlags: DISPFlagLocalToUnit | DISPFlagOptimized)
!941 = !DIImportedEntity(tag: DW_TAG_imported_declaration, scope: !129, entity: !942, file: !864, line: 768)
!942 = !DISubprogram(name: "nearbyintf", linkageName: "_ZL10nearbyintff", scope: !863, file: !863, line: 413, type: !203, flags: DIFlagPrototyped, spFlags: DISPFlagLocalToUnit | DISPFlagOptimized)
!943 = !DIImportedEntity(tag: DW_TAG_imported_declaration, scope: !129, entity: !944, file: !864, line: 769)
!944 = !DISubprogram(name: "nextafterf", linkageName: "_ZL10nextafterfff", scope: !863, file: !863, line: 416, type: !232, flags: DIFlagPrototyped, spFlags: DISPFlagLocalToUnit | DISPFlagOptimized)
!945 = !DIImportedEntity(tag: DW_TAG_imported_declaration, scope: !129, entity: !946, file: !864, line: 771)
!946 = !DISubprogram(name: "powf", linkageName: "_ZL4powfff", scope: !863, file: !863, line: 449, type: !232, flags: DIFlagPrototyped, spFlags: DISPFlagLocalToUnit | DISPFlagOptimized)
!947 = !DIImportedEntity(tag: DW_TAG_imported_declaration, scope: !129, entity: !948, file: !864, line: 772)
!948 = !DISubprogram(name: "remainderf", linkageName: "_ZL10remainderfff", scope: !863, file: !863, line: 474, type: !232, flags: DIFlagPrototyped, spFlags: DISPFlagLocalToUnit | DISPFlagOptimized)
!949 = !DIImportedEntity(tag: DW_TAG_imported_declaration, scope: !129, entity: !950, file: !864, line: 773)
!950 = !DISubprogram(name: "remquof", linkageName: "_ZL7remquofffPi", scope: !863, file: !863, line: 479, type: !419, flags: DIFlagPrototyped, spFlags: DISPFlagLocalToUnit | DISPFlagOptimized)
!951 = !DIImportedEntity(tag: DW_TAG_imported_declaration, scope: !129, entity: !952, file: !864, line: 774)
!952 = !DISubprogram(name: "rintf", linkageName: "_ZL5rintff", scope: !863, file: !863, line: 495, type: !203, flags: DIFlagPrototyped, spFlags: DISPFlagLocalToUnit | DISPFlagOptimized)
!953 = !DIImportedEntity(tag: DW_TAG_imported_declaration, scope: !129, entity: !954, file: !864, line: 775)
!954 = !DISubprogram(name: "roundf", linkageName: "_ZL6roundff", scope: !863, file: !863, line: 520, type: !203, flags: DIFlagPrototyped, spFlags: DISPFlagLocalToUnit | DISPFlagOptimized)
!955 = !DIImportedEntity(tag: DW_TAG_imported_declaration, scope: !129, entity: !956, file: !864, line: 776)
!956 = !DISubprogram(name: "scalblnf", linkageName: "_ZL8scalblnffl", scope: !863, file: !863, line: 526, type: !443, flags: DIFlagPrototyped, spFlags: DISPFlagLocalToUnit | DISPFlagOptimized)
!957 = !DIImportedEntity(tag: DW_TAG_imported_declaration, scope: !129, entity: !958, file: !864, line: 777)
!958 = !DISubprogram(name: "scalbnf", linkageName: "_ZL7scalbnffi", scope: !863, file: !863, line: 532, type: !453, flags: DIFlagPrototyped, spFlags: DISPFlagLocalToUnit | DISPFlagOptimized)
!959 = !DIImportedEntity(tag: DW_TAG_imported_declaration, scope: !129, entity: !960, file: !864, line: 778)
!960 = !DISubprogram(name: "sinf", linkageName: "_ZL4sinff", scope: !863, file: !863, line: 560, type: !203, flags: DIFlagPrototyped, spFlags: DISPFlagLocalToUnit | DISPFlagOptimized)
!961 = !DIImportedEntity(tag: DW_TAG_imported_declaration, scope: !129, entity: !962, file: !864, line: 779)
!962 = !DISubprogram(name: "sinhf", linkageName: "_ZL5sinhff", scope: !863, file: !863, line: 563, type: !203, flags: DIFlagPrototyped, spFlags: DISPFlagLocalToUnit | DISPFlagOptimized)
!963 = !DIImportedEntity(tag: DW_TAG_imported_declaration, scope: !129, entity: !964, file: !864, line: 780)
!964 = !DISubprogram(name: "sqrtf", linkageName: "_ZL5sqrtff", scope: !863, file: !863, line: 569, type: !203, flags: DIFlagPrototyped, spFlags: DISPFlagLocalToUnit | DISPFlagOptimized)
!965 = !DIImportedEntity(tag: DW_TAG_imported_declaration, scope: !129, entity: !966, file: !864, line: 781)
!966 = !DISubprogram(name: "tanf", linkageName: "_ZL4tanff", scope: !863, file: !863, line: 572, type: !203, flags: DIFlagPrototyped, spFlags: DISPFlagLocalToUnit | DISPFlagOptimized)
!967 = !DIImportedEntity(tag: DW_TAG_imported_declaration, scope: !129, entity: !968, file: !864, line: 782)
!968 = !DISubprogram(name: "tanhf", linkageName: "_ZL5tanhff", scope: !863, file: !863, line: 575, type: !203, flags: DIFlagPrototyped, spFlags: DISPFlagLocalToUnit | DISPFlagOptimized)
!969 = !DIImportedEntity(tag: DW_TAG_imported_declaration, scope: !129, entity: !970, file: !864, line: 783)
!970 = !DISubprogram(name: "tgammaf", linkageName: "_ZL7tgammaff", scope: !863, file: !863, line: 578, type: !203, flags: DIFlagPrototyped, spFlags: DISPFlagLocalToUnit | DISPFlagOptimized)
!971 = !DIImportedEntity(tag: DW_TAG_imported_declaration, scope: !129, entity: !972, file: !864, line: 784)
!972 = !DISubprogram(name: "truncf", linkageName: "_ZL6truncff", scope: !863, file: !863, line: 581, type: !203, flags: DIFlagPrototyped, spFlags: DISPFlagLocalToUnit | DISPFlagOptimized)
!973 = !DIImportedEntity(tag: DW_TAG_imported_declaration, scope: !129, entity: !974, file: !989, line: 64)
!974 = !DIDerivedType(tag: DW_TAG_typedef, name: "mbstate_t", file: !975, line: 6, baseType: !976)
!975 = !DIFile(filename: "/usr/include/x86_64-linux-gnu/bits/types/mbstate_t.h", directory: "")
!976 = !DIDerivedType(tag: DW_TAG_typedef, name: "__mbstate_t", file: !977, line: 21, baseType: !978)
!977 = !DIFile(filename: "/usr/include/x86_64-linux-gnu/bits/types/__mbstate_t.h", directory: "")
!978 = distinct !DICompositeType(tag: DW_TAG_structure_type, file: !977, line: 13, size: 64, flags: DIFlagTypePassByValue, elements: !979, identifier: "_ZTS11__mbstate_t")
!979 = !{!980, !981}
!980 = !DIDerivedType(tag: DW_TAG_member, name: "__count", scope: !978, file: !977, line: 15, baseType: !134, size: 32)
!981 = !DIDerivedType(tag: DW_TAG_member, name: "__value", scope: !978, file: !977, line: 20, baseType: !982, size: 32, offset: 32)
!982 = distinct !DICompositeType(tag: DW_TAG_union_type, scope: !978, file: !977, line: 16, size: 32, flags: DIFlagTypePassByValue, elements: !983, identifier: "_ZTSN11__mbstate_tUt_E")
!983 = !{!984, !985}
!984 = !DIDerivedType(tag: DW_TAG_member, name: "__wch", scope: !982, file: !977, line: 18, baseType: !14, size: 32)
!985 = !DIDerivedType(tag: DW_TAG_member, name: "__wchb", scope: !982, file: !977, line: 19, baseType: !986, size: 32)
!986 = !DICompositeType(tag: DW_TAG_array_type, baseType: !5, size: 32, elements: !987)
!987 = !{!988}
!988 = !DISubrange(count: 4)
!989 = !DIFile(filename: "/usr/lib/gcc/x86_64-linux-gnu/9/../../../../include/c++/9/cwchar", directory: "")
!990 = !DIImportedEntity(tag: DW_TAG_imported_declaration, scope: !129, entity: !991, file: !989, line: 141)
!991 = !DIDerivedType(tag: DW_TAG_typedef, name: "wint_t", file: !992, line: 20, baseType: !14)
!992 = !DIFile(filename: "/usr/include/x86_64-linux-gnu/bits/types/wint_t.h", directory: "")
!993 = !DIImportedEntity(tag: DW_TAG_imported_declaration, scope: !129, entity: !994, file: !989, line: 143)
!994 = !DISubprogram(name: "btowc", scope: !995, file: !995, line: 318, type: !996, flags: DIFlagPrototyped, spFlags: DISPFlagOptimized)
!995 = !DIFile(filename: "/usr/include/wchar.h", directory: "")
!996 = !DISubroutineType(types: !997)
!997 = !{!991, !134}
!998 = !DIImportedEntity(tag: DW_TAG_imported_declaration, scope: !129, entity: !999, file: !989, line: 144)
!999 = !DISubprogram(name: "fgetwc", scope: !995, file: !995, line: 726, type: !1000, flags: DIFlagPrototyped, spFlags: DISPFlagOptimized)
!1000 = !DISubroutineType(types: !1001)
!1001 = !{!991, !1002}
!1002 = !DIDerivedType(tag: DW_TAG_pointer_type, baseType: !1003, size: 64)
!1003 = !DIDerivedType(tag: DW_TAG_typedef, name: "__FILE", file: !1004, line: 5, baseType: !1005)
!1004 = !DIFile(filename: "/usr/include/x86_64-linux-gnu/bits/types/__FILE.h", directory: "")
!1005 = distinct !DICompositeType(tag: DW_TAG_structure_type, name: "_IO_FILE", file: !1006, line: 49, size: 1728, flags: DIFlagTypePassByValue, elements: !1007, identifier: "_ZTS8_IO_FILE")
!1006 = !DIFile(filename: "/usr/include/x86_64-linux-gnu/bits/types/struct_FILE.h", directory: "")
!1007 = !{!1008, !1009, !1010, !1011, !1012, !1013, !1014, !1015, !1016, !1017, !1018, !1019, !1020, !1023, !1025, !1026, !1027, !1029, !1031, !1033, !1037, !1040, !1042, !1045, !1048, !1049, !1050, !1051, !1052}
!1008 = !DIDerivedType(tag: DW_TAG_member, name: "_flags", scope: !1005, file: !1006, line: 51, baseType: !134, size: 32)
!1009 = !DIDerivedType(tag: DW_TAG_member, name: "_IO_read_ptr", scope: !1005, file: !1006, line: 54, baseType: !537, size: 64, offset: 64)
!1010 = !DIDerivedType(tag: DW_TAG_member, name: "_IO_read_end", scope: !1005, file: !1006, line: 55, baseType: !537, size: 64, offset: 128)
!1011 = !DIDerivedType(tag: DW_TAG_member, name: "_IO_read_base", scope: !1005, file: !1006, line: 56, baseType: !537, size: 64, offset: 192)
!1012 = !DIDerivedType(tag: DW_TAG_member, name: "_IO_write_base", scope: !1005, file: !1006, line: 57, baseType: !537, size: 64, offset: 256)
!1013 = !DIDerivedType(tag: DW_TAG_member, name: "_IO_write_ptr", scope: !1005, file: !1006, line: 58, baseType: !537, size: 64, offset: 320)
!1014 = !DIDerivedType(tag: DW_TAG_member, name: "_IO_write_end", scope: !1005, file: !1006, line: 59, baseType: !537, size: 64, offset: 384)
!1015 = !DIDerivedType(tag: DW_TAG_member, name: "_IO_buf_base", scope: !1005, file: !1006, line: 60, baseType: !537, size: 64, offset: 448)
!1016 = !DIDerivedType(tag: DW_TAG_member, name: "_IO_buf_end", scope: !1005, file: !1006, line: 61, baseType: !537, size: 64, offset: 512)
!1017 = !DIDerivedType(tag: DW_TAG_member, name: "_IO_save_base", scope: !1005, file: !1006, line: 64, baseType: !537, size: 64, offset: 576)
!1018 = !DIDerivedType(tag: DW_TAG_member, name: "_IO_backup_base", scope: !1005, file: !1006, line: 65, baseType: !537, size: 64, offset: 640)
!1019 = !DIDerivedType(tag: DW_TAG_member, name: "_IO_save_end", scope: !1005, file: !1006, line: 66, baseType: !537, size: 64, offset: 704)
!1020 = !DIDerivedType(tag: DW_TAG_member, name: "_markers", scope: !1005, file: !1006, line: 68, baseType: !1021, size: 64, offset: 768)
!1021 = !DIDerivedType(tag: DW_TAG_pointer_type, baseType: !1022, size: 64)
!1022 = !DICompositeType(tag: DW_TAG_structure_type, name: "_IO_marker", file: !1006, line: 36, flags: DIFlagFwdDecl | DIFlagNonTrivial, identifier: "_ZTS10_IO_marker")
!1023 = !DIDerivedType(tag: DW_TAG_member, name: "_chain", scope: !1005, file: !1006, line: 70, baseType: !1024, size: 64, offset: 832)
!1024 = !DIDerivedType(tag: DW_TAG_pointer_type, baseType: !1005, size: 64)
!1025 = !DIDerivedType(tag: DW_TAG_member, name: "_fileno", scope: !1005, file: !1006, line: 72, baseType: !134, size: 32, offset: 896)
!1026 = !DIDerivedType(tag: DW_TAG_member, name: "_flags2", scope: !1005, file: !1006, line: 73, baseType: !134, size: 32, offset: 928)
!1027 = !DIDerivedType(tag: DW_TAG_member, name: "_old_offset", scope: !1005, file: !1006, line: 74, baseType: !1028, size: 64, offset: 960)
!1028 = !DIDerivedType(tag: DW_TAG_typedef, name: "__off_t", file: !119, line: 152, baseType: !357)
!1029 = !DIDerivedType(tag: DW_TAG_member, name: "_cur_column", scope: !1005, file: !1006, line: 77, baseType: !1030, size: 16, offset: 1024)
!1030 = !DIBasicType(name: "unsigned short", size: 16, encoding: DW_ATE_unsigned)
!1031 = !DIDerivedType(tag: DW_TAG_member, name: "_vtable_offset", scope: !1005, file: !1006, line: 78, baseType: !1032, size: 8, offset: 1040)
!1032 = !DIBasicType(name: "signed char", size: 8, encoding: DW_ATE_signed_char)
!1033 = !DIDerivedType(tag: DW_TAG_member, name: "_shortbuf", scope: !1005, file: !1006, line: 79, baseType: !1034, size: 8, offset: 1048)
!1034 = !DICompositeType(tag: DW_TAG_array_type, baseType: !5, size: 8, elements: !1035)
!1035 = !{!1036}
!1036 = !DISubrange(count: 1)
!1037 = !DIDerivedType(tag: DW_TAG_member, name: "_lock", scope: !1005, file: !1006, line: 81, baseType: !1038, size: 64, offset: 1088)
!1038 = !DIDerivedType(tag: DW_TAG_pointer_type, baseType: !1039, size: 64)
!1039 = !DIDerivedType(tag: DW_TAG_typedef, name: "_IO_lock_t", file: !1006, line: 43, baseType: null)
!1040 = !DIDerivedType(tag: DW_TAG_member, name: "_offset", scope: !1005, file: !1006, line: 89, baseType: !1041, size: 64, offset: 1152)
!1041 = !DIDerivedType(tag: DW_TAG_typedef, name: "__off64_t", file: !119, line: 153, baseType: !357)
!1042 = !DIDerivedType(tag: DW_TAG_member, name: "_codecvt", scope: !1005, file: !1006, line: 91, baseType: !1043, size: 64, offset: 1216)
!1043 = !DIDerivedType(tag: DW_TAG_pointer_type, baseType: !1044, size: 64)
!1044 = !DICompositeType(tag: DW_TAG_structure_type, name: "_IO_codecvt", file: !1006, line: 37, flags: DIFlagFwdDecl | DIFlagNonTrivial, identifier: "_ZTS11_IO_codecvt")
!1045 = !DIDerivedType(tag: DW_TAG_member, name: "_wide_data", scope: !1005, file: !1006, line: 92, baseType: !1046, size: 64, offset: 1280)
!1046 = !DIDerivedType(tag: DW_TAG_pointer_type, baseType: !1047, size: 64)
!1047 = !DICompositeType(tag: DW_TAG_structure_type, name: "_IO_wide_data", file: !1006, line: 38, flags: DIFlagFwdDecl | DIFlagNonTrivial, identifier: "_ZTS13_IO_wide_data")
!1048 = !DIDerivedType(tag: DW_TAG_member, name: "_freeres_list", scope: !1005, file: !1006, line: 93, baseType: !1024, size: 64, offset: 1344)
!1049 = !DIDerivedType(tag: DW_TAG_member, name: "_freeres_buf", scope: !1005, file: !1006, line: 94, baseType: !112, size: 64, offset: 1408)
!1050 = !DIDerivedType(tag: DW_TAG_member, name: "__pad5", scope: !1005, file: !1006, line: 95, baseType: !510, size: 64, offset: 1472)
!1051 = !DIDerivedType(tag: DW_TAG_member, name: "_mode", scope: !1005, file: !1006, line: 96, baseType: !134, size: 32, offset: 1536)
!1052 = !DIDerivedType(tag: DW_TAG_member, name: "_unused2", scope: !1005, file: !1006, line: 98, baseType: !1053, size: 160, offset: 1568)
!1053 = !DICompositeType(tag: DW_TAG_array_type, baseType: !5, size: 160, elements: !1054)
!1054 = !{!1055}
!1055 = !DISubrange(count: 20)
!1056 = !DIImportedEntity(tag: DW_TAG_imported_declaration, scope: !129, entity: !1057, file: !989, line: 145)
!1057 = !DISubprogram(name: "fgetws", scope: !995, file: !995, line: 755, type: !1058, flags: DIFlagPrototyped, spFlags: DISPFlagOptimized)
!1058 = !DISubroutineType(types: !1059)
!1059 = !{!559, !558, !134, !1060}
!1060 = !DIDerivedType(tag: DW_TAG_restrict_type, baseType: !1002)
!1061 = !DIImportedEntity(tag: DW_TAG_imported_declaration, scope: !129, entity: !1062, file: !989, line: 146)
!1062 = !DISubprogram(name: "fputwc", scope: !995, file: !995, line: 740, type: !1063, flags: DIFlagPrototyped, spFlags: DISPFlagOptimized)
!1063 = !DISubroutineType(types: !1064)
!1064 = !{!991, !560, !1002}
!1065 = !DIImportedEntity(tag: DW_TAG_imported_declaration, scope: !129, entity: !1066, file: !989, line: 147)
!1066 = !DISubprogram(name: "fputws", scope: !995, file: !995, line: 762, type: !1067, flags: DIFlagPrototyped, spFlags: DISPFlagOptimized)
!1067 = !DISubroutineType(types: !1068)
!1068 = !{!134, !605, !1060}
!1069 = !DIImportedEntity(tag: DW_TAG_imported_declaration, scope: !129, entity: !1070, file: !989, line: 148)
!1070 = !DISubprogram(name: "fwide", scope: !995, file: !995, line: 573, type: !1071, flags: DIFlagPrototyped, spFlags: DISPFlagOptimized)
!1071 = !DISubroutineType(types: !1072)
!1072 = !{!134, !1002, !134}
!1073 = !DIImportedEntity(tag: DW_TAG_imported_declaration, scope: !129, entity: !1074, file: !989, line: 149)
!1074 = !DISubprogram(name: "fwprintf", scope: !995, file: !995, line: 580, type: !1075, flags: DIFlagPrototyped, spFlags: DISPFlagOptimized)
!1075 = !DISubroutineType(types: !1076)
!1076 = !{!134, !1060, !605, null}
!1077 = !DIImportedEntity(tag: DW_TAG_imported_declaration, scope: !129, entity: !1078, file: !989, line: 150)
!1078 = !DISubprogram(name: "fwscanf", linkageName: "__isoc99_fwscanf", scope: !995, file: !995, line: 640, type: !1075, flags: DIFlagPrototyped, spFlags: DISPFlagOptimized)
!1079 = !DIImportedEntity(tag: DW_TAG_imported_declaration, scope: !129, entity: !1080, file: !989, line: 151)
!1080 = !DISubprogram(name: "getwc", scope: !995, file: !995, line: 727, type: !1000, flags: DIFlagPrototyped, spFlags: DISPFlagOptimized)
!1081 = !DIImportedEntity(tag: DW_TAG_imported_declaration, scope: !129, entity: !1082, file: !989, line: 152)
!1082 = !DISubprogram(name: "getwchar", scope: !995, file: !995, line: 733, type: !1083, flags: DIFlagPrototyped, spFlags: DISPFlagOptimized)
!1083 = !DISubroutineType(types: !1084)
!1084 = !{!991}
!1085 = !DIImportedEntity(tag: DW_TAG_imported_declaration, scope: !129, entity: !1086, file: !989, line: 153)
!1086 = !DISubprogram(name: "mbrlen", scope: !995, file: !995, line: 329, type: !1087, flags: DIFlagPrototyped, spFlags: DISPFlagOptimized)
!1087 = !DISubroutineType(types: !1088)
!1088 = !{!510, !561, !510, !1089}
!1089 = !DIDerivedType(tag: DW_TAG_restrict_type, baseType: !1090)
!1090 = !DIDerivedType(tag: DW_TAG_pointer_type, baseType: !974, size: 64)
!1091 = !DIImportedEntity(tag: DW_TAG_imported_declaration, scope: !129, entity: !1092, file: !989, line: 154)
!1092 = !DISubprogram(name: "mbrtowc", scope: !995, file: !995, line: 296, type: !1093, flags: DIFlagPrototyped, spFlags: DISPFlagOptimized)
!1093 = !DISubroutineType(types: !1094)
!1094 = !{!510, !558, !561, !510, !1089}
!1095 = !DIImportedEntity(tag: DW_TAG_imported_declaration, scope: !129, entity: !1096, file: !989, line: 155)
!1096 = !DISubprogram(name: "mbsinit", scope: !995, file: !995, line: 292, type: !1097, flags: DIFlagPrototyped, spFlags: DISPFlagOptimized)
!1097 = !DISubroutineType(types: !1098)
!1098 = !{!134, !1099}
!1099 = !DIDerivedType(tag: DW_TAG_pointer_type, baseType: !1100, size: 64)
!1100 = !DIDerivedType(tag: DW_TAG_const_type, baseType: !974)
!1101 = !DIImportedEntity(tag: DW_TAG_imported_declaration, scope: !129, entity: !1102, file: !989, line: 156)
!1102 = !DISubprogram(name: "mbsrtowcs", scope: !995, file: !995, line: 337, type: !1103, flags: DIFlagPrototyped, spFlags: DISPFlagOptimized)
!1103 = !DISubroutineType(types: !1104)
!1104 = !{!510, !558, !1105, !510, !1089}
!1105 = !DIDerivedType(tag: DW_TAG_restrict_type, baseType: !1106)
!1106 = !DIDerivedType(tag: DW_TAG_pointer_type, baseType: !376, size: 64)
!1107 = !DIImportedEntity(tag: DW_TAG_imported_declaration, scope: !129, entity: !1108, file: !989, line: 157)
!1108 = !DISubprogram(name: "putwc", scope: !995, file: !995, line: 741, type: !1063, flags: DIFlagPrototyped, spFlags: DISPFlagOptimized)
!1109 = !DIImportedEntity(tag: DW_TAG_imported_declaration, scope: !129, entity: !1110, file: !989, line: 158)
!1110 = !DISubprogram(name: "putwchar", scope: !995, file: !995, line: 747, type: !1111, flags: DIFlagPrototyped, spFlags: DISPFlagOptimized)
!1111 = !DISubroutineType(types: !1112)
!1112 = !{!991, !560}
!1113 = !DIImportedEntity(tag: DW_TAG_imported_declaration, scope: !129, entity: !1114, file: !989, line: 160)
